
homework3.elf:     file format elf32-littlearm

Sections:
Idx Name          Size      VMA       LMA       File off  Algn
  0 .text         000088c8  00000000  00000000  00008000  2**3
                  CONTENTS, ALLOC, LOAD, READONLY, CODE
  1 .ARM.exidx    00000008  000088c8  000088c8  000108c8  2**2
                  CONTENTS, ALLOC, LOAD, READONLY, DATA
  2 .data         000000b8  100000c8  000088d0  000180c8  2**2
                  CONTENTS, ALLOC, LOAD, DATA
  3 .bss          00000308  10000180  00008988  00018180  2**2
                  ALLOC
  4 .heap         00000800  10000488  10000488  00018180  2**3
                  CONTENTS, READONLY
  5 .stack_dummy  00000c00  10000488  10000488  00018980  2**3
                  CONTENTS, READONLY
  6 .ARM.attributes 00000029  00000000  00000000  00019580  2**0
                  CONTENTS, READONLY
  7 .comment      000000e0  00000000  00000000  000195a9  2**0
                  CONTENTS, READONLY
  8 .debug_info   00002ece  00000000  00000000  00019689  2**0
                  CONTENTS, READONLY, DEBUGGING
  9 .debug_abbrev 000005db  00000000  00000000  0001c557  2**0
                  CONTENTS, READONLY, DEBUGGING
 10 .debug_loc    000005d1  00000000  00000000  0001cb32  2**0
                  CONTENTS, READONLY, DEBUGGING
 11 .debug_aranges 00000078  00000000  00000000  0001d103  2**0
                  CONTENTS, READONLY, DEBUGGING
 12 .debug_ranges 00000238  00000000  00000000  0001d17b  2**0
                  CONTENTS, READONLY, DEBUGGING
 13 .debug_line   0000058b  00000000  00000000  0001d3b3  2**0
                  CONTENTS, READONLY, DEBUGGING
 14 .debug_str    000011a0  00000000  00000000  0001d93e  2**0
                  CONTENTS, READONLY, DEBUGGING
 15 .debug_frame  000017c0  00000000  00000000  0001eae0  2**2
                  CONTENTS, READONLY, DEBUGGING
 16 .stabstr      00000076  00000000  00000000  000202a0  2**0
                  CONTENTS, READONLY, DEBUGGING

Disassembly of section .text:

00000000 <__isr_vector>:
       0:	10008000 	.word	0x10008000
       4:	000009dd 	.word	0x000009dd
       8:	00000a0d 	.word	0x00000a0d
       c:	00000a0f 	.word	0x00000a0f
      10:	00000a11 	.word	0x00000a11
      14:	00000a13 	.word	0x00000a13
      18:	00000a15 	.word	0x00000a15
	...
      2c:	00000a17 	.word	0x00000a17
      30:	00000a19 	.word	0x00000a19
      34:	00000000 	.word	0x00000000
      38:	00000a1b 	.word	0x00000a1b
      3c:	00000a1d 	.word	0x00000a1d
      40:	00000a1f 	.word	0x00000a1f
      44:	00000a1f 	.word	0x00000a1f
      48:	00000a1f 	.word	0x00000a1f
      4c:	00000a1f 	.word	0x00000a1f
      50:	00000a1f 	.word	0x00000a1f
      54:	00000a1f 	.word	0x00000a1f
      58:	00000a1f 	.word	0x00000a1f
      5c:	00000a1f 	.word	0x00000a1f
      60:	00000a1f 	.word	0x00000a1f
      64:	00000a1f 	.word	0x00000a1f
      68:	00000a1f 	.word	0x00000a1f
      6c:	00000a1f 	.word	0x00000a1f
      70:	00000a1f 	.word	0x00000a1f
      74:	00000a1f 	.word	0x00000a1f
      78:	00000a1f 	.word	0x00000a1f
      7c:	00000a1f 	.word	0x00000a1f
      80:	00000a1f 	.word	0x00000a1f
      84:	00000a1f 	.word	0x00000a1f
      88:	00000a1f 	.word	0x00000a1f
      8c:	00000a1f 	.word	0x00000a1f
      90:	00000a1f 	.word	0x00000a1f
      94:	00000a1f 	.word	0x00000a1f
      98:	00000a1f 	.word	0x00000a1f
      9c:	00000a1f 	.word	0x00000a1f
      a0:	00000a1f 	.word	0x00000a1f
      a4:	00000a1f 	.word	0x00000a1f
      a8:	00000a1f 	.word	0x00000a1f
      ac:	00000a1f 	.word	0x00000a1f
      b0:	00000a1f 	.word	0x00000a1f
      b4:	00000a1f 	.word	0x00000a1f
      b8:	00000a1f 	.word	0x00000a1f
      bc:	00000a1f 	.word	0x00000a1f
      c0:	00000a1f 	.word	0x00000a1f
      c4:	00000a1f 	.word	0x00000a1f
      c8:	00000a1f 	.word	0x00000a1f

000000cc <__do_global_dtors_aux>:
      cc:	b510      	push	{r4, lr}
      ce:	4c05      	ldr	r4, [pc, #20]	; (e4 <__do_global_dtors_aux+0x18>)
      d0:	7823      	ldrb	r3, [r4, #0]
      d2:	b933      	cbnz	r3, e2 <__do_global_dtors_aux+0x16>
      d4:	4b04      	ldr	r3, [pc, #16]	; (e8 <__do_global_dtors_aux+0x1c>)
      d6:	b113      	cbz	r3, de <__do_global_dtors_aux+0x12>
      d8:	4804      	ldr	r0, [pc, #16]	; (ec <__do_global_dtors_aux+0x20>)
      da:	f3af 8000 	nop.w
      de:	2301      	movs	r3, #1
      e0:	7023      	strb	r3, [r4, #0]
      e2:	bd10      	pop	{r4, pc}
      e4:	10000180 	.word	0x10000180
      e8:	00000000 	.word	0x00000000
      ec:	0000889c 	.word	0x0000889c

000000f0 <frame_dummy>:
      f0:	4b08      	ldr	r3, [pc, #32]	; (114 <frame_dummy+0x24>)
      f2:	b510      	push	{r4, lr}
      f4:	b11b      	cbz	r3, fe <frame_dummy+0xe>
      f6:	4808      	ldr	r0, [pc, #32]	; (118 <frame_dummy+0x28>)
      f8:	4908      	ldr	r1, [pc, #32]	; (11c <frame_dummy+0x2c>)
      fa:	f3af 8000 	nop.w
      fe:	4808      	ldr	r0, [pc, #32]	; (120 <frame_dummy+0x30>)
     100:	6803      	ldr	r3, [r0, #0]
     102:	b903      	cbnz	r3, 106 <frame_dummy+0x16>
     104:	bd10      	pop	{r4, pc}
     106:	4b07      	ldr	r3, [pc, #28]	; (124 <frame_dummy+0x34>)
     108:	2b00      	cmp	r3, #0
     10a:	d0fb      	beq.n	104 <frame_dummy+0x14>
     10c:	e8bd 4010 	ldmia.w	sp!, {r4, lr}
     110:	4718      	bx	r3
     112:	bf00      	nop
     114:	00000000 	.word	0x00000000
     118:	0000889c 	.word	0x0000889c
     11c:	10000184 	.word	0x10000184
     120:	10000180 	.word	0x10000180
     124:	00000000 	.word	0x00000000

00000128 <_mainCRTStartup>:
     128:	4b15      	ldr	r3, [pc, #84]	; (180 <_mainCRTStartup+0x58>)
     12a:	2b00      	cmp	r3, #0
     12c:	bf08      	it	eq
     12e:	4b13      	ldreq	r3, [pc, #76]	; (17c <_mainCRTStartup+0x54>)
     130:	469d      	mov	sp, r3
     132:	f5a3 3a80 	sub.w	sl, r3, #65536	; 0x10000
     136:	2100      	movs	r1, #0
     138:	468b      	mov	fp, r1
     13a:	460f      	mov	r7, r1
     13c:	4813      	ldr	r0, [pc, #76]	; (18c <_mainCRTStartup+0x64>)
     13e:	4a14      	ldr	r2, [pc, #80]	; (190 <_mainCRTStartup+0x68>)
     140:	1a12      	subs	r2, r2, r0
     142:	f002 f96a 	bl	241a <memset>
     146:	4b0f      	ldr	r3, [pc, #60]	; (184 <_mainCRTStartup+0x5c>)
     148:	2b00      	cmp	r3, #0
     14a:	d000      	beq.n	14e <_mainCRTStartup+0x26>
     14c:	4798      	blx	r3
     14e:	4b0e      	ldr	r3, [pc, #56]	; (188 <_mainCRTStartup+0x60>)
     150:	2b00      	cmp	r3, #0
     152:	d000      	beq.n	156 <_mainCRTStartup+0x2e>
     154:	4798      	blx	r3
     156:	2000      	movs	r0, #0
     158:	2100      	movs	r1, #0
     15a:	0004      	movs	r4, r0
     15c:	000d      	movs	r5, r1
     15e:	480d      	ldr	r0, [pc, #52]	; (194 <_mainCRTStartup+0x6c>)
     160:	2800      	cmp	r0, #0
     162:	d002      	beq.n	16a <_mainCRTStartup+0x42>
     164:	480c      	ldr	r0, [pc, #48]	; (198 <_mainCRTStartup+0x70>)
     166:	f3af 8000 	nop.w
     16a:	f002 f8bb 	bl	22e4 <__libc_init_array>
     16e:	0020      	movs	r0, r4
     170:	0029      	movs	r1, r5
     172:	f000 fbf7 	bl	964 <__wrap_main>
     176:	f001 fd55 	bl	1c24 <exit>
     17a:	bf00      	nop
     17c:	00080000 	.word	0x00080000
     180:	10008000 	.word	0x10008000
	...
     18c:	10000180 	.word	0x10000180
     190:	10000488 	.word	0x10000488
	...

0000019c <_ZN4mbed10SerialBaseD1Ev>:
    static void _irq_handler(uint32_t id, SerialIrq irq_type);

protected:
    SerialBase(PinName tx, PinName rx);
    virtual ~SerialBase() {
    }
     19c:	4770      	bx	lr
     19e:	bf00      	nop

000001a0 <_ZN4mbed6SerialD1Ev>:
 * int main() {
 *     pc.printf("Hello World\n");
 * }
 * @endcode
 */
class Serial : public SerialBase, public Stream {
     1a0:	b510      	push	{r4, lr}
     1a2:	4604      	mov	r4, r0
     1a4:	4b06      	ldr	r3, [pc, #24]	; (1c0 <_ZN4mbed6SerialD1Ev+0x20>)
     1a6:	3048      	adds	r0, #72	; 0x48
     1a8:	f103 0118 	add.w	r1, r3, #24
     1ac:	f103 024c 	add.w	r2, r3, #76	; 0x4c
     1b0:	6023      	str	r3, [r4, #0]
     1b2:	64a1      	str	r1, [r4, #72]	; 0x48
     1b4:	64e2      	str	r2, [r4, #76]	; 0x4c
     1b6:	f001 f995 	bl	14e4 <_ZN4mbed6StreamD1Ev>
     1ba:	4620      	mov	r0, r4
     1bc:	bd10      	pop	{r4, pc}
     1be:	bf00      	nop
     1c0:	00008330 	.word	0x00008330

000001c4 <_ZThn72_N4mbed6SerialD1Ev>:
     1c4:	f1a0 0048 	sub.w	r0, r0, #72	; 0x48
     1c8:	f7ff bfea 	b.w	1a0 <_ZN4mbed6SerialD1Ev>

000001cc <_ZThn76_N4mbed6SerialD1Ev>:
     1cc:	f1a0 004c 	sub.w	r0, r0, #76	; 0x4c
     1d0:	f7ff bfe6 	b.w	1a0 <_ZN4mbed6SerialD1Ev>

000001d4 <_ZN4mbed10SerialBaseD0Ev>:

    static void _irq_handler(uint32_t id, SerialIrq irq_type);

protected:
    SerialBase(PinName tx, PinName rx);
    virtual ~SerialBase() {
     1d4:	b510      	push	{r4, lr}
     1d6:	4604      	mov	r4, r0
    }
     1d8:	f001 fd04 	bl	1be4 <_ZdlPv>
     1dc:	4620      	mov	r0, r4
     1de:	bd10      	pop	{r4, pc}

000001e0 <_Z9recv_wordv>:

	async_port.putc(switch_word); //transmit switch_word
}

void recv_word()
{
     1e0:	b5f8      	push	{r3, r4, r5, r6, r7, lr}
static inline void gpio_write(gpio_t *obj, int value) {
    MBED_ASSERT(obj->pin != (PinName)NC);
    if (value)
        *obj->reg_set = obj->mask;
    else
        *obj->reg_clr = obj->mask;
     1e2:	4e1f      	ldr	r6, [pc, #124]	; (260 <_Z9recv_wordv+0x80>)
     1e4:	4d1f      	ldr	r5, [pc, #124]	; (264 <_Z9recv_wordv+0x84>)
     1e6:	6932      	ldr	r2, [r6, #16]
     1e8:	6871      	ldr	r1, [r6, #4]
     1ea:	692b      	ldr	r3, [r5, #16]
     1ec:	6011      	str	r1, [r2, #0]
     1ee:	686a      	ldr	r2, [r5, #4]
     1f0:	4c1d      	ldr	r4, [pc, #116]	; (268 <_Z9recv_wordv+0x88>)
     1f2:	601a      	str	r2, [r3, #0]
     1f4:	6862      	ldr	r2, [r4, #4]
     1f6:	6923      	ldr	r3, [r4, #16]
     1f8:	4f1c      	ldr	r7, [pc, #112]	; (26c <_Z9recv_wordv+0x8c>)
     1fa:	601a      	str	r2, [r3, #0]
     1fc:	687a      	ldr	r2, [r7, #4]
     1fe:	693b      	ldr	r3, [r7, #16]
	//set leds according to incoming word from slave
	led1=0; //preset both to 0
	led2=0;
	led3=0;
	led4=0;
  printf("Waiting to recv command\r\n");
     200:	481b      	ldr	r0, [pc, #108]	; (270 <_Z9recv_wordv+0x90>)
     202:	601a      	str	r2, [r3, #0]
     204:	f003 fcae 	bl	3b64 <puts>
  while(1)
  {
	if (async_port.readable()==1) //is there a character to be read?
     208:	481a      	ldr	r0, [pc, #104]	; (274 <_Z9recv_wordv+0x94>)
     20a:	f001 f921 	bl	1450 <_ZN4mbed10SerialBase8readableEv>
     20e:	2801      	cmp	r0, #1
     210:	d1fa      	bne.n	208 <_Z9recv_wordv+0x28>
	{

		recd_val=async_port.getc(); //if yes, then read it
     212:	4819      	ldr	r0, [pc, #100]	; (278 <_Z9recv_wordv+0x98>)
     214:	f001 f9b8 	bl	1588 <_ZN4mbed6Stream4getcEv>

	}
	}


	recd_val=recd_val&0x03; //AND out unwanted bits
     218:	4b18      	ldr	r3, [pc, #96]	; (27c <_Z9recv_wordv+0x9c>)
     21a:	f000 0003 	and.w	r0, r0, #3

	switch(recd_val)
     21e:	2802      	cmp	r0, #2

	}
	}


	recd_val=recd_val&0x03; //AND out unwanted bits
     220:	7018      	strb	r0, [r3, #0]

	switch(recd_val)
     222:	d018      	beq.n	256 <_Z9recv_wordv+0x76>
     224:	2803      	cmp	r0, #3
     226:	d012      	beq.n	24e <_Z9recv_wordv+0x6e>
     228:	2801      	cmp	r0, #1
     22a:	d00c      	beq.n	246 <_Z9recv_wordv+0x66>
} gpio_t;

static inline void gpio_write(gpio_t *obj, int value) {
    MBED_ASSERT(obj->pin != (PinName)NC);
    if (value)
        *obj->reg_set = obj->mask;
     22c:	68f2      	ldr	r2, [r6, #12]
     22e:	6871      	ldr	r1, [r6, #4]
     230:	68eb      	ldr	r3, [r5, #12]
     232:	6011      	str	r1, [r2, #0]
     234:	6869      	ldr	r1, [r5, #4]
     236:	68e2      	ldr	r2, [r4, #12]
     238:	6019      	str	r1, [r3, #0]
     23a:	6861      	ldr	r1, [r4, #4]
     23c:	68fb      	ldr	r3, [r7, #12]
     23e:	6011      	str	r1, [r2, #0]
     240:	687a      	ldr	r2, [r7, #4]
     242:	601a      	str	r2, [r3, #0]
     244:	bdf8      	pop	{r3, r4, r5, r6, r7, pc}
     246:	68f3      	ldr	r3, [r6, #12]
     248:	6872      	ldr	r2, [r6, #4]
     24a:	601a      	str	r2, [r3, #0]
     24c:	bdf8      	pop	{r3, r4, r5, r6, r7, pc}
     24e:	68e3      	ldr	r3, [r4, #12]
     250:	6862      	ldr	r2, [r4, #4]
     252:	601a      	str	r2, [r3, #0]
     254:	bdf8      	pop	{r3, r4, r5, r6, r7, pc}
     256:	68eb      	ldr	r3, [r5, #12]
     258:	686a      	ldr	r2, [r5, #4]
     25a:	601a      	str	r2, [r3, #0]
     25c:	bdf8      	pop	{r3, r4, r5, r6, r7, pc}
     25e:	bf00      	nop
     260:	1000019c 	.word	0x1000019c
     264:	100001b4 	.word	0x100001b4
     268:	100001cc 	.word	0x100001cc
     26c:	100001e4 	.word	0x100001e4
     270:	00007eb8 	.word	0x00007eb8
     274:	10000200 	.word	0x10000200
     278:	10000248 	.word	0x10000248
     27c:	10000260 	.word	0x10000260

00000280 <main>:
	}


}
int main()
{
     280:	b580      	push	{r7, lr}

	async_port.baud(9600); //set baud rate to 9600 (ie default)
     282:	f44f 5116 	mov.w	r1, #9600	; 0x2580
     286:	4832      	ldr	r0, [pc, #200]	; (350 <main+0xd0>)
     288:	f001 f8da 	bl	1440 <_ZN4mbed10SerialBase4baudEi>


	//accept default format, of 8 bits, no parity

	printf("Enter mode: 0 - tx, 1 - rx\r\n");
     28c:	4831      	ldr	r0, [pc, #196]	; (354 <main+0xd4>)
     28e:	f003 fc69 	bl	3b64 <puts>
	scanf("%u", &mode);
     292:	4831      	ldr	r0, [pc, #196]	; (358 <main+0xd8>)
     294:	4931      	ldr	r1, [pc, #196]	; (35c <main+0xdc>)
     296:	f003 fd61 	bl	3d5c <iscanf>
     29a:	4f30      	ldr	r7, [pc, #192]	; (35c <main+0xdc>)
     29c:	4e30      	ldr	r6, [pc, #192]	; (360 <main+0xe0>)
     29e:	4d31      	ldr	r5, [pc, #196]	; (364 <main+0xe4>)
     2a0:	4c31      	ldr	r4, [pc, #196]	; (368 <main+0xe8>)

	while (1)
	{

		if(mode == 0)
     2a2:	783b      	ldrb	r3, [r7, #0]
     2a4:	bb23      	cbnz	r3, 2f0 <main+0x70>

void send_word()
{
	//Set up the word to be sent, by testing switch inputs

	printf("Enter led: 0 - All LEDs, 1 - LED1, 2 - LED2, 3 - LED3\r\n");
     2a6:	4831      	ldr	r0, [pc, #196]	; (36c <main+0xec>)
     2a8:	f003 fc5c 	bl	3b64 <puts>
	scanf("%u", &led);
     2ac:	482a      	ldr	r0, [pc, #168]	; (358 <main+0xd8>)
     2ae:	492c      	ldr	r1, [pc, #176]	; (360 <main+0xe0>)
     2b0:	f003 fd54 	bl	3d5c <iscanf>

	switch_word=0xa0; //set up a recognisable output pattern
	switch(led)
     2b4:	7833      	ldrb	r3, [r6, #0]
	//Set up the word to be sent, by testing switch inputs

	printf("Enter led: 0 - All LEDs, 1 - LED1, 2 - LED2, 3 - LED3\r\n");
	scanf("%u", &led);

	switch_word=0xa0; //set up a recognisable output pattern
     2b6:	22a0      	movs	r2, #160	; 0xa0
	switch(led)
     2b8:	2b02      	cmp	r3, #2
	//Set up the word to be sent, by testing switch inputs

	printf("Enter led: 0 - All LEDs, 1 - LED1, 2 - LED2, 3 - LED3\r\n");
	scanf("%u", &led);

	switch_word=0xa0; //set up a recognisable output pattern
     2ba:	702a      	strb	r2, [r5, #0]
     2bc:	4a29      	ldr	r2, [pc, #164]	; (364 <main+0xe4>)
	switch(led)
     2be:	d043      	beq.n	348 <main+0xc8>
     2c0:	2b03      	cmp	r3, #3
     2c2:	d03e      	beq.n	342 <main+0xc2>
     2c4:	2b01      	cmp	r3, #1
     2c6:	d101      	bne.n	2cc <main+0x4c>
	{
		case 0:
			//switch_word=switch_word|0x01;
			break;
		case 1:
			switch_word=switch_word|0x01;
     2c8:	23a1      	movs	r3, #161	; 0xa1
     2ca:	7013      	strb	r3, [r2, #0]
     2cc:	68e3      	ldr	r3, [r4, #12]
     2ce:	6862      	ldr	r2, [r4, #4]
			break;
	}

	strobe =1; //short strobe pulse

	wait_us(10);
     2d0:	200a      	movs	r0, #10
     2d2:	601a      	str	r2, [r3, #0]
     2d4:	f001 fa7c 	bl	17d0 <wait_us>
    else
        *obj->reg_clr = obj->mask;
     2d8:	6923      	ldr	r3, [r4, #16]
     2da:	6862      	ldr	r2, [r4, #4]

	strobe=0;

	async_port.putc(switch_word); //transmit switch_word
     2dc:	4824      	ldr	r0, [pc, #144]	; (370 <main+0xf0>)
     2de:	601a      	str	r2, [r3, #0]
     2e0:	7829      	ldrb	r1, [r5, #0]
     2e2:	f001 f945 	bl	1570 <_ZN4mbed6Stream4putcEi>
	{

		if(mode == 0)
		{
			send_word();
			recv_word();
     2e6:	f7ff ff7b 	bl	1e0 <_Z9recv_wordv>
	scanf("%u", &mode);

	while (1)
	{

		if(mode == 0)
     2ea:	783b      	ldrb	r3, [r7, #0]
     2ec:	2b00      	cmp	r3, #0
     2ee:	d0da      	beq.n	2a6 <main+0x26>
			send_word();
			recv_word();
		}
		else
		{
			recv_word();
     2f0:	f7ff ff76 	bl	1e0 <_Z9recv_wordv>

void send_word()
{
	//Set up the word to be sent, by testing switch inputs

	printf("Enter led: 0 - All LEDs, 1 - LED1, 2 - LED2, 3 - LED3\r\n");
     2f4:	481d      	ldr	r0, [pc, #116]	; (36c <main+0xec>)
     2f6:	f003 fc35 	bl	3b64 <puts>
	scanf("%u", &led);
     2fa:	4817      	ldr	r0, [pc, #92]	; (358 <main+0xd8>)
     2fc:	4918      	ldr	r1, [pc, #96]	; (360 <main+0xe0>)
     2fe:	f003 fd2d 	bl	3d5c <iscanf>

	switch_word=0xa0; //set up a recognisable output pattern
	switch(led)
     302:	7833      	ldrb	r3, [r6, #0]
	//Set up the word to be sent, by testing switch inputs

	printf("Enter led: 0 - All LEDs, 1 - LED1, 2 - LED2, 3 - LED3\r\n");
	scanf("%u", &led);

	switch_word=0xa0; //set up a recognisable output pattern
     304:	22a0      	movs	r2, #160	; 0xa0
	switch(led)
     306:	2b02      	cmp	r3, #2
	//Set up the word to be sent, by testing switch inputs

	printf("Enter led: 0 - All LEDs, 1 - LED1, 2 - LED2, 3 - LED3\r\n");
	scanf("%u", &led);

	switch_word=0xa0; //set up a recognisable output pattern
     308:	702a      	strb	r2, [r5, #0]
     30a:	4a16      	ldr	r2, [pc, #88]	; (364 <main+0xe4>)
	switch(led)
     30c:	d016      	beq.n	33c <main+0xbc>
     30e:	2b03      	cmp	r3, #3
     310:	d011      	beq.n	336 <main+0xb6>
     312:	2b01      	cmp	r3, #1
     314:	d101      	bne.n	31a <main+0x9a>
	{
		case 0:
			//switch_word=switch_word|0x01;
			break;
		case 1:
			switch_word=switch_word|0x01;
     316:	23a1      	movs	r3, #161	; 0xa1
     318:	7013      	strb	r3, [r2, #0]
} gpio_t;

static inline void gpio_write(gpio_t *obj, int value) {
    MBED_ASSERT(obj->pin != (PinName)NC);
    if (value)
        *obj->reg_set = obj->mask;
     31a:	68e3      	ldr	r3, [r4, #12]
     31c:	6862      	ldr	r2, [r4, #4]
			break;
	}

	strobe =1; //short strobe pulse

	wait_us(10);
     31e:	200a      	movs	r0, #10
     320:	601a      	str	r2, [r3, #0]
     322:	f001 fa55 	bl	17d0 <wait_us>
    else
        *obj->reg_clr = obj->mask;
     326:	6923      	ldr	r3, [r4, #16]
     328:	6862      	ldr	r2, [r4, #4]

	strobe=0;

	async_port.putc(switch_word); //transmit switch_word
     32a:	4811      	ldr	r0, [pc, #68]	; (370 <main+0xf0>)
     32c:	601a      	str	r2, [r3, #0]
     32e:	7829      	ldrb	r1, [r5, #0]
     330:	f001 f91e 	bl	1570 <_ZN4mbed6Stream4putcEi>
     334:	e7b5      	b.n	2a2 <main+0x22>
			break;
		case 2:
			switch_word=switch_word|0x02;
			break;
		case 3:
			switch_word=switch_word|0x03;
     336:	23a3      	movs	r3, #163	; 0xa3
     338:	7013      	strb	r3, [r2, #0]
     33a:	e7ee      	b.n	31a <main+0x9a>
			break;
		case 1:
			switch_word=switch_word|0x01;
			break;
		case 2:
			switch_word=switch_word|0x02;
     33c:	23a2      	movs	r3, #162	; 0xa2
     33e:	7013      	strb	r3, [r2, #0]
     340:	e7eb      	b.n	31a <main+0x9a>
			break;
		case 3:
			switch_word=switch_word|0x03;
     342:	23a3      	movs	r3, #163	; 0xa3
     344:	7013      	strb	r3, [r2, #0]
     346:	e7c1      	b.n	2cc <main+0x4c>
			break;
		case 1:
			switch_word=switch_word|0x01;
			break;
		case 2:
			switch_word=switch_word|0x02;
     348:	23a2      	movs	r3, #162	; 0xa2
     34a:	7013      	strb	r3, [r2, #0]
     34c:	e7be      	b.n	2cc <main+0x4c>
     34e:	bf00      	nop
     350:	10000200 	.word	0x10000200
     354:	00007ed4 	.word	0x00007ed4
     358:	00007eb4 	.word	0x00007eb4
     35c:	10000261 	.word	0x10000261
     360:	100001fc 	.word	0x100001fc
     364:	100001fd 	.word	0x100001fd
     368:	10000264 	.word	0x10000264
     36c:	00007e7c 	.word	0x00007e7c
     370:	10000248 	.word	0x10000248

00000374 <_ZN4mbed6SerialD0Ev>:
     374:	b510      	push	{r4, lr}
     376:	4604      	mov	r4, r0
     378:	4b07      	ldr	r3, [pc, #28]	; (398 <_ZN4mbed6SerialD0Ev+0x24>)
     37a:	3048      	adds	r0, #72	; 0x48
     37c:	f103 0118 	add.w	r1, r3, #24
     380:	f103 024c 	add.w	r2, r3, #76	; 0x4c
     384:	6023      	str	r3, [r4, #0]
     386:	64a1      	str	r1, [r4, #72]	; 0x48
     388:	64e2      	str	r2, [r4, #76]	; 0x4c
     38a:	f001 f8ab 	bl	14e4 <_ZN4mbed6StreamD1Ev>
     38e:	4620      	mov	r0, r4
     390:	f001 fc28 	bl	1be4 <_ZdlPv>
     394:	4620      	mov	r0, r4
     396:	bd10      	pop	{r4, pc}
     398:	00008330 	.word	0x00008330

0000039c <_ZThn72_N4mbed6SerialD0Ev>:
     39c:	f1a0 0048 	sub.w	r0, r0, #72	; 0x48
     3a0:	e7e8      	b.n	374 <_ZN4mbed6SerialD0Ev>
     3a2:	bf00      	nop

000003a4 <_ZThn76_N4mbed6SerialD0Ev>:
     3a4:	f1a0 004c 	sub.w	r0, r0, #76	; 0x4c
     3a8:	e7e4      	b.n	374 <_ZN4mbed6SerialD0Ev>
     3aa:	bf00      	nop

000003ac <_GLOBAL__sub_I_async_port>:
			recv_word();
			send_word();
		}

	}
}
     3ac:	b510      	push	{r4, lr}
/*Program Example 7.9: Sets the mbed up for async communication, and exchanges data with a
similar node, sending its own switch positions, and displaying those of the other.*/

#include "mbed.h"

Serial async_port(p9, p10); //set up TX and RX on pins 9 and 10
     3ae:	4c23      	ldr	r4, [pc, #140]	; (43c <_GLOBAL__sub_I_async_port+0x90>)
     3b0:	2300      	movs	r3, #0
     3b2:	4923      	ldr	r1, [pc, #140]	; (440 <_GLOBAL__sub_I_async_port+0x94>)
     3b4:	4620      	mov	r0, r4
     3b6:	4a23      	ldr	r2, [pc, #140]	; (444 <_GLOBAL__sub_I_async_port+0x98>)
     3b8:	f001 f8fc 	bl	15b4 <_ZN4mbed6SerialC1E7PinNameS1_PKc>
     3bc:	4a22      	ldr	r2, [pc, #136]	; (448 <_GLOBAL__sub_I_async_port+0x9c>)
     3be:	4620      	mov	r0, r4
     3c0:	4922      	ldr	r1, [pc, #136]	; (44c <_GLOBAL__sub_I_async_port+0xa0>)
     3c2:	f001 fc11 	bl	1be8 <__aeabi_atexit>
public:
    /** Create a DigitalOut connected to the specified pin
     *
     *  @param pin DigitalOut pin to connect to
     */
    DigitalOut(PinName pin) : gpio() {
     3c6:	4b22      	ldr	r3, [pc, #136]	; (450 <_GLOBAL__sub_I_async_port+0xa4>)
     3c8:	2400      	movs	r4, #0
        gpio_init_out(&gpio, pin);
     3ca:	4618      	mov	r0, r3
     3cc:	4921      	ldr	r1, [pc, #132]	; (454 <_GLOBAL__sub_I_async_port+0xa8>)
public:
    /** Create a DigitalOut connected to the specified pin
     *
     *  @param pin DigitalOut pin to connect to
     */
    DigitalOut(PinName pin) : gpio() {
     3ce:	601c      	str	r4, [r3, #0]
     3d0:	605c      	str	r4, [r3, #4]
     3d2:	609c      	str	r4, [r3, #8]
     3d4:	60dc      	str	r4, [r3, #12]
     3d6:	611c      	str	r4, [r3, #16]
     3d8:	615c      	str	r4, [r3, #20]
        gpio_init_out(&gpio, pin);
     3da:	f001 f93f 	bl	165c <gpio_init_out>
public:
    /** Create a DigitalOut connected to the specified pin
     *
     *  @param pin DigitalOut pin to connect to
     */
    DigitalOut(PinName pin) : gpio() {
     3de:	4b1e      	ldr	r3, [pc, #120]	; (458 <_GLOBAL__sub_I_async_port+0xac>)
        gpio_init_out(&gpio, pin);
     3e0:	491e      	ldr	r1, [pc, #120]	; (45c <_GLOBAL__sub_I_async_port+0xb0>)
     3e2:	4618      	mov	r0, r3
public:
    /** Create a DigitalOut connected to the specified pin
     *
     *  @param pin DigitalOut pin to connect to
     */
    DigitalOut(PinName pin) : gpio() {
     3e4:	601c      	str	r4, [r3, #0]
     3e6:	605c      	str	r4, [r3, #4]
     3e8:	609c      	str	r4, [r3, #8]
     3ea:	60dc      	str	r4, [r3, #12]
     3ec:	611c      	str	r4, [r3, #16]
     3ee:	615c      	str	r4, [r3, #20]
        gpio_init_out(&gpio, pin);
     3f0:	f001 f934 	bl	165c <gpio_init_out>
public:
    /** Create a DigitalOut connected to the specified pin
     *
     *  @param pin DigitalOut pin to connect to
     */
    DigitalOut(PinName pin) : gpio() {
     3f4:	4b1a      	ldr	r3, [pc, #104]	; (460 <_GLOBAL__sub_I_async_port+0xb4>)
        gpio_init_out(&gpio, pin);
     3f6:	491b      	ldr	r1, [pc, #108]	; (464 <_GLOBAL__sub_I_async_port+0xb8>)
     3f8:	4618      	mov	r0, r3
public:
    /** Create a DigitalOut connected to the specified pin
     *
     *  @param pin DigitalOut pin to connect to
     */
    DigitalOut(PinName pin) : gpio() {
     3fa:	601c      	str	r4, [r3, #0]
     3fc:	605c      	str	r4, [r3, #4]
     3fe:	609c      	str	r4, [r3, #8]
     400:	60dc      	str	r4, [r3, #12]
     402:	611c      	str	r4, [r3, #16]
     404:	615c      	str	r4, [r3, #20]
        gpio_init_out(&gpio, pin);
     406:	f001 f929 	bl	165c <gpio_init_out>
public:
    /** Create a DigitalOut connected to the specified pin
     *
     *  @param pin DigitalOut pin to connect to
     */
    DigitalOut(PinName pin) : gpio() {
     40a:	4b17      	ldr	r3, [pc, #92]	; (468 <_GLOBAL__sub_I_async_port+0xbc>)
        gpio_init_out(&gpio, pin);
     40c:	4917      	ldr	r1, [pc, #92]	; (46c <_GLOBAL__sub_I_async_port+0xc0>)
     40e:	4618      	mov	r0, r3
public:
    /** Create a DigitalOut connected to the specified pin
     *
     *  @param pin DigitalOut pin to connect to
     */
    DigitalOut(PinName pin) : gpio() {
     410:	601c      	str	r4, [r3, #0]
     412:	605c      	str	r4, [r3, #4]
     414:	609c      	str	r4, [r3, #8]
     416:	60dc      	str	r4, [r3, #12]
     418:	611c      	str	r4, [r3, #16]
     41a:	615c      	str	r4, [r3, #20]
        gpio_init_out(&gpio, pin);
     41c:	f001 f91e 	bl	165c <gpio_init_out>
public:
    /** Create a DigitalOut connected to the specified pin
     *
     *  @param pin DigitalOut pin to connect to
     */
    DigitalOut(PinName pin) : gpio() {
     420:	4b13      	ldr	r3, [pc, #76]	; (470 <_GLOBAL__sub_I_async_port+0xc4>)
        gpio_init_out(&gpio, pin);
     422:	4914      	ldr	r1, [pc, #80]	; (474 <_GLOBAL__sub_I_async_port+0xc8>)
public:
    /** Create a DigitalOut connected to the specified pin
     *
     *  @param pin DigitalOut pin to connect to
     */
    DigitalOut(PinName pin) : gpio() {
     424:	601c      	str	r4, [r3, #0]
     426:	605c      	str	r4, [r3, #4]
     428:	609c      	str	r4, [r3, #8]
     42a:	60dc      	str	r4, [r3, #12]
     42c:	611c      	str	r4, [r3, #16]
     42e:	615c      	str	r4, [r3, #20]
        gpio_init_out(&gpio, pin);
     430:	4618      	mov	r0, r3
			recv_word();
			send_word();
		}

	}
}
     432:	e8bd 4010 	ldmia.w	sp!, {r4, lr}
     436:	f001 b911 	b.w	165c <gpio_init_out>
     43a:	bf00      	nop
     43c:	10000200 	.word	0x10000200
     440:	2009c000 	.word	0x2009c000
     444:	2009c001 	.word	0x2009c001
     448:	100000c8 	.word	0x100000c8
     44c:	000001a1 	.word	0x000001a1
     450:	1000019c 	.word	0x1000019c
     454:	2009c032 	.word	0x2009c032
     458:	100001b4 	.word	0x100001b4
     45c:	2009c034 	.word	0x2009c034
     460:	100001cc 	.word	0x100001cc
     464:	2009c035 	.word	0x2009c035
     468:	100001e4 	.word	0x100001e4
     46c:	2009c037 	.word	0x2009c037
     470:	10000264 	.word	0x10000264
     474:	2009c007 	.word	0x2009c007

00000478 <NVIC_SetVector>:
     478:	4a0c      	ldr	r2, [pc, #48]	; (4ac <NVIC_SetVector+0x34>)
     47a:	b430      	push	{r4, r5}
     47c:	6893      	ldr	r3, [r2, #8]
     47e:	6894      	ldr	r4, [r2, #8]
     480:	461a      	mov	r2, r3
     482:	f1b4 5f80 	cmp.w	r4, #268435456	; 0x10000000
     486:	d20c      	bcs.n	4a2 <NVIC_SetVector+0x2a>
     488:	4a09      	ldr	r2, [pc, #36]	; (4b0 <NVIC_SetVector+0x38>)
     48a:	f103 05c4 	add.w	r5, r3, #196	; 0xc4
     48e:	f853 4b04 	ldr.w	r4, [r3], #4
     492:	42ab      	cmp	r3, r5
     494:	f842 4f04 	str.w	r4, [r2, #4]!
     498:	d1f9      	bne.n	48e <NVIC_SetVector+0x16>
     49a:	4b04      	ldr	r3, [pc, #16]	; (4ac <NVIC_SetVector+0x34>)
     49c:	f04f 5280 	mov.w	r2, #268435456	; 0x10000000
     4a0:	609a      	str	r2, [r3, #8]
     4a2:	3010      	adds	r0, #16
     4a4:	f842 1020 	str.w	r1, [r2, r0, lsl #2]
     4a8:	bc30      	pop	{r4, r5}
     4aa:	4770      	bx	lr
     4ac:	e000ed00 	.word	0xe000ed00
     4b0:	0ffffffc 	.word	0x0ffffffc

000004b4 <SystemInit>:
     4b4:	4a2b      	ldr	r2, [pc, #172]	; (564 <SystemInit+0xb0>)
     4b6:	2320      	movs	r3, #32
     4b8:	b470      	push	{r4, r5, r6}
     4ba:	f8c2 31a0 	str.w	r3, [r2, #416]	; 0x1a0
     4be:	f8d2 31a0 	ldr.w	r3, [r2, #416]	; 0x1a0
     4c2:	0698      	lsls	r0, r3, #26
     4c4:	d445      	bmi.n	552 <SystemInit+0x9e>
     4c6:	4b27      	ldr	r3, [pc, #156]	; (564 <SystemInit+0xb0>)
     4c8:	2102      	movs	r1, #2
     4ca:	2500      	movs	r5, #0
     4cc:	2401      	movs	r4, #1
     4ce:	20aa      	movs	r0, #170	; 0xaa
     4d0:	2255      	movs	r2, #85	; 0x55
     4d2:	260b      	movs	r6, #11
     4d4:	f8c3 1104 	str.w	r1, [r3, #260]	; 0x104
     4d8:	f8c3 51a8 	str.w	r5, [r3, #424]	; 0x1a8
     4dc:	4619      	mov	r1, r3
     4de:	f8c3 51ac 	str.w	r5, [r3, #428]	; 0x1ac
     4e2:	f8c3 410c 	str.w	r4, [r3, #268]	; 0x10c
     4e6:	f8c3 6084 	str.w	r6, [r3, #132]	; 0x84
     4ea:	f8c3 008c 	str.w	r0, [r3, #140]	; 0x8c
     4ee:	f8c3 208c 	str.w	r2, [r3, #140]	; 0x8c
     4f2:	f8c3 4080 	str.w	r4, [r3, #128]	; 0x80
     4f6:	f8c3 008c 	str.w	r0, [r3, #140]	; 0x8c
     4fa:	f8c3 208c 	str.w	r2, [r3, #140]	; 0x8c
     4fe:	f8d1 3088 	ldr.w	r3, [r1, #136]	; 0x88
     502:	4a18      	ldr	r2, [pc, #96]	; (564 <SystemInit+0xb0>)
     504:	015b      	lsls	r3, r3, #5
     506:	d5fa      	bpl.n	4fe <SystemInit+0x4a>
     508:	2103      	movs	r1, #3
     50a:	20aa      	movs	r0, #170	; 0xaa
     50c:	2355      	movs	r3, #85	; 0x55
     50e:	f8c2 1080 	str.w	r1, [r2, #128]	; 0x80
     512:	f8c2 008c 	str.w	r0, [r2, #140]	; 0x8c
     516:	4611      	mov	r1, r2
     518:	f8c2 308c 	str.w	r3, [r2, #140]	; 0x8c
     51c:	f8d1 3088 	ldr.w	r3, [r1, #136]	; 0x88
     520:	4a10      	ldr	r2, [pc, #64]	; (564 <SystemInit+0xb0>)
     522:	f013 7f40 	tst.w	r3, #50331648	; 0x3000000
     526:	d0f9      	beq.n	51c <SystemInit+0x68>
     528:	490f      	ldr	r1, [pc, #60]	; (568 <SystemInit+0xb4>)
     52a:	2300      	movs	r3, #0
     52c:	2005      	movs	r0, #5
     52e:	f8c2 0108 	str.w	r0, [r2, #264]	; 0x108
     532:	f8c2 10c4 	str.w	r1, [r2, #196]	; 0xc4
     536:	f8c2 31c8 	str.w	r3, [r2, #456]	; 0x1c8
     53a:	6813      	ldr	r3, [r2, #0]
     53c:	bc70      	pop	{r4, r5, r6}
     53e:	f423 4370 	bic.w	r3, r3, #61440	; 0xf000
     542:	f023 033a 	bic.w	r3, r3, #58	; 0x3a
     546:	f443 5340 	orr.w	r3, r3, #12288	; 0x3000
     54a:	f043 033a 	orr.w	r3, r3, #58	; 0x3a
     54e:	6013      	str	r3, [r2, #0]
     550:	4770      	bx	lr
     552:	f8d2 31a0 	ldr.w	r3, [r2, #416]	; 0x1a0
     556:	0659      	lsls	r1, r3, #25
     558:	d4b5      	bmi.n	4c6 <SystemInit+0x12>
     55a:	f8d2 31a0 	ldr.w	r3, [r2, #416]	; 0x1a0
     55e:	0659      	lsls	r1, r3, #25
     560:	d5f7      	bpl.n	552 <SystemInit+0x9e>
     562:	e7b0      	b.n	4c6 <SystemInit+0x12>
     564:	400fc000 	.word	0x400fc000
     568:	042887de 	.word	0x042887de

0000056c <mbed_die>:
     56c:	b500      	push	{lr}
     56e:	b099      	sub	sp, #100	; 0x64
     570:	b672      	cpsid	i
     572:	493b      	ldr	r1, [pc, #236]	; (660 <mbed_die+0xf4>)
     574:	4668      	mov	r0, sp
     576:	f001 f871 	bl	165c <gpio_init_out>
     57a:	a806      	add	r0, sp, #24
     57c:	4939      	ldr	r1, [pc, #228]	; (664 <mbed_die+0xf8>)
     57e:	f001 f86d 	bl	165c <gpio_init_out>
     582:	a80c      	add	r0, sp, #48	; 0x30
     584:	4938      	ldr	r1, [pc, #224]	; (668 <mbed_die+0xfc>)
     586:	f001 f869 	bl	165c <gpio_init_out>
     58a:	a812      	add	r0, sp, #72	; 0x48
     58c:	4937      	ldr	r1, [pc, #220]	; (66c <mbed_die+0x100>)
     58e:	f001 f865 	bl	165c <gpio_init_out>
     592:	e032      	b.n	5fa <mbed_die+0x8e>
     594:	9906      	ldr	r1, [sp, #24]
     596:	9b03      	ldr	r3, [sp, #12]
     598:	9a01      	ldr	r2, [sp, #4]
     59a:	3101      	adds	r1, #1
     59c:	601a      	str	r2, [r3, #0]
     59e:	d059      	beq.n	654 <mbed_die+0xe8>
     5a0:	990c      	ldr	r1, [sp, #48]	; 0x30
     5a2:	9b0a      	ldr	r3, [sp, #40]	; 0x28
     5a4:	9a07      	ldr	r2, [sp, #28]
     5a6:	3101      	adds	r1, #1
     5a8:	601a      	str	r2, [r3, #0]
     5aa:	d04d      	beq.n	648 <mbed_die+0xdc>
     5ac:	9912      	ldr	r1, [sp, #72]	; 0x48
     5ae:	9b10      	ldr	r3, [sp, #64]	; 0x40
     5b0:	9a0d      	ldr	r2, [sp, #52]	; 0x34
     5b2:	3101      	adds	r1, #1
     5b4:	601a      	str	r2, [r3, #0]
     5b6:	d041      	beq.n	63c <mbed_die+0xd0>
     5b8:	9b15      	ldr	r3, [sp, #84]	; 0x54
     5ba:	9a13      	ldr	r2, [sp, #76]	; 0x4c
     5bc:	2096      	movs	r0, #150	; 0x96
     5be:	601a      	str	r2, [r3, #0]
     5c0:	f001 f912 	bl	17e8 <wait_ms>
     5c4:	9b00      	ldr	r3, [sp, #0]
     5c6:	3301      	adds	r3, #1
     5c8:	d032      	beq.n	630 <mbed_die+0xc4>
     5ca:	9906      	ldr	r1, [sp, #24]
     5cc:	9b04      	ldr	r3, [sp, #16]
     5ce:	9a01      	ldr	r2, [sp, #4]
     5d0:	3101      	adds	r1, #1
     5d2:	601a      	str	r2, [r3, #0]
     5d4:	d026      	beq.n	624 <mbed_die+0xb8>
     5d6:	990c      	ldr	r1, [sp, #48]	; 0x30
     5d8:	9b09      	ldr	r3, [sp, #36]	; 0x24
     5da:	9a07      	ldr	r2, [sp, #28]
     5dc:	3101      	adds	r1, #1
     5de:	601a      	str	r2, [r3, #0]
     5e0:	d01a      	beq.n	618 <mbed_die+0xac>
     5e2:	9912      	ldr	r1, [sp, #72]	; 0x48
     5e4:	9b0f      	ldr	r3, [sp, #60]	; 0x3c
     5e6:	9a0d      	ldr	r2, [sp, #52]	; 0x34
     5e8:	3101      	adds	r1, #1
     5ea:	601a      	str	r2, [r3, #0]
     5ec:	d00e      	beq.n	60c <mbed_die+0xa0>
     5ee:	9b16      	ldr	r3, [sp, #88]	; 0x58
     5f0:	9a13      	ldr	r2, [sp, #76]	; 0x4c
     5f2:	2096      	movs	r0, #150	; 0x96
     5f4:	601a      	str	r2, [r3, #0]
     5f6:	f001 f8f7 	bl	17e8 <wait_ms>
     5fa:	9b00      	ldr	r3, [sp, #0]
     5fc:	3301      	adds	r3, #1
     5fe:	d1c9      	bne.n	594 <mbed_die+0x28>
     600:	481b      	ldr	r0, [pc, #108]	; (670 <mbed_die+0x104>)
     602:	491c      	ldr	r1, [pc, #112]	; (674 <mbed_die+0x108>)
     604:	2224      	movs	r2, #36	; 0x24
     606:	f000 ffed 	bl	15e4 <mbed_assert_internal>
     60a:	e7c3      	b.n	594 <mbed_die+0x28>
     60c:	4818      	ldr	r0, [pc, #96]	; (670 <mbed_die+0x104>)
     60e:	4919      	ldr	r1, [pc, #100]	; (674 <mbed_die+0x108>)
     610:	2224      	movs	r2, #36	; 0x24
     612:	f000 ffe7 	bl	15e4 <mbed_assert_internal>
     616:	e7ea      	b.n	5ee <mbed_die+0x82>
     618:	4815      	ldr	r0, [pc, #84]	; (670 <mbed_die+0x104>)
     61a:	4916      	ldr	r1, [pc, #88]	; (674 <mbed_die+0x108>)
     61c:	2224      	movs	r2, #36	; 0x24
     61e:	f000 ffe1 	bl	15e4 <mbed_assert_internal>
     622:	e7de      	b.n	5e2 <mbed_die+0x76>
     624:	4812      	ldr	r0, [pc, #72]	; (670 <mbed_die+0x104>)
     626:	4913      	ldr	r1, [pc, #76]	; (674 <mbed_die+0x108>)
     628:	2224      	movs	r2, #36	; 0x24
     62a:	f000 ffdb 	bl	15e4 <mbed_assert_internal>
     62e:	e7d2      	b.n	5d6 <mbed_die+0x6a>
     630:	480f      	ldr	r0, [pc, #60]	; (670 <mbed_die+0x104>)
     632:	4910      	ldr	r1, [pc, #64]	; (674 <mbed_die+0x108>)
     634:	2224      	movs	r2, #36	; 0x24
     636:	f000 ffd5 	bl	15e4 <mbed_assert_internal>
     63a:	e7c6      	b.n	5ca <mbed_die+0x5e>
     63c:	480c      	ldr	r0, [pc, #48]	; (670 <mbed_die+0x104>)
     63e:	490d      	ldr	r1, [pc, #52]	; (674 <mbed_die+0x108>)
     640:	2224      	movs	r2, #36	; 0x24
     642:	f000 ffcf 	bl	15e4 <mbed_assert_internal>
     646:	e7b7      	b.n	5b8 <mbed_die+0x4c>
     648:	4809      	ldr	r0, [pc, #36]	; (670 <mbed_die+0x104>)
     64a:	490a      	ldr	r1, [pc, #40]	; (674 <mbed_die+0x108>)
     64c:	2224      	movs	r2, #36	; 0x24
     64e:	f000 ffc9 	bl	15e4 <mbed_assert_internal>
     652:	e7ab      	b.n	5ac <mbed_die+0x40>
     654:	4806      	ldr	r0, [pc, #24]	; (670 <mbed_die+0x104>)
     656:	4907      	ldr	r1, [pc, #28]	; (674 <mbed_die+0x108>)
     658:	2224      	movs	r2, #36	; 0x24
     65a:	f000 ffc3 	bl	15e4 <mbed_assert_internal>
     65e:	e79f      	b.n	5a0 <mbed_die+0x34>
     660:	2009c032 	.word	0x2009c032
     664:	2009c034 	.word	0x2009c034
     668:	2009c035 	.word	0x2009c035
     66c:	2009c037 	.word	0x2009c037
     670:	00007ef0 	.word	0x00007ef0
     674:	00007f08 	.word	0x00007f08

00000678 <_ZN4mbed10FileHandle4flenEv>:
     678:	6803      	ldr	r3, [r0, #0]
     67a:	b570      	push	{r4, r5, r6, lr}
     67c:	691b      	ldr	r3, [r3, #16]
     67e:	2100      	movs	r1, #0
     680:	2201      	movs	r2, #1
     682:	4604      	mov	r4, r0
     684:	4798      	blx	r3
     686:	1c43      	adds	r3, r0, #1
     688:	4605      	mov	r5, r0
     68a:	d00e      	beq.n	6aa <_ZN4mbed10FileHandle4flenEv+0x32>
     68c:	6823      	ldr	r3, [r4, #0]
     68e:	4620      	mov	r0, r4
     690:	691b      	ldr	r3, [r3, #16]
     692:	2100      	movs	r1, #0
     694:	2202      	movs	r2, #2
     696:	4798      	blx	r3
     698:	6823      	ldr	r3, [r4, #0]
     69a:	4606      	mov	r6, r0
     69c:	4629      	mov	r1, r5
     69e:	691b      	ldr	r3, [r3, #16]
     6a0:	4620      	mov	r0, r4
     6a2:	2200      	movs	r2, #0
     6a4:	4798      	blx	r3
     6a6:	4630      	mov	r0, r6
     6a8:	bd70      	pop	{r4, r5, r6, pc}
     6aa:	bd70      	pop	{r4, r5, r6, pc}

000006ac <_ZN4mbed10FileHandleD1Ev>:
     6ac:	4a08      	ldr	r2, [pc, #32]	; (6d0 <_ZN4mbed10FileHandleD1Ev+0x24>)
     6ae:	4b09      	ldr	r3, [pc, #36]	; (6d4 <_ZN4mbed10FileHandleD1Ev+0x28>)
     6b0:	b410      	push	{r4}
     6b2:	6002      	str	r2, [r0, #0]
     6b4:	f503 7180 	add.w	r1, r3, #256	; 0x100
     6b8:	2400      	movs	r4, #0
     6ba:	f853 2b04 	ldr.w	r2, [r3], #4
     6be:	4282      	cmp	r2, r0
     6c0:	bf08      	it	eq
     6c2:	f843 4c04 	streq.w	r4, [r3, #-4]
     6c6:	428b      	cmp	r3, r1
     6c8:	d1f7      	bne.n	6ba <_ZN4mbed10FileHandleD1Ev+0xe>
     6ca:	f85d 4b04 	ldr.w	r4, [sp], #4
     6ce:	4770      	bx	lr
     6d0:	00007f90 	.word	0x00007f90
     6d4:	1000027c 	.word	0x1000027c

000006d8 <_ZN4mbed10FileHandleD0Ev>:
     6d8:	4a0a      	ldr	r2, [pc, #40]	; (704 <_ZN4mbed10FileHandleD0Ev+0x2c>)
     6da:	4b0b      	ldr	r3, [pc, #44]	; (708 <_ZN4mbed10FileHandleD0Ev+0x30>)
     6dc:	b510      	push	{r4, lr}
     6de:	f503 7180 	add.w	r1, r3, #256	; 0x100
     6e2:	4604      	mov	r4, r0
     6e4:	6002      	str	r2, [r0, #0]
     6e6:	2000      	movs	r0, #0
     6e8:	f853 2b04 	ldr.w	r2, [r3], #4
     6ec:	4294      	cmp	r4, r2
     6ee:	bf08      	it	eq
     6f0:	f843 0c04 	streq.w	r0, [r3, #-4]
     6f4:	428b      	cmp	r3, r1
     6f6:	d1f7      	bne.n	6e8 <_ZN4mbed10FileHandleD0Ev+0x10>
     6f8:	4620      	mov	r0, r4
     6fa:	f001 fa73 	bl	1be4 <_ZdlPv>
     6fe:	4620      	mov	r0, r4
     700:	bd10      	pop	{r4, pc}
     702:	bf00      	nop
     704:	00007f90 	.word	0x00007f90
     708:	1000027c 	.word	0x1000027c

0000070c <_ZL11init_serialv.part.0>:
     70c:	4802      	ldr	r0, [pc, #8]	; (718 <_ZL11init_serialv.part.0+0xc>)
     70e:	4903      	ldr	r1, [pc, #12]	; (71c <_ZL11init_serialv.part.0+0x10>)
     710:	4a03      	ldr	r2, [pc, #12]	; (720 <_ZL11init_serialv.part.0+0x14>)
     712:	f000 bd31 	b.w	1178 <serial_init>
     716:	bf00      	nop
     718:	1000047c 	.word	0x1000047c
     71c:	2009c002 	.word	0x2009c002
     720:	2009c003 	.word	0x2009c003

00000724 <_open>:
     724:	b5f0      	push	{r4, r5, r6, r7, lr}
     726:	460e      	mov	r6, r1
     728:	b085      	sub	sp, #20
     72a:	4935      	ldr	r1, [pc, #212]	; (800 <Heap_Size>)
     72c:	4605      	mov	r5, r0
     72e:	f003 fc86 	bl	403e <strcmp>
     732:	b920      	cbnz	r0, 73e <_open+0x1a>
     734:	4b33      	ldr	r3, [pc, #204]	; (804 <Heap_Size+0x4>)
     736:	681b      	ldr	r3, [r3, #0]
     738:	b163      	cbz	r3, 754 <_open+0x30>
     73a:	b005      	add	sp, #20
     73c:	bdf0      	pop	{r4, r5, r6, r7, pc}
     73e:	4628      	mov	r0, r5
     740:	4931      	ldr	r1, [pc, #196]	; (808 <Heap_Size+0x8>)
     742:	f003 fc7c 	bl	403e <strcmp>
     746:	b978      	cbnz	r0, 768 <_open+0x44>
     748:	4b2e      	ldr	r3, [pc, #184]	; (804 <Heap_Size+0x4>)
     74a:	681b      	ldr	r3, [r3, #0]
     74c:	b143      	cbz	r3, 760 <_open+0x3c>
     74e:	2001      	movs	r0, #1
     750:	b005      	add	sp, #20
     752:	bdf0      	pop	{r4, r5, r6, r7, pc}
     754:	9001      	str	r0, [sp, #4]
     756:	f7ff ffd9 	bl	70c <_ZL11init_serialv.part.0>
     75a:	9801      	ldr	r0, [sp, #4]
     75c:	b005      	add	sp, #20
     75e:	bdf0      	pop	{r4, r5, r6, r7, pc}
     760:	f7ff ffd4 	bl	70c <_ZL11init_serialv.part.0>
     764:	2001      	movs	r0, #1
     766:	e7e8      	b.n	73a <_open+0x16>
     768:	4628      	mov	r0, r5
     76a:	4928      	ldr	r1, [pc, #160]	; (80c <Heap_Size+0xc>)
     76c:	f003 fc67 	bl	403e <strcmp>
     770:	b310      	cbz	r0, 7b8 <_open+0x94>
     772:	4b27      	ldr	r3, [pc, #156]	; (810 <Heap_Size+0x10>)
     774:	2400      	movs	r4, #0
     776:	e002      	b.n	77e <_open+0x5a>
     778:	3401      	adds	r4, #1
     77a:	2c40      	cmp	r4, #64	; 0x40
     77c:	d021      	beq.n	7c2 <_open+0x9e>
     77e:	f853 0f04 	ldr.w	r0, [r3, #4]!
     782:	2800      	cmp	r0, #0
     784:	d1f8      	bne.n	778 <_open+0x54>
     786:	782b      	ldrb	r3, [r5, #0]
     788:	2b3a      	cmp	r3, #58	; 0x3a
     78a:	d032      	beq.n	7f2 <_open+0xce>
     78c:	4629      	mov	r1, r5
     78e:	a802      	add	r0, sp, #8
     790:	f000 fdd0 	bl	1334 <_ZN4mbed8FilePathC1EPKc>
     794:	a802      	add	r0, sp, #8
     796:	f000 fe1f 	bl	13d8 <_ZN4mbed8FilePath6existsEv>
     79a:	b190      	cbz	r0, 7c2 <_open+0x9e>
     79c:	a802      	add	r0, sp, #8
     79e:	f000 fe03 	bl	13a8 <_ZN4mbed8FilePath6isFileEv>
     7a2:	b188      	cbz	r0, 7c8 <_open+0xa4>
     7a4:	a802      	add	r0, sp, #8
     7a6:	f000 fe09 	bl	13bc <_ZN4mbed8FilePath4fileEv>
     7aa:	4603      	mov	r3, r0
     7ac:	b14b      	cbz	r3, 7c2 <_open+0x9e>
     7ae:	4a19      	ldr	r2, [pc, #100]	; (814 <Heap_Size+0x14>)
     7b0:	1ce0      	adds	r0, r4, #3
     7b2:	f842 3024 	str.w	r3, [r2, r4, lsl #2]
     7b6:	e7c0      	b.n	73a <_open+0x16>
     7b8:	4b12      	ldr	r3, [pc, #72]	; (804 <Heap_Size+0x4>)
     7ba:	681b      	ldr	r3, [r3, #0]
     7bc:	b1ab      	cbz	r3, 7ea <_open+0xc6>
     7be:	2002      	movs	r0, #2
     7c0:	e7bb      	b.n	73a <_open+0x16>
     7c2:	f04f 30ff 	mov.w	r0, #4294967295
     7c6:	e7b8      	b.n	73a <_open+0x16>
     7c8:	a802      	add	r0, sp, #8
     7ca:	f000 fde1 	bl	1390 <_ZN4mbed8FilePath10fileSystemEv>
     7ce:	4605      	mov	r5, r0
     7d0:	2800      	cmp	r0, #0
     7d2:	d0f6      	beq.n	7c2 <_open+0x9e>
     7d4:	6803      	ldr	r3, [r0, #0]
     7d6:	a802      	add	r0, sp, #8
     7d8:	689f      	ldr	r7, [r3, #8]
     7da:	f000 fdd7 	bl	138c <_ZN4mbed8FilePath8fileNameEv>
     7de:	4632      	mov	r2, r6
     7e0:	4601      	mov	r1, r0
     7e2:	4628      	mov	r0, r5
     7e4:	47b8      	blx	r7
     7e6:	4603      	mov	r3, r0
     7e8:	e7e0      	b.n	7ac <_open+0x88>
     7ea:	f7ff ff8f 	bl	70c <_ZL11init_serialv.part.0>
     7ee:	2002      	movs	r0, #2
     7f0:	e7a3      	b.n	73a <_open+0x16>
     7f2:	4628      	mov	r0, r5
     7f4:	4908      	ldr	r1, [pc, #32]	; (818 <Heap_Size+0x18>)
     7f6:	aa02      	add	r2, sp, #8
     7f8:	f003 fbb2 	bl	3f60 <siscanf>
     7fc:	9b02      	ldr	r3, [sp, #8]
     7fe:	e7d5      	b.n	7ac <_open+0x88>
     800:	00007f70 	.word	0x00007f70
     804:	1000037c 	.word	0x1000037c
     808:	00007f80 	.word	0x00007f80
     80c:	00007f78 	.word	0x00007f78
     810:	10000278 	.word	0x10000278
     814:	1000027c 	.word	0x1000027c
     818:	00007fb8 	.word	0x00007fb8

0000081c <_close>:
     81c:	2802      	cmp	r0, #2
     81e:	b508      	push	{r3, lr}
     820:	dd0b      	ble.n	83a <_close+0x1e>
     822:	4b08      	ldr	r3, [pc, #32]	; (844 <_close+0x28>)
     824:	1ec2      	subs	r2, r0, #3
     826:	f853 0022 	ldr.w	r0, [r3, r2, lsl #2]
     82a:	2100      	movs	r1, #0
     82c:	f843 1022 	str.w	r1, [r3, r2, lsl #2]
     830:	b128      	cbz	r0, 83e <_close+0x22>
     832:	6803      	ldr	r3, [r0, #0]
     834:	685b      	ldr	r3, [r3, #4]
     836:	4798      	blx	r3
     838:	bd08      	pop	{r3, pc}
     83a:	2000      	movs	r0, #0
     83c:	bd08      	pop	{r3, pc}
     83e:	f04f 30ff 	mov.w	r0, #4294967295
     842:	bd08      	pop	{r3, pc}
     844:	1000027c 	.word	0x1000027c

00000848 <_write>:
     848:	2802      	cmp	r0, #2
     84a:	b570      	push	{r4, r5, r6, lr}
     84c:	460c      	mov	r4, r1
     84e:	4616      	mov	r6, r2
     850:	dc0f      	bgt.n	872 <_write+0x2a>
     852:	4b0e      	ldr	r3, [pc, #56]	; (88c <_write+0x44>)
     854:	681b      	ldr	r3, [r3, #0]
     856:	b90b      	cbnz	r3, 85c <_write+0x14>
     858:	f7ff ff58 	bl	70c <_ZL11init_serialv.part.0>
     85c:	19a5      	adds	r5, r4, r6
     85e:	b136      	cbz	r6, 86e <_write+0x26>
     860:	f814 1b01 	ldrb.w	r1, [r4], #1
     864:	480a      	ldr	r0, [pc, #40]	; (890 <_write+0x48>)
     866:	f000 fbd7 	bl	1018 <serial_putc>
     86a:	42ac      	cmp	r4, r5
     86c:	d1f8      	bne.n	860 <_write+0x18>
     86e:	4630      	mov	r0, r6
     870:	bd70      	pop	{r4, r5, r6, pc}
     872:	4b08      	ldr	r3, [pc, #32]	; (894 <_write+0x4c>)
     874:	3803      	subs	r0, #3
     876:	f853 0020 	ldr.w	r0, [r3, r0, lsl #2]
     87a:	b118      	cbz	r0, 884 <_write+0x3c>
     87c:	6803      	ldr	r3, [r0, #0]
     87e:	681b      	ldr	r3, [r3, #0]
     880:	4798      	blx	r3
     882:	bd70      	pop	{r4, r5, r6, pc}
     884:	f04f 30ff 	mov.w	r0, #4294967295
     888:	bd70      	pop	{r4, r5, r6, pc}
     88a:	bf00      	nop
     88c:	1000037c 	.word	0x1000037c
     890:	1000047c 	.word	0x1000047c
     894:	1000027c 	.word	0x1000027c

00000898 <_read>:
     898:	2802      	cmp	r0, #2
     89a:	b510      	push	{r4, lr}
     89c:	460c      	mov	r4, r1
     89e:	dc09      	bgt.n	8b4 <_read+0x1c>
     8a0:	4b0d      	ldr	r3, [pc, #52]	; (8d8 <_read+0x40>)
     8a2:	681b      	ldr	r3, [r3, #0]
     8a4:	b18b      	cbz	r3, 8ca <_read+0x32>
     8a6:	480d      	ldr	r0, [pc, #52]	; (8dc <_read+0x44>)
     8a8:	f000 fb5a 	bl	f60 <serial_getc>
     8ac:	2301      	movs	r3, #1
     8ae:	7020      	strb	r0, [r4, #0]
     8b0:	4618      	mov	r0, r3
     8b2:	bd10      	pop	{r4, pc}
     8b4:	4b0a      	ldr	r3, [pc, #40]	; (8e0 <_read+0x48>)
     8b6:	3803      	subs	r0, #3
     8b8:	f853 0020 	ldr.w	r0, [r3, r0, lsl #2]
     8bc:	b140      	cbz	r0, 8d0 <_read+0x38>
     8be:	6803      	ldr	r3, [r0, #0]
     8c0:	689b      	ldr	r3, [r3, #8]
     8c2:	4798      	blx	r3
     8c4:	4603      	mov	r3, r0
     8c6:	4618      	mov	r0, r3
     8c8:	bd10      	pop	{r4, pc}
     8ca:	f7ff ff1f 	bl	70c <_ZL11init_serialv.part.0>
     8ce:	e7ea      	b.n	8a6 <_read+0xe>
     8d0:	f04f 33ff 	mov.w	r3, #4294967295
     8d4:	e7ec      	b.n	8b0 <_read+0x18>
     8d6:	bf00      	nop
     8d8:	1000037c 	.word	0x1000037c
     8dc:	1000047c 	.word	0x1000047c
     8e0:	1000027c 	.word	0x1000027c

000008e4 <_isatty>:
     8e4:	2802      	cmp	r0, #2
     8e6:	b508      	push	{r3, lr}
     8e8:	dd08      	ble.n	8fc <_isatty+0x18>
     8ea:	4b07      	ldr	r3, [pc, #28]	; (908 <_isatty+0x24>)
     8ec:	3803      	subs	r0, #3
     8ee:	f853 0020 	ldr.w	r0, [r3, r0, lsl #2]
     8f2:	b128      	cbz	r0, 900 <_isatty+0x1c>
     8f4:	6803      	ldr	r3, [r0, #0]
     8f6:	68db      	ldr	r3, [r3, #12]
     8f8:	4798      	blx	r3
     8fa:	bd08      	pop	{r3, pc}
     8fc:	2001      	movs	r0, #1
     8fe:	bd08      	pop	{r3, pc}
     900:	f04f 30ff 	mov.w	r0, #4294967295
     904:	bd08      	pop	{r3, pc}
     906:	bf00      	nop
     908:	1000027c 	.word	0x1000027c

0000090c <_lseek>:
     90c:	2802      	cmp	r0, #2
     90e:	b508      	push	{r3, lr}
     910:	dd08      	ble.n	924 <_lseek+0x18>
     912:	4b07      	ldr	r3, [pc, #28]	; (930 <_lseek+0x24>)
     914:	3803      	subs	r0, #3
     916:	f853 0020 	ldr.w	r0, [r3, r0, lsl #2]
     91a:	b128      	cbz	r0, 928 <_lseek+0x1c>
     91c:	6803      	ldr	r3, [r0, #0]
     91e:	691b      	ldr	r3, [r3, #16]
     920:	4798      	blx	r3
     922:	bd08      	pop	{r3, pc}
     924:	2000      	movs	r0, #0
     926:	bd08      	pop	{r3, pc}
     928:	f04f 30ff 	mov.w	r0, #4294967295
     92c:	bd08      	pop	{r3, pc}
     92e:	bf00      	nop
     930:	1000027c 	.word	0x1000027c

00000934 <_fstat>:
     934:	2802      	cmp	r0, #2
     936:	b508      	push	{r3, lr}
     938:	d804      	bhi.n	944 <_fstat+0x10>
     93a:	f44f 5300 	mov.w	r3, #8192	; 0x2000
     93e:	604b      	str	r3, [r1, #4]
     940:	2000      	movs	r0, #0
     942:	bd08      	pop	{r3, pc}
     944:	f001 f968 	bl	1c18 <__errno>
     948:	2309      	movs	r3, #9
     94a:	6003      	str	r3, [r0, #0]
     94c:	f04f 30ff 	mov.w	r0, #4294967295
     950:	bd08      	pop	{r3, pc}
     952:	bf00      	nop

00000954 <__cxa_pure_virtual>:
     954:	b508      	push	{r3, lr}
     956:	2001      	movs	r0, #1
     958:	f001 f964 	bl	1c24 <exit>

0000095c <mbed_main>:
     95c:	4770      	bx	lr
     95e:	bf00      	nop

00000960 <mbed_sdk_init>:
     960:	4770      	bx	lr
     962:	bf00      	nop

00000964 <__wrap_main>:
     964:	b508      	push	{r3, lr}
     966:	f7ff fffb 	bl	960 <mbed_sdk_init>
     96a:	f7ff fff7 	bl	95c <mbed_main>
     96e:	e8bd 4008 	ldmia.w	sp!, {r3, lr}
     972:	f7ff bc85 	b.w	280 <main>
     976:	bf00      	nop

00000978 <_sbrk>:
     978:	4a07      	ldr	r2, [pc, #28]	; (998 <_sbrk+0x20>)
     97a:	6813      	ldr	r3, [r2, #0]
     97c:	4418      	add	r0, r3
     97e:	f3ef 8108 	mrs	r1, MSP
     982:	4288      	cmp	r0, r1
     984:	d202      	bcs.n	98c <_sbrk+0x14>
     986:	6010      	str	r0, [r2, #0]
     988:	4618      	mov	r0, r3
     98a:	4770      	bx	lr
     98c:	4b03      	ldr	r3, [pc, #12]	; (99c <_sbrk+0x24>)
     98e:	220c      	movs	r2, #12
     990:	601a      	str	r2, [r3, #0]
     992:	f04f 30ff 	mov.w	r0, #4294967295
     996:	4770      	bx	lr
     998:	100000d0 	.word	0x100000d0
     99c:	10000484 	.word	0x10000484

000009a0 <_exit>:
     9a0:	4c0a      	ldr	r4, [pc, #40]	; (9cc <_exit+0x2c>)
     9a2:	b508      	push	{r3, lr}
     9a4:	6823      	ldr	r3, [r4, #0]
     9a6:	4605      	mov	r5, r0
     9a8:	6898      	ldr	r0, [r3, #8]
     9aa:	f001 fa57 	bl	1e5c <fflush>
     9ae:	6823      	ldr	r3, [r4, #0]
     9b0:	68d8      	ldr	r0, [r3, #12]
     9b2:	f001 fa53 	bl	1e5c <fflush>
     9b6:	f000 fe3d 	bl	1634 <mbed_interface_connected>
     9ba:	b920      	cbnz	r0, 9c6 <_exit+0x26>
     9bc:	b905      	cbnz	r5, 9c0 <_exit+0x20>
     9be:	e7fe      	b.n	9be <_exit+0x1e>
     9c0:	f7ff fdd4 	bl	56c <mbed_die>
     9c4:	e7fb      	b.n	9be <_exit+0x1e>
     9c6:	f000 feef 	bl	17a8 <semihost_exit>
     9ca:	e7f7      	b.n	9bc <_exit+0x1c>
     9cc:	10000134 	.word	0x10000134

000009d0 <_ZN4mbed26mbed_set_unbuffered_streamEP7__sFILE>:
     9d0:	2100      	movs	r1, #0
     9d2:	f003 ba0c 	b.w	3dee <setbuf>
     9d6:	bf00      	nop

000009d8 <_ZN4mbed9mbed_getcEP7__sFILE>:
     9d8:	f001 ba7e 	b.w	1ed8 <fgetc>

000009dc <Reset_Handler>:
     9dc:	4906      	ldr	r1, [pc, #24]	; (9f8 <Reset_Handler+0x1c>)
     9de:	4a07      	ldr	r2, [pc, #28]	; (9fc <Reset_Handler+0x20>)
     9e0:	4b07      	ldr	r3, [pc, #28]	; (a00 <Reset_Handler+0x24>)
     9e2:	429a      	cmp	r2, r3
     9e4:	bfbe      	ittt	lt
     9e6:	f851 0b04 	ldrlt.w	r0, [r1], #4
     9ea:	f842 0b04 	strlt.w	r0, [r2], #4
     9ee:	e7f8      	blt.n	9e2 <Reset_Handler+0x6>
     9f0:	4804      	ldr	r0, [pc, #16]	; (a04 <Reset_Handler+0x28>)
     9f2:	4780      	blx	r0
     9f4:	4804      	ldr	r0, [pc, #16]	; (a08 <Reset_Handler+0x2c>)
     9f6:	4700      	bx	r0
     9f8:	000088d0 	.word	0x000088d0
     9fc:	100000c8 	.word	0x100000c8
     a00:	10000180 	.word	0x10000180
     a04:	000004b5 	.word	0x000004b5
     a08:	00000129 	.word	0x00000129

00000a0c <NMI_Handler>:
     a0c:	e7fe      	b.n	a0c <NMI_Handler>

00000a0e <HardFault_Handler>:
     a0e:	e7fe      	b.n	a0e <HardFault_Handler>

00000a10 <MemManage_Handler>:
     a10:	e7fe      	b.n	a10 <MemManage_Handler>

00000a12 <BusFault_Handler>:
     a12:	e7fe      	b.n	a12 <BusFault_Handler>

00000a14 <UsageFault_Handler>:
     a14:	e7fe      	b.n	a14 <UsageFault_Handler>

00000a16 <SVC_Handler>:
     a16:	e7fe      	b.n	a16 <SVC_Handler>

00000a18 <DebugMon_Handler>:
     a18:	e7fe      	b.n	a18 <DebugMon_Handler>

00000a1a <PendSV_Handler>:
     a1a:	e7fe      	b.n	a1a <PendSV_Handler>

00000a1c <SysTick_Handler>:
     a1c:	e7fe      	b.n	a1c <SysTick_Handler>

00000a1e <ADC_IRQHandler>:
     a1e:	e7fe      	b.n	a1e <ADC_IRQHandler>

00000a20 <uart2_irq>:
     a20:	b508      	push	{r3, lr}
     a22:	4a15      	ldr	r2, [pc, #84]	; (a78 <uart2_irq+0x58>)
     a24:	6893      	ldr	r3, [r2, #8]
     a26:	f3c3 0342 	ubfx	r3, r3, #1, #3
     a2a:	2b01      	cmp	r3, #1
     a2c:	d01e      	beq.n	a6c <uart2_irq+0x4c>
     a2e:	2b02      	cmp	r3, #2
     a30:	d119      	bne.n	a66 <uart2_irq+0x46>
     a32:	4b12      	ldr	r3, [pc, #72]	; (a7c <uart2_irq+0x5c>)
     a34:	6f59      	ldr	r1, [r3, #116]	; 0x74
     a36:	3101      	adds	r1, #1
     a38:	d00a      	beq.n	a50 <uart2_irq+0x30>
     a3a:	f8d3 1080 	ldr.w	r1, [r3, #128]	; 0x80
     a3e:	6f98      	ldr	r0, [r3, #120]	; 0x78
     a40:	6008      	str	r0, [r1, #0]
     a42:	f893 10a6 	ldrb.w	r1, [r3, #166]	; 0xa6
     a46:	b919      	cbnz	r1, a50 <uart2_irq+0x30>
     a48:	6851      	ldr	r1, [r2, #4]
     a4a:	f021 0101 	bic.w	r1, r1, #1
     a4e:	6051      	str	r1, [r2, #4]
     a50:	6f18      	ldr	r0, [r3, #112]	; 0x70
     a52:	4b0a      	ldr	r3, [pc, #40]	; (a7c <uart2_irq+0x5c>)
     a54:	b148      	cbz	r0, a6a <uart2_irq+0x4a>
     a56:	f893 30a6 	ldrb.w	r3, [r3, #166]	; 0xa6
     a5a:	b12b      	cbz	r3, a68 <uart2_irq+0x48>
     a5c:	2100      	movs	r1, #0
     a5e:	4a08      	ldr	r2, [pc, #32]	; (a80 <uart2_irq+0x60>)
     a60:	6813      	ldr	r3, [r2, #0]
     a62:	4798      	blx	r3
     a64:	bd08      	pop	{r3, pc}
     a66:	bd08      	pop	{r3, pc}
     a68:	bd08      	pop	{r3, pc}
     a6a:	bd08      	pop	{r3, pc}
     a6c:	4a03      	ldr	r2, [pc, #12]	; (a7c <uart2_irq+0x5c>)
     a6e:	6f10      	ldr	r0, [r2, #112]	; 0x70
     a70:	2800      	cmp	r0, #0
     a72:	d0f9      	beq.n	a68 <uart2_irq+0x48>
     a74:	4619      	mov	r1, r3
     a76:	e7f2      	b.n	a5e <uart2_irq+0x3e>
     a78:	40098000 	.word	0x40098000
     a7c:	10000384 	.word	0x10000384
     a80:	10000380 	.word	0x10000380

00000a84 <serial_irq_set_internal>:
     a84:	b570      	push	{r4, r5, r6, lr}
     a86:	6803      	ldr	r3, [r0, #0]
     a88:	4c29      	ldr	r4, [pc, #164]	; (b30 <serial_irq_set_internal+0xac>)
     a8a:	42a3      	cmp	r3, r4
     a8c:	d049      	beq.n	b22 <serial_irq_set_internal+0x9e>
     a8e:	dd41      	ble.n	b14 <serial_irq_set_internal+0x90>
     a90:	4c28      	ldr	r4, [pc, #160]	; (b34 <serial_irq_set_internal+0xb0>)
     a92:	42a3      	cmp	r3, r4
     a94:	d02a      	beq.n	aec <serial_irq_set_internal+0x68>
     a96:	f504 4480 	add.w	r4, r4, #16384	; 0x4000
     a9a:	42a3      	cmp	r3, r4
     a9c:	d144      	bne.n	b28 <serial_irq_set_internal+0xa4>
     a9e:	4c26      	ldr	r4, [pc, #152]	; (b38 <serial_irq_set_internal+0xb4>)
     aa0:	2608      	movs	r6, #8
     aa2:	bb3a      	cbnz	r2, af4 <serial_irq_set_internal+0x70>
     aa4:	2901      	cmp	r1, #1
     aa6:	d00b      	beq.n	ac0 <serial_irq_set_internal+0x3c>
     aa8:	6845      	ldr	r5, [r0, #4]
     aaa:	4a24      	ldr	r2, [pc, #144]	; (b3c <serial_irq_set_internal+0xb8>)
     aac:	ebc5 05c5 	rsb	r5, r5, r5, lsl #3
     ab0:	eb02 04c5 	add.w	r4, r2, r5, lsl #3
     ab4:	f894 5035 	ldrb.w	r5, [r4, #53]	; 0x35
     ab8:	f894 2036 	ldrb.w	r2, [r4, #54]	; 0x36
     abc:	42ea      	cmn	r2, r5
     abe:	d114      	bne.n	aea <serial_irq_set_internal+0x66>
     ac0:	2201      	movs	r2, #1
     ac2:	fa02 f501 	lsl.w	r5, r2, r1
     ac6:	f1d1 0101 	rsbs	r1, r1, #1
     aca:	bf38      	it	cc
     acc:	2100      	movcc	r1, #0
     ace:	fa02 f101 	lsl.w	r1, r2, r1
     ad2:	685c      	ldr	r4, [r3, #4]
     ad4:	ea24 0405 	bic.w	r4, r4, r5
     ad8:	605c      	str	r4, [r3, #4]
     ada:	6803      	ldr	r3, [r0, #0]
     adc:	685b      	ldr	r3, [r3, #4]
     ade:	4219      	tst	r1, r3
     ae0:	d103      	bne.n	aea <serial_irq_set_internal+0x66>
     ae2:	40b2      	lsls	r2, r6
     ae4:	4b16      	ldr	r3, [pc, #88]	; (b40 <serial_irq_set_internal+0xbc>)
     ae6:	f8c3 2080 	str.w	r2, [r3, #128]	; 0x80
     aea:	bd70      	pop	{r4, r5, r6, pc}
     aec:	4c15      	ldr	r4, [pc, #84]	; (b44 <serial_irq_set_internal+0xc0>)
     aee:	2607      	movs	r6, #7
     af0:	2a00      	cmp	r2, #0
     af2:	d0d7      	beq.n	aa4 <serial_irq_set_internal+0x20>
     af4:	2501      	movs	r5, #1
     af6:	fa05 f101 	lsl.w	r1, r5, r1
     afa:	b276      	sxtb	r6, r6
     afc:	4630      	mov	r0, r6
     afe:	fa05 f606 	lsl.w	r6, r5, r6
     b02:	685a      	ldr	r2, [r3, #4]
     b04:	430a      	orrs	r2, r1
     b06:	605a      	str	r2, [r3, #4]
     b08:	4621      	mov	r1, r4
     b0a:	f7ff fcb5 	bl	478 <NVIC_SetVector>
     b0e:	4b0c      	ldr	r3, [pc, #48]	; (b40 <serial_irq_set_internal+0xbc>)
     b10:	601e      	str	r6, [r3, #0]
     b12:	bd70      	pop	{r4, r5, r6, pc}
     b14:	f5a4 4480 	sub.w	r4, r4, #16384	; 0x4000
     b18:	42a3      	cmp	r3, r4
     b1a:	d105      	bne.n	b28 <serial_irq_set_internal+0xa4>
     b1c:	4c0a      	ldr	r4, [pc, #40]	; (b48 <serial_irq_set_internal+0xc4>)
     b1e:	2605      	movs	r6, #5
     b20:	e7bf      	b.n	aa2 <serial_irq_set_internal+0x1e>
     b22:	4c0a      	ldr	r4, [pc, #40]	; (b4c <serial_irq_set_internal+0xc8>)
     b24:	2606      	movs	r6, #6
     b26:	e7bc      	b.n	aa2 <serial_irq_set_internal+0x1e>
     b28:	2400      	movs	r4, #0
     b2a:	4626      	mov	r6, r4
     b2c:	e7b9      	b.n	aa2 <serial_irq_set_internal+0x1e>
     b2e:	bf00      	nop
     b30:	40010000 	.word	0x40010000
     b34:	40098000 	.word	0x40098000
     b38:	00000bb5 	.word	0x00000bb5
     b3c:	10000384 	.word	0x10000384
     b40:	e000e100 	.word	0xe000e100
     b44:	00000a21 	.word	0x00000a21
     b48:	00000b51 	.word	0x00000b51
     b4c:	00000c21 	.word	0x00000c21

00000b50 <uart0_irq>:
     b50:	b508      	push	{r3, lr}
     b52:	4a15      	ldr	r2, [pc, #84]	; (ba8 <uart0_irq+0x58>)
     b54:	6893      	ldr	r3, [r2, #8]
     b56:	f3c3 0342 	ubfx	r3, r3, #1, #3
     b5a:	2b01      	cmp	r3, #1
     b5c:	d01d      	beq.n	b9a <uart0_irq+0x4a>
     b5e:	2b02      	cmp	r3, #2
     b60:	d118      	bne.n	b94 <uart0_irq+0x44>
     b62:	4b12      	ldr	r3, [pc, #72]	; (bac <uart0_irq+0x5c>)
     b64:	6859      	ldr	r1, [r3, #4]
     b66:	3101      	adds	r1, #1
     b68:	d009      	beq.n	b7e <uart0_irq+0x2e>
     b6a:	6919      	ldr	r1, [r3, #16]
     b6c:	6898      	ldr	r0, [r3, #8]
     b6e:	6008      	str	r0, [r1, #0]
     b70:	f893 1036 	ldrb.w	r1, [r3, #54]	; 0x36
     b74:	b919      	cbnz	r1, b7e <uart0_irq+0x2e>
     b76:	6851      	ldr	r1, [r2, #4]
     b78:	f021 0101 	bic.w	r1, r1, #1
     b7c:	6051      	str	r1, [r2, #4]
     b7e:	6818      	ldr	r0, [r3, #0]
     b80:	4b0a      	ldr	r3, [pc, #40]	; (bac <uart0_irq+0x5c>)
     b82:	b148      	cbz	r0, b98 <uart0_irq+0x48>
     b84:	f893 3036 	ldrb.w	r3, [r3, #54]	; 0x36
     b88:	b12b      	cbz	r3, b96 <uart0_irq+0x46>
     b8a:	2100      	movs	r1, #0
     b8c:	4a08      	ldr	r2, [pc, #32]	; (bb0 <uart0_irq+0x60>)
     b8e:	6813      	ldr	r3, [r2, #0]
     b90:	4798      	blx	r3
     b92:	bd08      	pop	{r3, pc}
     b94:	bd08      	pop	{r3, pc}
     b96:	bd08      	pop	{r3, pc}
     b98:	bd08      	pop	{r3, pc}
     b9a:	4a04      	ldr	r2, [pc, #16]	; (bac <uart0_irq+0x5c>)
     b9c:	6810      	ldr	r0, [r2, #0]
     b9e:	2800      	cmp	r0, #0
     ba0:	d0f9      	beq.n	b96 <uart0_irq+0x46>
     ba2:	4619      	mov	r1, r3
     ba4:	e7f2      	b.n	b8c <uart0_irq+0x3c>
     ba6:	bf00      	nop
     ba8:	4000c000 	.word	0x4000c000
     bac:	10000384 	.word	0x10000384
     bb0:	10000380 	.word	0x10000380

00000bb4 <uart3_irq>:
     bb4:	b508      	push	{r3, lr}
     bb6:	4a17      	ldr	r2, [pc, #92]	; (c14 <Stack_Size+0x14>)
     bb8:	6893      	ldr	r3, [r2, #8]
     bba:	f3c3 0342 	ubfx	r3, r3, #1, #3
     bbe:	2b01      	cmp	r3, #1
     bc0:	d021      	beq.n	c06 <Stack_Size+0x6>
     bc2:	2b02      	cmp	r3, #2
     bc4:	d11c      	bne.n	c00 <Stack_Size>
     bc6:	4b14      	ldr	r3, [pc, #80]	; (c18 <Stack_Size+0x18>)
     bc8:	f8d3 10ac 	ldr.w	r1, [r3, #172]	; 0xac
     bcc:	3101      	adds	r1, #1
     bce:	d00b      	beq.n	be8 <uart3_irq+0x34>
     bd0:	f8d3 10b8 	ldr.w	r1, [r3, #184]	; 0xb8
     bd4:	f8d3 00b0 	ldr.w	r0, [r3, #176]	; 0xb0
     bd8:	6008      	str	r0, [r1, #0]
     bda:	f893 10de 	ldrb.w	r1, [r3, #222]	; 0xde
     bde:	b919      	cbnz	r1, be8 <uart3_irq+0x34>
     be0:	6851      	ldr	r1, [r2, #4]
     be2:	f021 0101 	bic.w	r1, r1, #1
     be6:	6051      	str	r1, [r2, #4]
     be8:	f8d3 00a8 	ldr.w	r0, [r3, #168]	; 0xa8
     bec:	4b0a      	ldr	r3, [pc, #40]	; (c18 <Stack_Size+0x18>)
     bee:	b148      	cbz	r0, c04 <Stack_Size+0x4>
     bf0:	f893 30de 	ldrb.w	r3, [r3, #222]	; 0xde
     bf4:	b12b      	cbz	r3, c02 <Stack_Size+0x2>
     bf6:	2100      	movs	r1, #0
     bf8:	4a08      	ldr	r2, [pc, #32]	; (c1c <Stack_Size+0x1c>)
     bfa:	6813      	ldr	r3, [r2, #0]
     bfc:	4798      	blx	r3
     bfe:	bd08      	pop	{r3, pc}
     c00:	bd08      	pop	{r3, pc}
     c02:	bd08      	pop	{r3, pc}
     c04:	bd08      	pop	{r3, pc}
     c06:	4a04      	ldr	r2, [pc, #16]	; (c18 <Stack_Size+0x18>)
     c08:	f8d2 00a8 	ldr.w	r0, [r2, #168]	; 0xa8
     c0c:	2800      	cmp	r0, #0
     c0e:	d0f8      	beq.n	c02 <Stack_Size+0x2>
     c10:	4619      	mov	r1, r3
     c12:	e7f1      	b.n	bf8 <uart3_irq+0x44>
     c14:	4009c000 	.word	0x4009c000
     c18:	10000384 	.word	0x10000384
     c1c:	10000380 	.word	0x10000380

00000c20 <uart1_irq>:
     c20:	b508      	push	{r3, lr}
     c22:	4a15      	ldr	r2, [pc, #84]	; (c78 <uart1_irq+0x58>)
     c24:	6893      	ldr	r3, [r2, #8]
     c26:	f3c3 0342 	ubfx	r3, r3, #1, #3
     c2a:	2b01      	cmp	r3, #1
     c2c:	d01d      	beq.n	c6a <uart1_irq+0x4a>
     c2e:	2b02      	cmp	r3, #2
     c30:	d118      	bne.n	c64 <uart1_irq+0x44>
     c32:	4b12      	ldr	r3, [pc, #72]	; (c7c <uart1_irq+0x5c>)
     c34:	6bd9      	ldr	r1, [r3, #60]	; 0x3c
     c36:	3101      	adds	r1, #1
     c38:	d009      	beq.n	c4e <uart1_irq+0x2e>
     c3a:	6c99      	ldr	r1, [r3, #72]	; 0x48
     c3c:	6c18      	ldr	r0, [r3, #64]	; 0x40
     c3e:	6008      	str	r0, [r1, #0]
     c40:	f893 106e 	ldrb.w	r1, [r3, #110]	; 0x6e
     c44:	b919      	cbnz	r1, c4e <uart1_irq+0x2e>
     c46:	6851      	ldr	r1, [r2, #4]
     c48:	f021 0101 	bic.w	r1, r1, #1
     c4c:	6051      	str	r1, [r2, #4]
     c4e:	6b98      	ldr	r0, [r3, #56]	; 0x38
     c50:	4b0a      	ldr	r3, [pc, #40]	; (c7c <uart1_irq+0x5c>)
     c52:	b148      	cbz	r0, c68 <uart1_irq+0x48>
     c54:	f893 306e 	ldrb.w	r3, [r3, #110]	; 0x6e
     c58:	b12b      	cbz	r3, c66 <uart1_irq+0x46>
     c5a:	2100      	movs	r1, #0
     c5c:	4a08      	ldr	r2, [pc, #32]	; (c80 <uart1_irq+0x60>)
     c5e:	6813      	ldr	r3, [r2, #0]
     c60:	4798      	blx	r3
     c62:	bd08      	pop	{r3, pc}
     c64:	bd08      	pop	{r3, pc}
     c66:	bd08      	pop	{r3, pc}
     c68:	bd08      	pop	{r3, pc}
     c6a:	4a04      	ldr	r2, [pc, #16]	; (c7c <uart1_irq+0x5c>)
     c6c:	6b90      	ldr	r0, [r2, #56]	; 0x38
     c6e:	2800      	cmp	r0, #0
     c70:	d0f9      	beq.n	c66 <uart1_irq+0x46>
     c72:	4619      	mov	r1, r3
     c74:	e7f2      	b.n	c5c <uart1_irq+0x3c>
     c76:	bf00      	nop
     c78:	40010000 	.word	0x40010000
     c7c:	10000384 	.word	0x10000384
     c80:	10000380 	.word	0x10000380

00000c84 <serial_baud>:
     c84:	e92d 4ff0 	stmdb	sp!, {r4, r5, r6, r7, r8, r9, sl, fp, lr}
     c88:	6803      	ldr	r3, [r0, #0]
     c8a:	4a88      	ldr	r2, [pc, #544]	; (eac <serial_baud+0x228>)
     c8c:	b08d      	sub	sp, #52	; 0x34
     c8e:	4293      	cmp	r3, r2
     c90:	9009      	str	r0, [sp, #36]	; 0x24
     c92:	468b      	mov	fp, r1
     c94:	f300 80f0 	bgt.w	e78 <serial_baud+0x1f4>
     c98:	4a85      	ldr	r2, [pc, #532]	; (eb0 <serial_baud+0x22c>)
     c9a:	4293      	cmp	r3, r2
     c9c:	f000 80f7 	beq.w	e8e <serial_baud+0x20a>
     ca0:	f340 80d7 	ble.w	e52 <serial_baud+0x1ce>
     ca4:	4a83      	ldr	r2, [pc, #524]	; (eb4 <serial_baud+0x230>)
     ca6:	4293      	cmp	r3, r2
     ca8:	f000 809f 	beq.w	dea <serial_baud+0x166>
     cac:	f502 4280 	add.w	r2, r2, #16384	; 0x4000
     cb0:	4293      	cmp	r3, r2
     cb2:	d10c      	bne.n	cce <serial_baud+0x4a>
     cb4:	4a80      	ldr	r2, [pc, #512]	; (eb8 <serial_baud+0x234>)
     cb6:	f8d2 11ac 	ldr.w	r1, [r2, #428]	; 0x1ac
     cba:	f421 2140 	bic.w	r1, r1, #786432	; 0xc0000
     cbe:	f8c2 11ac 	str.w	r1, [r2, #428]	; 0x1ac
     cc2:	f8d2 11ac 	ldr.w	r1, [r2, #428]	; 0x1ac
     cc6:	f441 2180 	orr.w	r1, r1, #262144	; 0x40000
     cca:	f8c2 11ac 	str.w	r1, [r2, #428]	; 0x1ac
     cce:	497b      	ldr	r1, [pc, #492]	; (ebc <serial_baud+0x238>)
     cd0:	ea4f 120b 	mov.w	r2, fp, lsl #4
     cd4:	6809      	ldr	r1, [r1, #0]
     cd6:	9108      	str	r1, [sp, #32]
     cd8:	9c08      	ldr	r4, [sp, #32]
     cda:	fbb1 f1f2 	udiv	r1, r1, r2
     cde:	fb02 4211 	mls	r2, r2, r1, r4
     ce2:	b289      	uxth	r1, r1
     ce4:	9104      	str	r1, [sp, #16]
     ce6:	2a00      	cmp	r2, #0
     ce8:	f000 80b1 	beq.w	e4e <serial_baud+0x1ca>
     cec:	0061      	lsls	r1, r4, #1
     cee:	00a2      	lsls	r2, r4, #2
     cf0:	2301      	movs	r3, #1
     cf2:	9402      	str	r4, [sp, #8]
     cf4:	2400      	movs	r4, #0
     cf6:	910b      	str	r1, [sp, #44]	; 0x2c
     cf8:	920a      	str	r2, [sp, #40]	; 0x28
     cfa:	9301      	str	r3, [sp, #4]
     cfc:	460f      	mov	r7, r1
     cfe:	9203      	str	r2, [sp, #12]
     d00:	9306      	str	r3, [sp, #24]
     d02:	f8cd b01c 	str.w	fp, [sp, #28]
     d06:	465e      	mov	r6, fp
     d08:	9405      	str	r4, [sp, #20]
     d0a:	f8dd a01c 	ldr.w	sl, [sp, #28]
     d0e:	9901      	ldr	r1, [sp, #4]
     d10:	f04f 0800 	mov.w	r8, #0
     d14:	46d1      	mov	r9, sl
     d16:	b2cd      	uxtb	r5, r1
     d18:	46da      	mov	sl, fp
     d1a:	46c3      	mov	fp, r8
     d1c:	2f00      	cmp	r7, #0
     d1e:	db79      	blt.n	e14 <serial_baud+0x190>
     d20:	9903      	ldr	r1, [sp, #12]
     d22:	f8dd e004 	ldr.w	lr, [sp, #4]
     d26:	fbb1 f4f9 	udiv	r4, r1, r9
     d2a:	0964      	lsrs	r4, r4, #5
     d2c:	3401      	adds	r4, #1
     d2e:	f3c4 044f 	ubfx	r4, r4, #1, #16
     d32:	44de      	add	lr, fp
     d34:	2c00      	cmp	r4, #0
     d36:	d166      	bne.n	e06 <serial_baud+0x182>
     d38:	2401      	movs	r4, #1
     d3a:	f1b8 0f00 	cmp.w	r8, #0
     d3e:	d167      	bne.n	e10 <serial_baud+0x18c>
     d40:	fb04 f00e 	mul.w	r0, r4, lr
     d44:	9a02      	ldr	r2, [sp, #8]
     d46:	00c0      	lsls	r0, r0, #3
     d48:	fbb2 f0f0 	udiv	r0, r2, r0
     d4c:	3001      	adds	r0, #1
     d4e:	ebca 0050 	rsb	r0, sl, r0, lsr #1
     d52:	f000 ff4e 	bl	1bf2 <abs>
     d56:	42b0      	cmp	r0, r6
     d58:	da06      	bge.n	d68 <serial_baud+0xe4>
     d5a:	4550      	cmp	r0, sl
     d5c:	d064      	beq.n	e28 <serial_baud+0x1a4>
     d5e:	4606      	mov	r6, r0
     d60:	f8cd 8014 	str.w	r8, [sp, #20]
     d64:	9404      	str	r4, [sp, #16]
     d66:	9506      	str	r5, [sp, #24]
     d68:	f10b 0b01 	add.w	fp, fp, #1
     d6c:	fa5f f88b 	uxtb.w	r8, fp
     d70:	4545      	cmp	r5, r8
     d72:	44d1      	add	r9, sl
     d74:	d8d2      	bhi.n	d1c <serial_baud+0x98>
     d76:	9c01      	ldr	r4, [sp, #4]
     d78:	46d3      	mov	fp, sl
     d7a:	2c0f      	cmp	r4, #15
     d7c:	f04f 0300 	mov.w	r3, #0
     d80:	d05d      	beq.n	e3e <serial_baud+0x1ba>
     d82:	9a02      	ldr	r2, [sp, #8]
     d84:	9908      	ldr	r1, [sp, #32]
     d86:	9c01      	ldr	r4, [sp, #4]
     d88:	440a      	add	r2, r1
     d8a:	990b      	ldr	r1, [sp, #44]	; 0x2c
     d8c:	3401      	adds	r4, #1
     d8e:	9202      	str	r2, [sp, #8]
     d90:	9401      	str	r4, [sp, #4]
     d92:	9a03      	ldr	r2, [sp, #12]
     d94:	440f      	add	r7, r1
     d96:	9c0a      	ldr	r4, [sp, #40]	; 0x28
     d98:	9907      	ldr	r1, [sp, #28]
     d9a:	4422      	add	r2, r4
     d9c:	4459      	add	r1, fp
     d9e:	9203      	str	r2, [sp, #12]
     da0:	9107      	str	r1, [sp, #28]
     da2:	2b00      	cmp	r3, #0
     da4:	d0b1      	beq.n	d0a <serial_baud+0x86>
     da6:	9b06      	ldr	r3, [sp, #24]
     da8:	9a05      	ldr	r2, [sp, #20]
     daa:	9c09      	ldr	r4, [sp, #36]	; 0x24
     dac:	ea42 1003 	orr.w	r0, r2, r3, lsl #4
     db0:	6823      	ldr	r3, [r4, #0]
     db2:	b2c0      	uxtb	r0, r0
     db4:	7b19      	ldrb	r1, [r3, #12]
     db6:	9c04      	ldr	r4, [sp, #16]
     db8:	f041 0180 	orr.w	r1, r1, #128	; 0x80
     dbc:	f3c4 2207 	ubfx	r2, r4, #8, #8
     dc0:	9c09      	ldr	r4, [sp, #36]	; 0x24
     dc2:	7319      	strb	r1, [r3, #12]
     dc4:	6823      	ldr	r3, [r4, #0]
     dc6:	9904      	ldr	r1, [sp, #16]
     dc8:	711a      	strb	r2, [r3, #4]
     dca:	6823      	ldr	r3, [r4, #0]
     dcc:	fa5f fb81 	uxtb.w	fp, r1
     dd0:	f883 b000 	strb.w	fp, [r3]
     dd4:	6823      	ldr	r3, [r4, #0]
     dd6:	f883 0028 	strb.w	r0, [r3, #40]	; 0x28
     dda:	6823      	ldr	r3, [r4, #0]
     ddc:	7b1a      	ldrb	r2, [r3, #12]
     dde:	f002 027f 	and.w	r2, r2, #127	; 0x7f
     de2:	731a      	strb	r2, [r3, #12]
     de4:	b00d      	add	sp, #52	; 0x34
     de6:	e8bd 8ff0 	ldmia.w	sp!, {r4, r5, r6, r7, r8, r9, sl, fp, pc}
     dea:	4a33      	ldr	r2, [pc, #204]	; (eb8 <serial_baud+0x234>)
     dec:	f8d2 11ac 	ldr.w	r1, [r2, #428]	; 0x1ac
     df0:	f421 3140 	bic.w	r1, r1, #196608	; 0x30000
     df4:	f8c2 11ac 	str.w	r1, [r2, #428]	; 0x1ac
     df8:	f8d2 11ac 	ldr.w	r1, [r2, #428]	; 0x1ac
     dfc:	f441 3180 	orr.w	r1, r1, #65536	; 0x10000
     e00:	f8c2 11ac 	str.w	r1, [r2, #428]	; 0x1ac
     e04:	e763      	b.n	cce <serial_baud+0x4a>
     e06:	f1b8 0f00 	cmp.w	r8, #0
     e0a:	d099      	beq.n	d40 <serial_baud+0xbc>
     e0c:	2c01      	cmp	r4, #1
     e0e:	d897      	bhi.n	d40 <serial_baud+0xbc>
     e10:	2402      	movs	r4, #2
     e12:	e795      	b.n	d40 <serial_baud+0xbc>
     e14:	fbb7 f4f9 	udiv	r4, r7, r9
     e18:	0924      	lsrs	r4, r4, #4
     e1a:	f8dd e004 	ldr.w	lr, [sp, #4]
     e1e:	3401      	adds	r4, #1
     e20:	f3c4 044f 	ubfx	r4, r4, #1, #16
     e24:	44de      	add	lr, fp
     e26:	e785      	b.n	d34 <serial_baud+0xb0>
     e28:	9404      	str	r4, [sp, #16]
     e2a:	9c01      	ldr	r4, [sp, #4]
     e2c:	46d3      	mov	fp, sl
     e2e:	2c0f      	cmp	r4, #15
     e30:	9506      	str	r5, [sp, #24]
     e32:	f8cd 8014 	str.w	r8, [sp, #20]
     e36:	4656      	mov	r6, sl
     e38:	f04f 0301 	mov.w	r3, #1
     e3c:	d1a1      	bne.n	d82 <serial_baud+0xfe>
     e3e:	9905      	ldr	r1, [sp, #20]
     e40:	9a06      	ldr	r2, [sp, #24]
     e42:	9c09      	ldr	r4, [sp, #36]	; 0x24
     e44:	ea41 1002 	orr.w	r0, r1, r2, lsl #4
     e48:	b2c0      	uxtb	r0, r0
     e4a:	6823      	ldr	r3, [r4, #0]
     e4c:	e7b2      	b.n	db4 <serial_baud+0x130>
     e4e:	2010      	movs	r0, #16
     e50:	e7b0      	b.n	db4 <serial_baud+0x130>
     e52:	f5a2 4280 	sub.w	r2, r2, #16384	; 0x4000
     e56:	4293      	cmp	r3, r2
     e58:	f47f af39 	bne.w	cce <serial_baud+0x4a>
     e5c:	4a16      	ldr	r2, [pc, #88]	; (eb8 <serial_baud+0x234>)
     e5e:	f8d2 11a8 	ldr.w	r1, [r2, #424]	; 0x1a8
     e62:	f021 01c0 	bic.w	r1, r1, #192	; 0xc0
     e66:	f8c2 11a8 	str.w	r1, [r2, #424]	; 0x1a8
     e6a:	f8d2 11a8 	ldr.w	r1, [r2, #424]	; 0x1a8
     e6e:	f041 0140 	orr.w	r1, r1, #64	; 0x40
     e72:	f8c2 11a8 	str.w	r1, [r2, #424]	; 0x1a8
     e76:	e72a      	b.n	cce <serial_baud+0x4a>
     e78:	229b      	movs	r2, #155	; 0x9b
     e7a:	4811      	ldr	r0, [pc, #68]	; (ec0 <serial_baud+0x23c>)
     e7c:	4911      	ldr	r1, [pc, #68]	; (ec4 <serial_baud+0x240>)
     e7e:	f000 fbb1 	bl	15e4 <mbed_assert_internal>
     e82:	9c09      	ldr	r4, [sp, #36]	; 0x24
     e84:	4a0a      	ldr	r2, [pc, #40]	; (eb0 <serial_baud+0x22c>)
     e86:	6823      	ldr	r3, [r4, #0]
     e88:	4293      	cmp	r3, r2
     e8a:	f47f af09 	bne.w	ca0 <serial_baud+0x1c>
     e8e:	4a0a      	ldr	r2, [pc, #40]	; (eb8 <serial_baud+0x234>)
     e90:	f8d2 11a8 	ldr.w	r1, [r2, #424]	; 0x1a8
     e94:	f421 7140 	bic.w	r1, r1, #768	; 0x300
     e98:	f8c2 11a8 	str.w	r1, [r2, #424]	; 0x1a8
     e9c:	f8d2 11a8 	ldr.w	r1, [r2, #424]	; 0x1a8
     ea0:	f441 7180 	orr.w	r1, r1, #256	; 0x100
     ea4:	f8c2 11a8 	str.w	r1, [r2, #424]	; 0x1a8
     ea8:	e711      	b.n	cce <serial_baud+0x4a>
     eaa:	bf00      	nop
     eac:	4009c000 	.word	0x4009c000
     eb0:	40010000 	.word	0x40010000
     eb4:	40098000 	.word	0x40098000
     eb8:	400fc000 	.word	0x400fc000
     ebc:	100000cc 	.word	0x100000cc
     ec0:	00008068 	.word	0x00008068
     ec4:	00008084 	.word	0x00008084

00000ec8 <serial_format>:
     ec8:	b5f8      	push	{r3, r4, r5, r6, r7, lr}
     eca:	1e5d      	subs	r5, r3, #1
     ecc:	2d01      	cmp	r5, #1
     ece:	4607      	mov	r7, r0
     ed0:	460c      	mov	r4, r1
     ed2:	4616      	mov	r6, r2
     ed4:	d904      	bls.n	ee0 <serial_format+0x18>
     ed6:	4815      	ldr	r0, [pc, #84]	; (f2c <serial_format+0x64>)
     ed8:	4915      	ldr	r1, [pc, #84]	; (f30 <serial_format+0x68>)
     eda:	22fb      	movs	r2, #251	; 0xfb
     edc:	f000 fb82 	bl	15e4 <mbed_assert_internal>
     ee0:	3c05      	subs	r4, #5
     ee2:	2c03      	cmp	r4, #3
     ee4:	d81c      	bhi.n	f20 <serial_format+0x58>
     ee6:	2e04      	cmp	r6, #4
     ee8:	d814      	bhi.n	f14 <serial_format+0x4c>
     eea:	3e01      	subs	r6, #1
     eec:	b2f6      	uxtb	r6, r6
     eee:	2e03      	cmp	r6, #3
     ef0:	d80d      	bhi.n	f0e <serial_format+0x46>
     ef2:	4b10      	ldr	r3, [pc, #64]	; (f34 <serial_format+0x6c>)
     ef4:	2208      	movs	r2, #8
     ef6:	f853 3026 	ldr.w	r3, [r3, r6, lsl #2]
     efa:	011b      	lsls	r3, r3, #4
     efc:	b2db      	uxtb	r3, r3
     efe:	ea44 0485 	orr.w	r4, r4, r5, lsl #2
     f02:	4314      	orrs	r4, r2
     f04:	4323      	orrs	r3, r4
     f06:	683a      	ldr	r2, [r7, #0]
     f08:	b2db      	uxtb	r3, r3
     f0a:	7313      	strb	r3, [r2, #12]
     f0c:	bdf8      	pop	{r3, r4, r5, r6, r7, pc}
     f0e:	2300      	movs	r3, #0
     f10:	461a      	mov	r2, r3
     f12:	e7f4      	b.n	efe <serial_format+0x36>
     f14:	4808      	ldr	r0, [pc, #32]	; (f38 <serial_format+0x70>)
     f16:	4906      	ldr	r1, [pc, #24]	; (f30 <serial_format+0x68>)
     f18:	22fe      	movs	r2, #254	; 0xfe
     f1a:	f000 fb63 	bl	15e4 <mbed_assert_internal>
     f1e:	e7e4      	b.n	eea <serial_format+0x22>
     f20:	4806      	ldr	r0, [pc, #24]	; (f3c <serial_format+0x74>)
     f22:	4903      	ldr	r1, [pc, #12]	; (f30 <serial_format+0x68>)
     f24:	22fc      	movs	r2, #252	; 0xfc
     f26:	f000 fb5d 	bl	15e4 <mbed_assert_internal>
     f2a:	e7dc      	b.n	ee6 <serial_format+0x1e>
     f2c:	000080ec 	.word	0x000080ec
     f30:	00008084 	.word	0x00008084
     f34:	00007fec 	.word	0x00007fec
     f38:	00008138 	.word	0x00008138
     f3c:	00008114 	.word	0x00008114

00000f40 <serial_irq_handler>:
     f40:	6843      	ldr	r3, [r0, #4]
     f42:	b410      	push	{r4}
     f44:	4804      	ldr	r0, [pc, #16]	; (f58 <serial_irq_handler+0x18>)
     f46:	4c05      	ldr	r4, [pc, #20]	; (f5c <serial_irq_handler+0x1c>)
     f48:	ebc3 03c3 	rsb	r3, r3, r3, lsl #3
     f4c:	f844 2033 	str.w	r2, [r4, r3, lsl #3]
     f50:	6001      	str	r1, [r0, #0]
     f52:	f85d 4b04 	ldr.w	r4, [sp], #4
     f56:	4770      	bx	lr
     f58:	10000380 	.word	0x10000380
     f5c:	10000384 	.word	0x10000384

00000f60 <serial_getc>:
     f60:	b500      	push	{lr}
     f62:	6802      	ldr	r2, [r0, #0]
     f64:	7d13      	ldrb	r3, [r2, #20]
     f66:	07db      	lsls	r3, r3, #31
     f68:	d5fc      	bpl.n	f64 <serial_getc+0x4>
     f6a:	6843      	ldr	r3, [r0, #4]
     f6c:	4909      	ldr	r1, [pc, #36]	; (f94 <serial_getc+0x34>)
     f6e:	ebc3 03c3 	rsb	r3, r3, r3, lsl #3
     f72:	eb01 03c3 	add.w	r3, r1, r3, lsl #3
     f76:	6859      	ldr	r1, [r3, #4]
     f78:	7810      	ldrb	r0, [r2, #0]
     f7a:	3101      	adds	r1, #1
     f7c:	b2c0      	uxtb	r0, r0
     f7e:	d007      	beq.n	f90 <serial_getc+0x30>
     f80:	6959      	ldr	r1, [r3, #20]
     f82:	3304      	adds	r3, #4
     f84:	685b      	ldr	r3, [r3, #4]
     f86:	600b      	str	r3, [r1, #0]
     f88:	6853      	ldr	r3, [r2, #4]
     f8a:	f043 0301 	orr.w	r3, r3, #1
     f8e:	6053      	str	r3, [r2, #4]
     f90:	f85d fb04 	ldr.w	pc, [sp], #4
     f94:	10000384 	.word	0x10000384

00000f98 <serial_readable>:
     f98:	6803      	ldr	r3, [r0, #0]
     f9a:	7d18      	ldrb	r0, [r3, #20]
     f9c:	f000 0001 	and.w	r0, r0, #1
     fa0:	4770      	bx	lr
     fa2:	bf00      	nop

00000fa4 <serial_writable>:
     fa4:	b538      	push	{r3, r4, r5, lr}
     fa6:	6843      	ldr	r3, [r0, #4]
     fa8:	4a18      	ldr	r2, [pc, #96]	; (100c <serial_writable+0x68>)
     faa:	ebc3 03c3 	rsb	r3, r3, r3, lsl #3
     fae:	00db      	lsls	r3, r3, #3
     fb0:	18d1      	adds	r1, r2, r3
     fb2:	4604      	mov	r4, r0
     fb4:	69c8      	ldr	r0, [r1, #28]
     fb6:	3001      	adds	r0, #1
     fb8:	d011      	beq.n	fde <serial_writable+0x3a>
     fba:	3318      	adds	r3, #24
     fbc:	441a      	add	r2, r3
     fbe:	6853      	ldr	r3, [r2, #4]
     fc0:	1d15      	adds	r5, r2, #4
     fc2:	3301      	adds	r3, #1
     fc4:	d016      	beq.n	ff4 <serial_writable+0x50>
     fc6:	696a      	ldr	r2, [r5, #20]
     fc8:	686b      	ldr	r3, [r5, #4]
     fca:	6812      	ldr	r2, [r2, #0]
     fcc:	421a      	tst	r2, r3
     fce:	d104      	bne.n	fda <serial_writable+0x36>
     fd0:	6823      	ldr	r3, [r4, #0]
     fd2:	7d18      	ldrb	r0, [r3, #20]
     fd4:	f3c0 1080 	ubfx	r0, r0, #6, #1
     fd8:	bd38      	pop	{r3, r4, r5, pc}
     fda:	2000      	movs	r0, #0
     fdc:	bd38      	pop	{r3, r4, r5, pc}
     fde:	6823      	ldr	r3, [r4, #0]
     fe0:	7d1b      	ldrb	r3, [r3, #20]
     fe2:	069b      	lsls	r3, r3, #26
     fe4:	d40c      	bmi.n	1000 <serial_writable+0x5c>
     fe6:	f891 0034 	ldrb.w	r0, [r1, #52]	; 0x34
     fea:	280f      	cmp	r0, #15
     fec:	bf8c      	ite	hi
     fee:	2000      	movhi	r0, #0
     ff0:	2001      	movls	r0, #1
     ff2:	bd38      	pop	{r3, r4, r5, pc}
     ff4:	4806      	ldr	r0, [pc, #24]	; (1010 <serial_writable+0x6c>)
     ff6:	4907      	ldr	r1, [pc, #28]	; (1014 <serial_writable+0x70>)
     ff8:	222c      	movs	r2, #44	; 0x2c
     ffa:	f000 faf3 	bl	15e4 <mbed_assert_internal>
     ffe:	e7e2      	b.n	fc6 <serial_writable+0x22>
    1000:	2300      	movs	r3, #0
    1002:	f881 3034 	strb.w	r3, [r1, #52]	; 0x34
    1006:	2001      	movs	r0, #1
    1008:	bd38      	pop	{r3, r4, r5, pc}
    100a:	bf00      	nop
    100c:	10000384 	.word	0x10000384
    1010:	00007ef0 	.word	0x00007ef0
    1014:	000081bc 	.word	0x000081bc

00001018 <serial_putc>:
    1018:	b538      	push	{r3, r4, r5, lr}
    101a:	4604      	mov	r4, r0
    101c:	460d      	mov	r5, r1
    101e:	4620      	mov	r0, r4
    1020:	f7ff ffc0 	bl	fa4 <serial_writable>
    1024:	2800      	cmp	r0, #0
    1026:	d0fa      	beq.n	101e <serial_putc+0x6>
    1028:	6823      	ldr	r3, [r4, #0]
    102a:	b2ed      	uxtb	r5, r5
    102c:	701d      	strb	r5, [r3, #0]
    102e:	6862      	ldr	r2, [r4, #4]
    1030:	4b05      	ldr	r3, [pc, #20]	; (1048 <serial_putc+0x30>)
    1032:	ebc2 02c2 	rsb	r2, r2, r2, lsl #3
    1036:	eb03 03c2 	add.w	r3, r3, r2, lsl #3
    103a:	f893 2034 	ldrb.w	r2, [r3, #52]	; 0x34
    103e:	3201      	adds	r2, #1
    1040:	f883 2034 	strb.w	r2, [r3, #52]	; 0x34
    1044:	bd38      	pop	{r3, r4, r5, pc}
    1046:	bf00      	nop
    1048:	10000384 	.word	0x10000384

0000104c <serial_set_flow_control>:
    104c:	e92d 4ff0 	stmdb	sp!, {r4, r5, r6, r7, r8, r9, sl, fp, lr}
    1050:	4604      	mov	r4, r0
    1052:	4d45      	ldr	r5, [pc, #276]	; (1168 <serial_set_flow_control+0x11c>)
    1054:	6800      	ldr	r0, [r0, #0]
    1056:	b083      	sub	sp, #12
    1058:	42a8      	cmp	r0, r5
    105a:	460e      	mov	r6, r1
    105c:	4690      	mov	r8, r2
    105e:	4699      	mov	r9, r3
    1060:	d043      	beq.n	10ea <serial_set_flow_control+0x9e>
    1062:	6865      	ldr	r5, [r4, #4]
    1064:	2300      	movs	r3, #0
    1066:	9301      	str	r3, [sp, #4]
    1068:	462a      	mov	r2, r5
    106a:	f8df a108 	ldr.w	sl, [pc, #264]	; 1174 <serial_set_flow_control+0x128>
    106e:	00ef      	lsls	r7, r5, #3
    1070:	ebc2 02c2 	rsb	r2, r2, r2, lsl #3
    1074:	1b78      	subs	r0, r7, r5
    1076:	f04f 0e00 	mov.w	lr, #0
    107a:	eb0a 00c0 	add.w	r0, sl, r0, lsl #3
    107e:	eb0a 0cc2 	add.w	ip, sl, r2, lsl #3
    1082:	f04f 33ff 	mov.w	r3, #4294967295
    1086:	61c3      	str	r3, [r0, #28]
    1088:	6043      	str	r3, [r0, #4]
    108a:	4671      	mov	r1, lr
    108c:	4672      	mov	r2, lr
    108e:	4620      	mov	r0, r4
    1090:	f88c e035 	strb.w	lr, [ip, #53]	; 0x35
    1094:	f7ff fcf6 	bl	a84 <serial_irq_set_internal>
    1098:	b916      	cbnz	r6, 10a0 <serial_set_flow_control+0x54>
    109a:	b003      	add	sp, #12
    109c:	e8bd 8ff0 	ldmia.w	sp!, {r4, r5, r6, r7, r8, r9, sl, fp, pc}
    10a0:	4932      	ldr	r1, [pc, #200]	; (116c <serial_set_flow_control+0x120>)
    10a2:	4640      	mov	r0, r8
    10a4:	f000 fb58 	bl	1758 <pinmap_find_peripheral>
    10a8:	4931      	ldr	r1, [pc, #196]	; (1170 <serial_set_flow_control+0x124>)
    10aa:	4683      	mov	fp, r0
    10ac:	4648      	mov	r0, r9
    10ae:	f000 fb53 	bl	1758 <pinmap_find_peripheral>
    10b2:	1eb2      	subs	r2, r6, #2
    10b4:	2a01      	cmp	r2, #1
    10b6:	d938      	bls.n	112a <serial_set_flow_control+0xde>
    10b8:	2e01      	cmp	r6, #1
    10ba:	d1ee      	bne.n	109a <serial_set_flow_control+0x4e>
    10bc:	f1b8 3fff 	cmp.w	r8, #4294967295
    10c0:	d0eb      	beq.n	109a <serial_set_flow_control+0x4e>
    10c2:	4929      	ldr	r1, [pc, #164]	; (1168 <serial_set_flow_control+0x11c>)
    10c4:	6822      	ldr	r2, [r4, #0]
    10c6:	2007      	movs	r0, #7
    10c8:	458b      	cmp	fp, r1
    10ca:	7210      	strb	r0, [r2, #8]
    10cc:	d115      	bne.n	10fa <serial_set_flow_control+0xae>
    10ce:	9b01      	ldr	r3, [sp, #4]
    10d0:	b19b      	cbz	r3, 10fa <serial_set_flow_control+0xae>
    10d2:	7c1b      	ldrb	r3, [r3, #16]
    10d4:	9a01      	ldr	r2, [sp, #4]
    10d6:	4925      	ldr	r1, [pc, #148]	; (116c <serial_set_flow_control+0x120>)
    10d8:	f043 0340 	orr.w	r3, r3, #64	; 0x40
    10dc:	4640      	mov	r0, r8
    10de:	7413      	strb	r3, [r2, #16]
    10e0:	b003      	add	sp, #12
    10e2:	e8bd 4ff0 	ldmia.w	sp!, {r4, r5, r6, r7, r8, r9, sl, fp, lr}
    10e6:	f000 bb05 	b.w	16f4 <pinmap_pinout>
    10ea:	7c03      	ldrb	r3, [r0, #16]
    10ec:	6865      	ldr	r5, [r4, #4]
    10ee:	f003 033f 	and.w	r3, r3, #63	; 0x3f
    10f2:	7403      	strb	r3, [r0, #16]
    10f4:	6862      	ldr	r2, [r4, #4]
    10f6:	9001      	str	r0, [sp, #4]
    10f8:	e7b7      	b.n	106a <serial_set_flow_control+0x1e>
    10fa:	1b7d      	subs	r5, r7, r5
    10fc:	eb0a 00c5 	add.w	r0, sl, r5, lsl #3
    1100:	4641      	mov	r1, r8
    1102:	3004      	adds	r0, #4
    1104:	2200      	movs	r2, #0
    1106:	f000 facb 	bl	16a0 <gpio_init_out_ex>
    110a:	6862      	ldr	r2, [r4, #4]
    110c:	2501      	movs	r5, #1
    110e:	ebc2 02c2 	rsb	r2, r2, r2, lsl #3
    1112:	eb0a 03c2 	add.w	r3, sl, r2, lsl #3
    1116:	4620      	mov	r0, r4
    1118:	462a      	mov	r2, r5
    111a:	2100      	movs	r1, #0
    111c:	f883 5035 	strb.w	r5, [r3, #53]	; 0x35
    1120:	b003      	add	sp, #12
    1122:	e8bd 4ff0 	ldmia.w	sp!, {r4, r5, r6, r7, r8, r9, sl, fp, lr}
    1126:	f7ff bcad 	b.w	a84 <serial_irq_set_internal>
    112a:	f1b9 3fff 	cmp.w	r9, #4294967295
    112e:	d009      	beq.n	1144 <serial_set_flow_control+0xf8>
    1130:	4a0d      	ldr	r2, [pc, #52]	; (1168 <serial_set_flow_control+0x11c>)
    1132:	4290      	cmp	r0, r2
    1134:	d00c      	beq.n	1150 <serial_set_flow_control+0x104>
    1136:	1b78      	subs	r0, r7, r5
    1138:	eb0a 00c0 	add.w	r0, sl, r0, lsl #3
    113c:	4649      	mov	r1, r9
    113e:	301c      	adds	r0, #28
    1140:	f000 fa7a 	bl	1638 <gpio_init_in>
    1144:	2e03      	cmp	r6, #3
    1146:	d1a8      	bne.n	109a <serial_set_flow_control+0x4e>
    1148:	f1b8 3fff 	cmp.w	r8, #4294967295
    114c:	d1b9      	bne.n	10c2 <serial_set_flow_control+0x76>
    114e:	e7a4      	b.n	109a <serial_set_flow_control+0x4e>
    1150:	9b01      	ldr	r3, [sp, #4]
    1152:	2b00      	cmp	r3, #0
    1154:	d0ef      	beq.n	1136 <serial_set_flow_control+0xea>
    1156:	7c1a      	ldrb	r2, [r3, #16]
    1158:	4648      	mov	r0, r9
    115a:	f042 0280 	orr.w	r2, r2, #128	; 0x80
    115e:	741a      	strb	r2, [r3, #16]
    1160:	4903      	ldr	r1, [pc, #12]	; (1170 <serial_set_flow_control+0x124>)
    1162:	f000 fac7 	bl	16f4 <pinmap_pinout>
    1166:	e7ed      	b.n	1144 <serial_set_flow_control+0xf8>
    1168:	40010000 	.word	0x40010000
    116c:	00007fc8 	.word	0x00007fc8
    1170:	000082a4 	.word	0x000082a4
    1174:	10000384 	.word	0x10000384

00001178 <serial_init>:
    1178:	e92d 47f0 	stmdb	sp!, {r4, r5, r6, r7, r8, r9, sl, lr}
    117c:	460f      	mov	r7, r1
    117e:	4605      	mov	r5, r0
    1180:	4608      	mov	r0, r1
    1182:	4961      	ldr	r1, [pc, #388]	; (1308 <serial_init+0x190>)
    1184:	4616      	mov	r6, r2
    1186:	f000 faf5 	bl	1774 <pinmap_peripheral>
    118a:	4960      	ldr	r1, [pc, #384]	; (130c <serial_init+0x194>)
    118c:	4604      	mov	r4, r0
    118e:	4630      	mov	r0, r6
    1190:	f000 faf0 	bl	1774 <pinmap_peripheral>
    1194:	4601      	mov	r1, r0
    1196:	4620      	mov	r0, r4
    1198:	f000 facc 	bl	1734 <pinmap_merge>
    119c:	1c41      	adds	r1, r0, #1
    119e:	4604      	mov	r4, r0
    11a0:	f000 80ab 	beq.w	12fa <serial_init+0x182>
    11a4:	4b5a      	ldr	r3, [pc, #360]	; (1310 <serial_init+0x198>)
    11a6:	6028      	str	r0, [r5, #0]
    11a8:	4298      	cmp	r0, r3
    11aa:	f000 8083 	beq.w	12b4 <serial_init+0x13c>
    11ae:	d953      	bls.n	1258 <serial_init+0xe0>
    11b0:	4b58      	ldr	r3, [pc, #352]	; (1314 <serial_init+0x19c>)
    11b2:	4298      	cmp	r0, r3
    11b4:	d076      	beq.n	12a4 <serial_init+0x12c>
    11b6:	f503 4380 	add.w	r3, r3, #16384	; 0x4000
    11ba:	4298      	cmp	r0, r3
    11bc:	d106      	bne.n	11cc <serial_init+0x54>
    11be:	4b56      	ldr	r3, [pc, #344]	; (1318 <serial_init+0x1a0>)
    11c0:	f8d3 20c4 	ldr.w	r2, [r3, #196]	; 0xc4
    11c4:	f042 7200 	orr.w	r2, r2, #33554432	; 0x2000000
    11c8:	f8c3 20c4 	str.w	r2, [r3, #196]	; 0xc4
    11cc:	f04f 0901 	mov.w	r9, #1
    11d0:	f884 9008 	strb.w	r9, [r4, #8]
    11d4:	682b      	ldr	r3, [r5, #0]
    11d6:	f04f 0800 	mov.w	r8, #0
    11da:	f8c3 8004 	str.w	r8, [r3, #4]
    11de:	4628      	mov	r0, r5
    11e0:	f44f 5116 	mov.w	r1, #9600	; 0x2580
    11e4:	f7ff fd4e 	bl	c84 <serial_baud>
    11e8:	4642      	mov	r2, r8
    11ea:	464b      	mov	r3, r9
    11ec:	4628      	mov	r0, r5
    11ee:	2108      	movs	r1, #8
    11f0:	f7ff fe6a 	bl	ec8 <serial_format>
    11f4:	4638      	mov	r0, r7
    11f6:	4944      	ldr	r1, [pc, #272]	; (1308 <serial_init+0x190>)
    11f8:	f000 fa7c 	bl	16f4 <pinmap_pinout>
    11fc:	4630      	mov	r0, r6
    11fe:	4943      	ldr	r1, [pc, #268]	; (130c <serial_init+0x194>)
    1200:	f000 fa78 	bl	16f4 <pinmap_pinout>
    1204:	1c7a      	adds	r2, r7, #1
    1206:	d003      	beq.n	1210 <serial_init+0x98>
    1208:	4638      	mov	r0, r7
    120a:	4641      	mov	r1, r8
    120c:	f000 fb70 	bl	18f0 <pin_mode>
    1210:	1c73      	adds	r3, r6, #1
    1212:	d003      	beq.n	121c <serial_init+0xa4>
    1214:	4630      	mov	r0, r6
    1216:	2100      	movs	r1, #0
    1218:	f000 fb6a 	bl	18f0 <pin_mode>
    121c:	4b3c      	ldr	r3, [pc, #240]	; (1310 <serial_init+0x198>)
    121e:	429c      	cmp	r4, r3
    1220:	d050      	beq.n	12c4 <serial_init+0x14c>
    1222:	d925      	bls.n	1270 <serial_init+0xf8>
    1224:	4b3b      	ldr	r3, [pc, #236]	; (1314 <serial_init+0x19c>)
    1226:	429c      	cmp	r4, r3
    1228:	d064      	beq.n	12f4 <serial_init+0x17c>
    122a:	f503 4380 	add.w	r3, r3, #16384	; 0x4000
    122e:	429c      	cmp	r4, r3
    1230:	d14b      	bne.n	12ca <serial_init+0x152>
    1232:	2303      	movs	r3, #3
    1234:	606b      	str	r3, [r5, #4]
    1236:	4939      	ldr	r1, [pc, #228]	; (131c <serial_init+0x1a4>)
    1238:	ebc3 03c3 	rsb	r3, r3, r3, lsl #3
    123c:	f04f 34ff 	mov.w	r4, #4294967295
    1240:	4628      	mov	r0, r5
    1242:	eb01 05c3 	add.w	r5, r1, r3, lsl #3
    1246:	4622      	mov	r2, r4
    1248:	4623      	mov	r3, r4
    124a:	606c      	str	r4, [r5, #4]
    124c:	61ec      	str	r4, [r5, #28]
    124e:	2100      	movs	r1, #0
    1250:	e8bd 47f0 	ldmia.w	sp!, {r4, r5, r6, r7, r8, r9, sl, lr}
    1254:	f7ff befa 	b.w	104c <serial_set_flow_control>
    1258:	f5a3 4380 	sub.w	r3, r3, #16384	; 0x4000
    125c:	4298      	cmp	r0, r3
    125e:	d1b5      	bne.n	11cc <serial_init+0x54>
    1260:	4b2d      	ldr	r3, [pc, #180]	; (1318 <serial_init+0x1a0>)
    1262:	f8d3 20c4 	ldr.w	r2, [r3, #196]	; 0xc4
    1266:	f042 0208 	orr.w	r2, r2, #8
    126a:	f8c3 20c4 	str.w	r2, [r3, #196]	; 0xc4
    126e:	e7ad      	b.n	11cc <serial_init+0x54>
    1270:	f5a3 4380 	sub.w	r3, r3, #16384	; 0x4000
    1274:	429c      	cmp	r4, r3
    1276:	d128      	bne.n	12ca <serial_init+0x152>
    1278:	4e28      	ldr	r6, [pc, #160]	; (131c <serial_init+0x1a4>)
    127a:	f04f 34ff 	mov.w	r4, #4294967295
    127e:	2100      	movs	r1, #0
    1280:	6069      	str	r1, [r5, #4]
    1282:	4622      	mov	r2, r4
    1284:	4623      	mov	r3, r4
    1286:	4628      	mov	r0, r5
    1288:	6074      	str	r4, [r6, #4]
    128a:	61f4      	str	r4, [r6, #28]
    128c:	f7ff fede 	bl	104c <serial_set_flow_control>
    1290:	4b23      	ldr	r3, [pc, #140]	; (1320 <serial_init+0x1a8>)
    1292:	2401      	movs	r4, #1
    1294:	4629      	mov	r1, r5
    1296:	601c      	str	r4, [r3, #0]
    1298:	4822      	ldr	r0, [pc, #136]	; (1324 <serial_init+0x1ac>)
    129a:	2208      	movs	r2, #8
    129c:	e8bd 47f0 	ldmia.w	sp!, {r4, r5, r6, r7, r8, r9, sl, lr}
    12a0:	f001 b8b0 	b.w	2404 <memcpy>
    12a4:	4b1c      	ldr	r3, [pc, #112]	; (1318 <serial_init+0x1a0>)
    12a6:	f8d3 20c4 	ldr.w	r2, [r3, #196]	; 0xc4
    12aa:	f042 7280 	orr.w	r2, r2, #16777216	; 0x1000000
    12ae:	f8c3 20c4 	str.w	r2, [r3, #196]	; 0xc4
    12b2:	e78b      	b.n	11cc <serial_init+0x54>
    12b4:	4b18      	ldr	r3, [pc, #96]	; (1318 <serial_init+0x1a0>)
    12b6:	f8d3 20c4 	ldr.w	r2, [r3, #196]	; 0xc4
    12ba:	f042 0210 	orr.w	r2, r2, #16
    12be:	f8c3 20c4 	str.w	r2, [r3, #196]	; 0xc4
    12c2:	e783      	b.n	11cc <serial_init+0x54>
    12c4:	2301      	movs	r3, #1
    12c6:	606b      	str	r3, [r5, #4]
    12c8:	e7b5      	b.n	1236 <serial_init+0xbe>
    12ca:	686b      	ldr	r3, [r5, #4]
    12cc:	4913      	ldr	r1, [pc, #76]	; (131c <serial_init+0x1a4>)
    12ce:	ebc3 03c3 	rsb	r3, r3, r3, lsl #3
    12d2:	f04f 36ff 	mov.w	r6, #4294967295
    12d6:	eb01 07c3 	add.w	r7, r1, r3, lsl #3
    12da:	4632      	mov	r2, r6
    12dc:	4633      	mov	r3, r6
    12de:	4628      	mov	r0, r5
    12e0:	2100      	movs	r1, #0
    12e2:	607e      	str	r6, [r7, #4]
    12e4:	61fe      	str	r6, [r7, #28]
    12e6:	f7ff feb1 	bl	104c <serial_set_flow_control>
    12ea:	4b0f      	ldr	r3, [pc, #60]	; (1328 <serial_init+0x1b0>)
    12ec:	429c      	cmp	r4, r3
    12ee:	d0cf      	beq.n	1290 <serial_init+0x118>
    12f0:	e8bd 87f0 	ldmia.w	sp!, {r4, r5, r6, r7, r8, r9, sl, pc}
    12f4:	2302      	movs	r3, #2
    12f6:	606b      	str	r3, [r5, #4]
    12f8:	e79d      	b.n	1236 <serial_init+0xbe>
    12fa:	480c      	ldr	r0, [pc, #48]	; (132c <serial_init+0x1b4>)
    12fc:	490c      	ldr	r1, [pc, #48]	; (1330 <serial_init+0x1b8>)
    12fe:	225c      	movs	r2, #92	; 0x5c
    1300:	f000 f970 	bl	15e4 <mbed_assert_internal>
    1304:	602c      	str	r4, [r5, #0]
    1306:	e761      	b.n	11cc <serial_init+0x54>
    1308:	00008238 	.word	0x00008238
    130c:	00007ffc 	.word	0x00007ffc
    1310:	40010000 	.word	0x40010000
    1314:	40098000 	.word	0x40098000
    1318:	400fc000 	.word	0x400fc000
    131c:	10000384 	.word	0x10000384
    1320:	1000037c 	.word	0x1000037c
    1324:	1000047c 	.word	0x1000047c
    1328:	4000c000 	.word	0x4000c000
    132c:	00008228 	.word	0x00008228
    1330:	00008084 	.word	0x00008084

00001334 <_ZN4mbed8FilePathC1EPKc>:
    1334:	b538      	push	{r3, r4, r5, lr}
    1336:	2300      	movs	r3, #0
    1338:	6003      	str	r3, [r0, #0]
    133a:	6043      	str	r3, [r0, #4]
    133c:	780a      	ldrb	r2, [r1, #0]
    133e:	4604      	mov	r4, r0
    1340:	2a2f      	cmp	r2, #47	; 0x2f
    1342:	d001      	beq.n	1348 <_ZN4mbed8FilePathC1EPKc+0x14>
    1344:	4620      	mov	r0, r4
    1346:	bd38      	pop	{r3, r4, r5, pc}
    1348:	784a      	ldrb	r2, [r1, #1]
    134a:	2a00      	cmp	r2, #0
    134c:	d0fa      	beq.n	1344 <_ZN4mbed8FilePathC1EPKc+0x10>
    134e:	1c48      	adds	r0, r1, #1
    1350:	6020      	str	r0, [r4, #0]
    1352:	784a      	ldrb	r2, [r1, #1]
    1354:	2a2f      	cmp	r2, #47	; 0x2f
    1356:	d014      	beq.n	1382 <_ZN4mbed8FilePathC1EPKc+0x4e>
    1358:	b1b2      	cbz	r2, 1388 <_ZN4mbed8FilePathC1EPKc+0x54>
    135a:	1c8d      	adds	r5, r1, #2
    135c:	4619      	mov	r1, r3
    135e:	e000      	b.n	1362 <_ZN4mbed8FilePathC1EPKc+0x2e>
    1360:	b152      	cbz	r2, 1378 <_ZN4mbed8FilePathC1EPKc+0x44>
    1362:	6025      	str	r5, [r4, #0]
    1364:	782a      	ldrb	r2, [r5, #0]
    1366:	462b      	mov	r3, r5
    1368:	2a2f      	cmp	r2, #47	; 0x2f
    136a:	f101 0101 	add.w	r1, r1, #1
    136e:	f105 0501 	add.w	r5, r5, #1
    1372:	d1f5      	bne.n	1360 <_ZN4mbed8FilePathC1EPKc+0x2c>
    1374:	3301      	adds	r3, #1
    1376:	6023      	str	r3, [r4, #0]
    1378:	f000 fb9a 	bl	1ab0 <_ZN4mbed8FileBase6lookupEPKcj>
    137c:	6060      	str	r0, [r4, #4]
    137e:	4620      	mov	r0, r4
    1380:	bd38      	pop	{r3, r4, r5, pc}
    1382:	4619      	mov	r1, r3
    1384:	4603      	mov	r3, r0
    1386:	e7f5      	b.n	1374 <_ZN4mbed8FilePathC1EPKc+0x40>
    1388:	4611      	mov	r1, r2
    138a:	e7f5      	b.n	1378 <_ZN4mbed8FilePathC1EPKc+0x44>

0000138c <_ZN4mbed8FilePath8fileNameEv>:
    138c:	6800      	ldr	r0, [r0, #0]
    138e:	4770      	bx	lr

00001390 <_ZN4mbed8FilePath10fileSystemEv>:
    1390:	b510      	push	{r4, lr}
    1392:	4604      	mov	r4, r0
    1394:	6840      	ldr	r0, [r0, #4]
    1396:	b128      	cbz	r0, 13a4 <_ZN4mbed8FilePath10fileSystemEv+0x14>
    1398:	f000 fba8 	bl	1aec <_ZN4mbed8FileBase11getPathTypeEv>
    139c:	2801      	cmp	r0, #1
    139e:	d101      	bne.n	13a4 <_ZN4mbed8FilePath10fileSystemEv+0x14>
    13a0:	6860      	ldr	r0, [r4, #4]
    13a2:	bd10      	pop	{r4, pc}
    13a4:	2000      	movs	r0, #0
    13a6:	bd10      	pop	{r4, pc}

000013a8 <_ZN4mbed8FilePath6isFileEv>:
    13a8:	6840      	ldr	r0, [r0, #4]
    13aa:	b508      	push	{r3, lr}
    13ac:	b128      	cbz	r0, 13ba <_ZN4mbed8FilePath6isFileEv+0x12>
    13ae:	f000 fb9d 	bl	1aec <_ZN4mbed8FileBase11getPathTypeEv>
    13b2:	f1d0 0001 	rsbs	r0, r0, #1
    13b6:	bf38      	it	cc
    13b8:	2000      	movcc	r0, #0
    13ba:	bd08      	pop	{r3, pc}

000013bc <_ZN4mbed8FilePath4fileEv>:
    13bc:	b510      	push	{r4, lr}
    13be:	4604      	mov	r4, r0
    13c0:	6840      	ldr	r0, [r0, #4]
    13c2:	b130      	cbz	r0, 13d2 <_ZN4mbed8FilePath4fileEv+0x16>
    13c4:	f000 fb92 	bl	1aec <_ZN4mbed8FileBase11getPathTypeEv>
    13c8:	b918      	cbnz	r0, 13d2 <_ZN4mbed8FilePath4fileEv+0x16>
    13ca:	6860      	ldr	r0, [r4, #4]
    13cc:	b108      	cbz	r0, 13d2 <_ZN4mbed8FilePath4fileEv+0x16>
    13ce:	3804      	subs	r0, #4
    13d0:	bd10      	pop	{r4, pc}
    13d2:	2000      	movs	r0, #0
    13d4:	bd10      	pop	{r4, pc}
    13d6:	bf00      	nop

000013d8 <_ZN4mbed8FilePath6existsEv>:
    13d8:	6840      	ldr	r0, [r0, #4]
    13da:	3000      	adds	r0, #0
    13dc:	bf18      	it	ne
    13de:	2001      	movne	r0, #1
    13e0:	4770      	bx	lr
    13e2:	bf00      	nop

000013e4 <_ZN4mbed10SerialBase12_irq_handlerEm9SerialIrq>:
    13e4:	ebc1 01c1 	rsb	r1, r1, r1, lsl #3
    13e8:	eb00 0081 	add.w	r0, r0, r1, lsl #2
    13ec:	300c      	adds	r0, #12
    13ee:	f000 bbc9 	b.w	1b84 <_ZN4mbed15FunctionPointer4callEv>
    13f2:	bf00      	nop

000013f4 <_ZN4mbed10SerialBaseC1E7PinNameS1_>:
    13f4:	b5f8      	push	{r3, r4, r5, r6, r7, lr}
    13f6:	4b10      	ldr	r3, [pc, #64]	; (1438 <_ZN4mbed10SerialBaseC1E7PinNameS1_+0x44>)
    13f8:	2500      	movs	r5, #0
    13fa:	4604      	mov	r4, r0
    13fc:	e880 0028 	stmia.w	r0, {r3, r5}
    1400:	460e      	mov	r6, r1
    1402:	6085      	str	r5, [r0, #8]
    1404:	4629      	mov	r1, r5
    1406:	300c      	adds	r0, #12
    1408:	4617      	mov	r7, r2
    140a:	f000 fbb5 	bl	1b78 <_ZN4mbed15FunctionPointerC1EPFvvE>
    140e:	4629      	mov	r1, r5
    1410:	f104 0028 	add.w	r0, r4, #40	; 0x28
    1414:	f000 fbb0 	bl	1b78 <_ZN4mbed15FunctionPointerC1EPFvvE>
    1418:	1d25      	adds	r5, r4, #4
    141a:	f44f 5316 	mov.w	r3, #9600	; 0x2580
    141e:	4631      	mov	r1, r6
    1420:	463a      	mov	r2, r7
    1422:	6463      	str	r3, [r4, #68]	; 0x44
    1424:	4628      	mov	r0, r5
    1426:	f7ff fea7 	bl	1178 <serial_init>
    142a:	4628      	mov	r0, r5
    142c:	4622      	mov	r2, r4
    142e:	4903      	ldr	r1, [pc, #12]	; (143c <_ZN4mbed10SerialBaseC1E7PinNameS1_+0x48>)
    1430:	f7ff fd86 	bl	f40 <serial_irq_handler>
    1434:	4620      	mov	r0, r4
    1436:	bdf8      	pop	{r3, r4, r5, r6, r7, pc}
    1438:	000082d0 	.word	0x000082d0
    143c:	000013e5 	.word	0x000013e5

00001440 <_ZN4mbed10SerialBase4baudEi>:
    1440:	b538      	push	{r3, r4, r5, lr}
    1442:	4604      	mov	r4, r0
    1444:	460d      	mov	r5, r1
    1446:	3004      	adds	r0, #4
    1448:	f7ff fc1c 	bl	c84 <serial_baud>
    144c:	6465      	str	r5, [r4, #68]	; 0x44
    144e:	bd38      	pop	{r3, r4, r5, pc}

00001450 <_ZN4mbed10SerialBase8readableEv>:
    1450:	3004      	adds	r0, #4
    1452:	f7ff bda1 	b.w	f98 <serial_readable>
    1456:	bf00      	nop

00001458 <_ZN4mbed10SerialBase10_base_getcEv>:
    1458:	3004      	adds	r0, #4
    145a:	f7ff bd81 	b.w	f60 <serial_getc>
    145e:	bf00      	nop

00001460 <_ZN4mbed10SerialBase10_base_putcEi>:
    1460:	b510      	push	{r4, lr}
    1462:	3004      	adds	r0, #4
    1464:	460c      	mov	r4, r1
    1466:	f7ff fdd7 	bl	1018 <serial_putc>
    146a:	4620      	mov	r0, r4
    146c:	bd10      	pop	{r4, pc}
    146e:	bf00      	nop

00001470 <_ZN4mbed6Stream5closeEv>:
    1470:	2000      	movs	r0, #0
    1472:	4770      	bx	lr

00001474 <_ZN4mbed6Stream5writeEPKvj>:
    1474:	b5f8      	push	{r3, r4, r5, r6, r7, lr}
    1476:	188e      	adds	r6, r1, r2
    1478:	42b1      	cmp	r1, r6
    147a:	460f      	mov	r7, r1
    147c:	4605      	mov	r5, r0
    147e:	d00f      	beq.n	14a0 <_ZN4mbed6Stream5writeEPKvj+0x2c>
    1480:	460c      	mov	r4, r1
    1482:	e001      	b.n	1488 <_ZN4mbed6Stream5writeEPKvj+0x14>
    1484:	42a6      	cmp	r6, r4
    1486:	d009      	beq.n	149c <_ZN4mbed6Stream5writeEPKvj+0x28>
    1488:	682b      	ldr	r3, [r5, #0]
    148a:	4628      	mov	r0, r5
    148c:	6a5b      	ldr	r3, [r3, #36]	; 0x24
    148e:	f814 1b01 	ldrb.w	r1, [r4], #1
    1492:	4798      	blx	r3
    1494:	3001      	adds	r0, #1
    1496:	d1f5      	bne.n	1484 <_ZN4mbed6Stream5writeEPKvj+0x10>
    1498:	1be0      	subs	r0, r4, r7
    149a:	bdf8      	pop	{r3, r4, r5, r6, r7, pc}
    149c:	1bf0      	subs	r0, r6, r7
    149e:	bdf8      	pop	{r3, r4, r5, r6, r7, pc}
    14a0:	2000      	movs	r0, #0
    14a2:	bdf8      	pop	{r3, r4, r5, r6, r7, pc}

000014a4 <_ZN4mbed6Stream4readEPvj>:
    14a4:	b5f8      	push	{r3, r4, r5, r6, r7, lr}
    14a6:	188e      	adds	r6, r1, r2
    14a8:	42b1      	cmp	r1, r6
    14aa:	460f      	mov	r7, r1
    14ac:	4605      	mov	r5, r0
    14ae:	d00f      	beq.n	14d0 <_ZN4mbed6Stream4readEPvj+0x2c>
    14b0:	460c      	mov	r4, r1
    14b2:	e003      	b.n	14bc <_ZN4mbed6Stream4readEPvj+0x18>
    14b4:	f804 0b01 	strb.w	r0, [r4], #1
    14b8:	42a6      	cmp	r6, r4
    14ba:	d007      	beq.n	14cc <_ZN4mbed6Stream4readEPvj+0x28>
    14bc:	682b      	ldr	r3, [r5, #0]
    14be:	4628      	mov	r0, r5
    14c0:	6a9b      	ldr	r3, [r3, #40]	; 0x28
    14c2:	4798      	blx	r3
    14c4:	1c43      	adds	r3, r0, #1
    14c6:	d1f5      	bne.n	14b4 <_ZN4mbed6Stream4readEPvj+0x10>
    14c8:	1be0      	subs	r0, r4, r7
    14ca:	bdf8      	pop	{r3, r4, r5, r6, r7, pc}
    14cc:	1bf0      	subs	r0, r6, r7
    14ce:	bdf8      	pop	{r3, r4, r5, r6, r7, pc}
    14d0:	2000      	movs	r0, #0
    14d2:	bdf8      	pop	{r3, r4, r5, r6, r7, pc}

000014d4 <_ZN4mbed6Stream5lseekEli>:
    14d4:	2000      	movs	r0, #0
    14d6:	4770      	bx	lr

000014d8 <_ZN4mbed6Stream6isattyEv>:
    14d8:	2000      	movs	r0, #0
    14da:	4770      	bx	lr

000014dc <_ZN4mbed6Stream5fsyncEv>:
    14dc:	2000      	movs	r0, #0
    14de:	4770      	bx	lr

000014e0 <_ZN4mbed6Stream4flenEv>:
    14e0:	2000      	movs	r0, #0
    14e2:	4770      	bx	lr

000014e4 <_ZN4mbed6StreamD1Ev>:
    14e4:	b510      	push	{r4, lr}
    14e6:	4b07      	ldr	r3, [pc, #28]	; (1504 <_ZN4mbed6StreamD1Ev+0x20>)
    14e8:	4604      	mov	r4, r0
    14ea:	f103 0208 	add.w	r2, r3, #8
    14ee:	333c      	adds	r3, #60	; 0x3c
    14f0:	e880 000c 	stmia.w	r0, {r2, r3}
    14f4:	6940      	ldr	r0, [r0, #20]
    14f6:	f000 fbfb 	bl	1cf0 <fclose>
    14fa:	4620      	mov	r0, r4
    14fc:	f000 faf8 	bl	1af0 <_ZN4mbed8FileLikeD1Ev>
    1500:	4620      	mov	r0, r4
    1502:	bd10      	pop	{r4, pc}
    1504:	000082d8 	.word	0x000082d8

00001508 <_ZThn4_N4mbed6StreamD1Ev>:
    1508:	f1a0 0004 	sub.w	r0, r0, #4
    150c:	f7ff bfea 	b.w	14e4 <_ZN4mbed6StreamD1Ev>

00001510 <_ZN4mbed6StreamD0Ev>:
    1510:	b510      	push	{r4, lr}
    1512:	4604      	mov	r4, r0
    1514:	f7ff ffe6 	bl	14e4 <_ZN4mbed6StreamD1Ev>
    1518:	4620      	mov	r0, r4
    151a:	f000 fb63 	bl	1be4 <_ZdlPv>
    151e:	4620      	mov	r0, r4
    1520:	bd10      	pop	{r4, pc}
    1522:	bf00      	nop

00001524 <_ZThn4_N4mbed6StreamD0Ev>:
    1524:	f1a0 0004 	sub.w	r0, r0, #4
    1528:	f7ff bff2 	b.w	1510 <_ZN4mbed6StreamD0Ev>

0000152c <_ZN4mbed6StreamC1EPKc>:
    152c:	b510      	push	{r4, lr}
    152e:	b084      	sub	sp, #16
    1530:	4604      	mov	r4, r0
    1532:	f000 fb0d 	bl	1b50 <_ZN4mbed8FileLikeC1EPKc>
    1536:	4b0b      	ldr	r3, [pc, #44]	; (1564 <_ZN4mbed6StreamC1EPKc+0x38>)
    1538:	2200      	movs	r2, #0
    153a:	f103 0108 	add.w	r1, r3, #8
    153e:	333c      	adds	r3, #60	; 0x3c
    1540:	e884 000a 	stmia.w	r4, {r1, r3}
    1544:	6162      	str	r2, [r4, #20]
    1546:	a801      	add	r0, sp, #4
    1548:	4622      	mov	r2, r4
    154a:	4907      	ldr	r1, [pc, #28]	; (1568 <_ZN4mbed6StreamC1EPKc+0x3c>)
    154c:	f002 fce4 	bl	3f18 <siprintf>
    1550:	4906      	ldr	r1, [pc, #24]	; (156c <_ZN4mbed6StreamC1EPKc+0x40>)
    1552:	a801      	add	r0, sp, #4
    1554:	f000 fdb4 	bl	20c0 <fopen>
    1558:	6160      	str	r0, [r4, #20]
    155a:	f7ff fa39 	bl	9d0 <_ZN4mbed26mbed_set_unbuffered_streamEP7__sFILE>
    155e:	4620      	mov	r0, r4
    1560:	b004      	add	sp, #16
    1562:	bd10      	pop	{r4, pc}
    1564:	000082d8 	.word	0x000082d8
    1568:	00007fb8 	.word	0x00007fb8
    156c:	00008320 	.word	0x00008320

00001570 <_ZN4mbed6Stream4putcEi>:
    1570:	b538      	push	{r3, r4, r5, lr}
    1572:	460d      	mov	r5, r1
    1574:	4604      	mov	r4, r0
    1576:	6940      	ldr	r0, [r0, #20]
    1578:	f000 fc70 	bl	1e5c <fflush>
    157c:	4628      	mov	r0, r5
    157e:	6961      	ldr	r1, [r4, #20]
    1580:	e8bd 4038 	ldmia.w	sp!, {r3, r4, r5, lr}
    1584:	f000 bddc 	b.w	2140 <fputc>

00001588 <_ZN4mbed6Stream4getcEv>:
    1588:	b510      	push	{r4, lr}
    158a:	4604      	mov	r4, r0
    158c:	6940      	ldr	r0, [r0, #20]
    158e:	f000 fc65 	bl	1e5c <fflush>
    1592:	6960      	ldr	r0, [r4, #20]
    1594:	e8bd 4010 	ldmia.w	sp!, {r4, lr}
    1598:	f7ff ba1e 	b.w	9d8 <_ZN4mbed9mbed_getcEP7__sFILE>

0000159c <_ZN4mbed6Serial5_getcEv>:
    159c:	f7ff bf5c 	b.w	1458 <_ZN4mbed10SerialBase10_base_getcEv>

000015a0 <_ZThn72_N4mbed6Serial5_getcEv>:
    15a0:	f1a0 0048 	sub.w	r0, r0, #72	; 0x48
    15a4:	f7ff bffa 	b.w	159c <_ZN4mbed6Serial5_getcEv>

000015a8 <_ZN4mbed6Serial5_putcEi>:
    15a8:	f7ff bf5a 	b.w	1460 <_ZN4mbed10SerialBase10_base_putcEi>

000015ac <_ZThn72_N4mbed6Serial5_putcEi>:
    15ac:	f1a0 0048 	sub.w	r0, r0, #72	; 0x48
    15b0:	f7ff bffa 	b.w	15a8 <_ZN4mbed6Serial5_putcEi>

000015b4 <_ZN4mbed6SerialC1E7PinNameS1_PKc>:
    15b4:	b538      	push	{r3, r4, r5, lr}
    15b6:	4604      	mov	r4, r0
    15b8:	461d      	mov	r5, r3
    15ba:	f7ff ff1b 	bl	13f4 <_ZN4mbed10SerialBaseC1E7PinNameS1_>
    15be:	4629      	mov	r1, r5
    15c0:	f104 0048 	add.w	r0, r4, #72	; 0x48
    15c4:	f7ff ffb2 	bl	152c <_ZN4mbed6StreamC1EPKc>
    15c8:	4b05      	ldr	r3, [pc, #20]	; (15e0 <_ZN4mbed6SerialC1E7PinNameS1_PKc+0x2c>)
    15ca:	4620      	mov	r0, r4
    15cc:	f103 0108 	add.w	r1, r3, #8
    15d0:	f103 0220 	add.w	r2, r3, #32
    15d4:	3354      	adds	r3, #84	; 0x54
    15d6:	6021      	str	r1, [r4, #0]
    15d8:	64a2      	str	r2, [r4, #72]	; 0x48
    15da:	64e3      	str	r3, [r4, #76]	; 0x4c
    15dc:	bd38      	pop	{r3, r4, r5, pc}
    15de:	bf00      	nop
    15e0:	00008328 	.word	0x00008328

000015e4 <mbed_assert_internal>:
    15e4:	b510      	push	{r4, lr}
    15e6:	4b08      	ldr	r3, [pc, #32]	; (1608 <mbed_assert_internal+0x24>)
    15e8:	4604      	mov	r4, r0
    15ea:	6818      	ldr	r0, [r3, #0]
    15ec:	b082      	sub	sp, #8
    15ee:	460b      	mov	r3, r1
    15f0:	68c0      	ldr	r0, [r0, #12]
    15f2:	4906      	ldr	r1, [pc, #24]	; (160c <mbed_assert_internal+0x28>)
    15f4:	9200      	str	r2, [sp, #0]
    15f6:	4622      	mov	r2, r4
    15f8:	f000 fd6c 	bl	20d4 <fiprintf>
    15fc:	b002      	add	sp, #8
    15fe:	e8bd 4010 	ldmia.w	sp!, {r4, lr}
    1602:	f7fe bfb3 	b.w	56c <mbed_die>
    1606:	bf00      	nop
    1608:	10000134 	.word	0x10000134
    160c:	00008388 	.word	0x00008388

00001610 <error>:
    1610:	b40f      	push	{r0, r1, r2, r3}
    1612:	b500      	push	{lr}
    1614:	4a06      	ldr	r2, [pc, #24]	; (1630 <error+0x20>)
    1616:	b083      	sub	sp, #12
    1618:	ab04      	add	r3, sp, #16
    161a:	6812      	ldr	r2, [r2, #0]
    161c:	f853 1b04 	ldr.w	r1, [r3], #4
    1620:	68d0      	ldr	r0, [r2, #12]
    1622:	461a      	mov	r2, r3
    1624:	9301      	str	r3, [sp, #4]
    1626:	f001 f8cb 	bl	27c0 <vfiprintf>
    162a:	2001      	movs	r0, #1
    162c:	f000 fafa 	bl	1c24 <exit>
    1630:	10000134 	.word	0x10000134

00001634 <mbed_interface_connected>:
    1634:	f000 b8c4 	b.w	17c0 <semihost_connected>

00001638 <gpio_init_in>:
    1638:	b538      	push	{r3, r4, r5, lr}
    163a:	460d      	mov	r5, r1
    163c:	4604      	mov	r4, r0
    163e:	f000 f8f1 	bl	1824 <gpio_init>
    1642:	3501      	adds	r5, #1
    1644:	d009      	beq.n	165a <gpio_init_in+0x22>
    1646:	4620      	mov	r0, r4
    1648:	2100      	movs	r1, #0
    164a:	f000 f907 	bl	185c <gpio_dir>
    164e:	4620      	mov	r0, r4
    1650:	2103      	movs	r1, #3
    1652:	e8bd 4038 	ldmia.w	sp!, {r3, r4, r5, lr}
    1656:	f000 b8fd 	b.w	1854 <gpio_mode>
    165a:	bd38      	pop	{r3, r4, r5, pc}

0000165c <gpio_init_out>:
    165c:	b538      	push	{r3, r4, r5, lr}
    165e:	460d      	mov	r5, r1
    1660:	4604      	mov	r4, r0
    1662:	f000 f8df 	bl	1824 <gpio_init>
    1666:	3501      	adds	r5, #1
    1668:	d00f      	beq.n	168a <gpio_init_out+0x2e>
    166a:	6823      	ldr	r3, [r4, #0]
    166c:	3301      	adds	r3, #1
    166e:	d00d      	beq.n	168c <gpio_init_out+0x30>
    1670:	6923      	ldr	r3, [r4, #16]
    1672:	6862      	ldr	r2, [r4, #4]
    1674:	4620      	mov	r0, r4
    1676:	601a      	str	r2, [r3, #0]
    1678:	2101      	movs	r1, #1
    167a:	f000 f8ef 	bl	185c <gpio_dir>
    167e:	4620      	mov	r0, r4
    1680:	2102      	movs	r1, #2
    1682:	e8bd 4038 	ldmia.w	sp!, {r3, r4, r5, lr}
    1686:	f000 b8e5 	b.w	1854 <gpio_mode>
    168a:	bd38      	pop	{r3, r4, r5, pc}
    168c:	4802      	ldr	r0, [pc, #8]	; (1698 <gpio_init_out+0x3c>)
    168e:	4903      	ldr	r1, [pc, #12]	; (169c <gpio_init_out+0x40>)
    1690:	2224      	movs	r2, #36	; 0x24
    1692:	f7ff ffa7 	bl	15e4 <mbed_assert_internal>
    1696:	e7eb      	b.n	1670 <gpio_init_out+0x14>
    1698:	00007ef0 	.word	0x00007ef0
    169c:	00007f08 	.word	0x00007f08

000016a0 <gpio_init_out_ex>:
    16a0:	b570      	push	{r4, r5, r6, lr}
    16a2:	460d      	mov	r5, r1
    16a4:	4616      	mov	r6, r2
    16a6:	4604      	mov	r4, r0
    16a8:	f000 f8bc 	bl	1824 <gpio_init>
    16ac:	3501      	adds	r5, #1
    16ae:	d014      	beq.n	16da <gpio_init_out_ex+0x3a>
    16b0:	6823      	ldr	r3, [r4, #0]
    16b2:	3301      	adds	r3, #1
    16b4:	d012      	beq.n	16dc <gpio_init_out_ex+0x3c>
    16b6:	b966      	cbnz	r6, 16d2 <gpio_init_out_ex+0x32>
    16b8:	6923      	ldr	r3, [r4, #16]
    16ba:	6862      	ldr	r2, [r4, #4]
    16bc:	601a      	str	r2, [r3, #0]
    16be:	4620      	mov	r0, r4
    16c0:	2101      	movs	r1, #1
    16c2:	f000 f8cb 	bl	185c <gpio_dir>
    16c6:	4620      	mov	r0, r4
    16c8:	2102      	movs	r1, #2
    16ca:	e8bd 4070 	ldmia.w	sp!, {r4, r5, r6, lr}
    16ce:	f000 b8c1 	b.w	1854 <gpio_mode>
    16d2:	68e3      	ldr	r3, [r4, #12]
    16d4:	6862      	ldr	r2, [r4, #4]
    16d6:	601a      	str	r2, [r3, #0]
    16d8:	e7f1      	b.n	16be <gpio_init_out_ex+0x1e>
    16da:	bd70      	pop	{r4, r5, r6, pc}
    16dc:	4803      	ldr	r0, [pc, #12]	; (16ec <gpio_init_out_ex+0x4c>)
    16de:	4904      	ldr	r1, [pc, #16]	; (16f0 <gpio_init_out_ex+0x50>)
    16e0:	2224      	movs	r2, #36	; 0x24
    16e2:	f7ff ff7f 	bl	15e4 <mbed_assert_internal>
    16e6:	2e00      	cmp	r6, #0
    16e8:	d0e6      	beq.n	16b8 <gpio_init_out_ex+0x18>
    16ea:	e7f2      	b.n	16d2 <gpio_init_out_ex+0x32>
    16ec:	00007ef0 	.word	0x00007ef0
    16f0:	00007f08 	.word	0x00007f08

000016f4 <pinmap_pinout>:
    16f4:	1c43      	adds	r3, r0, #1
    16f6:	b510      	push	{r4, lr}
    16f8:	4604      	mov	r4, r0
    16fa:	d018      	beq.n	172e <pinmap_pinout+0x3a>
    16fc:	680b      	ldr	r3, [r1, #0]
    16fe:	1c58      	adds	r0, r3, #1
    1700:	d104      	bne.n	170c <pinmap_pinout+0x18>
    1702:	e00f      	b.n	1724 <pinmap_pinout+0x30>
    1704:	f851 3f0c 	ldr.w	r3, [r1, #12]!
    1708:	1c5a      	adds	r2, r3, #1
    170a:	d00b      	beq.n	1724 <pinmap_pinout+0x30>
    170c:	429c      	cmp	r4, r3
    170e:	d1f9      	bne.n	1704 <pinmap_pinout+0x10>
    1710:	4620      	mov	r0, r4
    1712:	6889      	ldr	r1, [r1, #8]
    1714:	f000 f8c4 	bl	18a0 <pin_function>
    1718:	4620      	mov	r0, r4
    171a:	2102      	movs	r1, #2
    171c:	e8bd 4010 	ldmia.w	sp!, {r4, lr}
    1720:	f000 b8e6 	b.w	18f0 <pin_mode>
    1724:	4802      	ldr	r0, [pc, #8]	; (1730 <pinmap_pinout+0x3c>)
    1726:	e8bd 4010 	ldmia.w	sp!, {r4, lr}
    172a:	f7ff bf71 	b.w	1610 <error>
    172e:	bd10      	pop	{r4, pc}
    1730:	000083bc 	.word	0x000083bc

00001734 <pinmap_merge>:
    1734:	4288      	cmp	r0, r1
    1736:	b508      	push	{r3, lr}
    1738:	d00a      	beq.n	1750 <pinmap_merge+0x1c>
    173a:	1c43      	adds	r3, r0, #1
    173c:	d007      	beq.n	174e <pinmap_merge+0x1a>
    173e:	3101      	adds	r1, #1
    1740:	d006      	beq.n	1750 <pinmap_merge+0x1c>
    1742:	4804      	ldr	r0, [pc, #16]	; (1754 <pinmap_merge+0x20>)
    1744:	f7ff ff64 	bl	1610 <error>
    1748:	f04f 30ff 	mov.w	r0, #4294967295
    174c:	bd08      	pop	{r3, pc}
    174e:	4608      	mov	r0, r1
    1750:	bd08      	pop	{r3, pc}
    1752:	bf00      	nop
    1754:	000083d0 	.word	0x000083d0

00001758 <pinmap_find_peripheral>:
    1758:	680b      	ldr	r3, [r1, #0]
    175a:	1c5a      	adds	r2, r3, #1
    175c:	d104      	bne.n	1768 <pinmap_find_peripheral+0x10>
    175e:	e007      	b.n	1770 <pinmap_find_peripheral+0x18>
    1760:	f851 3f0c 	ldr.w	r3, [r1, #12]!
    1764:	1c5a      	adds	r2, r3, #1
    1766:	d003      	beq.n	1770 <pinmap_find_peripheral+0x18>
    1768:	4283      	cmp	r3, r0
    176a:	d1f9      	bne.n	1760 <pinmap_find_peripheral+0x8>
    176c:	6848      	ldr	r0, [r1, #4]
    176e:	4770      	bx	lr
    1770:	4618      	mov	r0, r3
    1772:	4770      	bx	lr

00001774 <pinmap_peripheral>:
    1774:	b508      	push	{r3, lr}
    1776:	1c43      	adds	r3, r0, #1
    1778:	d00c      	beq.n	1794 <pinmap_peripheral+0x20>
    177a:	680b      	ldr	r3, [r1, #0]
    177c:	1c5a      	adds	r2, r3, #1
    177e:	d104      	bne.n	178a <pinmap_peripheral+0x16>
    1780:	e009      	b.n	1796 <pinmap_peripheral+0x22>
    1782:	f851 3f0c 	ldr.w	r3, [r1, #12]!
    1786:	1c5a      	adds	r2, r3, #1
    1788:	d005      	beq.n	1796 <pinmap_peripheral+0x22>
    178a:	4298      	cmp	r0, r3
    178c:	d1f9      	bne.n	1782 <pinmap_peripheral+0xe>
    178e:	6848      	ldr	r0, [r1, #4]
    1790:	1c41      	adds	r1, r0, #1
    1792:	d000      	beq.n	1796 <pinmap_peripheral+0x22>
    1794:	bd08      	pop	{r3, pc}
    1796:	4803      	ldr	r0, [pc, #12]	; (17a4 <pinmap_peripheral+0x30>)
    1798:	f7ff ff3a 	bl	1610 <error>
    179c:	f04f 30ff 	mov.w	r0, #4294967295
    17a0:	e7f8      	b.n	1794 <pinmap_peripheral+0x20>
    17a2:	bf00      	nop
    17a4:	000083e4 	.word	0x000083e4

000017a8 <semihost_exit>:
    17a8:	b530      	push	{r4, r5, lr}
    17aa:	b085      	sub	sp, #20
    17ac:	2418      	movs	r4, #24
    17ae:	466d      	mov	r5, sp
    17b0:	4620      	mov	r0, r4
    17b2:	4629      	mov	r1, r5
    17b4:	beab      	bkpt	0x00ab
    17b6:	4604      	mov	r4, r0
    17b8:	4620      	mov	r0, r4
    17ba:	b005      	add	sp, #20
    17bc:	bd30      	pop	{r4, r5, pc}
    17be:	bf00      	nop

000017c0 <semihost_connected>:
    17c0:	4b02      	ldr	r3, [pc, #8]	; (17cc <semihost_connected+0xc>)
    17c2:	6818      	ldr	r0, [r3, #0]
    17c4:	f000 0001 	and.w	r0, r0, #1
    17c8:	4770      	bx	lr
    17ca:	bf00      	nop
    17cc:	e000edf0 	.word	0xe000edf0

000017d0 <wait_us>:
    17d0:	b538      	push	{r3, r4, r5, lr}
    17d2:	4605      	mov	r5, r0
    17d4:	f000 f8fc 	bl	19d0 <us_ticker_read>
    17d8:	4604      	mov	r4, r0
    17da:	f000 f8f9 	bl	19d0 <us_ticker_read>
    17de:	1b00      	subs	r0, r0, r4
    17e0:	42a8      	cmp	r0, r5
    17e2:	d3fa      	bcc.n	17da <wait_us+0xa>
    17e4:	bd38      	pop	{r3, r4, r5, pc}
    17e6:	bf00      	nop

000017e8 <wait_ms>:
    17e8:	f44f 737a 	mov.w	r3, #1000	; 0x3e8
    17ec:	fb03 f000 	mul.w	r0, r3, r0
    17f0:	f7ff bfee 	b.w	17d0 <wait_us>

000017f4 <gpio_set>:
    17f4:	1c43      	adds	r3, r0, #1
    17f6:	b510      	push	{r4, lr}
    17f8:	4604      	mov	r4, r0
    17fa:	d008      	beq.n	180e <gpio_set+0x1a>
    17fc:	4620      	mov	r0, r4
    17fe:	2100      	movs	r1, #0
    1800:	f000 f84e 	bl	18a0 <pin_function>
    1804:	f004 041f 	and.w	r4, r4, #31
    1808:	2001      	movs	r0, #1
    180a:	40a0      	lsls	r0, r4
    180c:	bd10      	pop	{r4, pc}
    180e:	4803      	ldr	r0, [pc, #12]	; (181c <gpio_set+0x28>)
    1810:	4903      	ldr	r1, [pc, #12]	; (1820 <gpio_set+0x2c>)
    1812:	2215      	movs	r2, #21
    1814:	f7ff fee6 	bl	15e4 <mbed_assert_internal>
    1818:	e7f0      	b.n	17fc <gpio_set+0x8>
    181a:	bf00      	nop
    181c:	00008424 	.word	0x00008424
    1820:	00008438 	.word	0x00008438

00001824 <gpio_init>:
    1824:	b538      	push	{r3, r4, r5, lr}
    1826:	4604      	mov	r4, r0
    1828:	1c4b      	adds	r3, r1, #1
    182a:	460d      	mov	r5, r1
    182c:	6021      	str	r1, [r4, #0]
    182e:	d00f      	beq.n	1850 <gpio_init+0x2c>
    1830:	4608      	mov	r0, r1
    1832:	f7ff ffdf 	bl	17f4 <gpio_set>
    1836:	f025 051f 	bic.w	r5, r5, #31
    183a:	f105 0118 	add.w	r1, r5, #24
    183e:	f105 021c 	add.w	r2, r5, #28
    1842:	f105 0314 	add.w	r3, r5, #20
    1846:	6060      	str	r0, [r4, #4]
    1848:	60a5      	str	r5, [r4, #8]
    184a:	60e1      	str	r1, [r4, #12]
    184c:	6122      	str	r2, [r4, #16]
    184e:	6163      	str	r3, [r4, #20]
    1850:	bd38      	pop	{r3, r4, r5, pc}
    1852:	bf00      	nop

00001854 <gpio_mode>:
    1854:	6800      	ldr	r0, [r0, #0]
    1856:	f000 b84b 	b.w	18f0 <pin_mode>
    185a:	bf00      	nop

0000185c <gpio_dir>:
    185c:	b538      	push	{r3, r4, r5, lr}
    185e:	6803      	ldr	r3, [r0, #0]
    1860:	4604      	mov	r4, r0
    1862:	3301      	adds	r3, #1
    1864:	460d      	mov	r5, r1
    1866:	d010      	beq.n	188a <gpio_dir+0x2e>
    1868:	b145      	cbz	r5, 187c <gpio_dir+0x20>
    186a:	2d01      	cmp	r5, #1
    186c:	d105      	bne.n	187a <gpio_dir+0x1e>
    186e:	68a3      	ldr	r3, [r4, #8]
    1870:	6862      	ldr	r2, [r4, #4]
    1872:	6819      	ldr	r1, [r3, #0]
    1874:	430a      	orrs	r2, r1
    1876:	601a      	str	r2, [r3, #0]
    1878:	bd38      	pop	{r3, r4, r5, pc}
    187a:	bd38      	pop	{r3, r4, r5, pc}
    187c:	68a3      	ldr	r3, [r4, #8]
    187e:	6861      	ldr	r1, [r4, #4]
    1880:	681a      	ldr	r2, [r3, #0]
    1882:	ea22 0201 	bic.w	r2, r2, r1
    1886:	601a      	str	r2, [r3, #0]
    1888:	bd38      	pop	{r3, r4, r5, pc}
    188a:	4803      	ldr	r0, [pc, #12]	; (1898 <gpio_dir+0x3c>)
    188c:	4903      	ldr	r1, [pc, #12]	; (189c <gpio_dir+0x40>)
    188e:	222c      	movs	r2, #44	; 0x2c
    1890:	f7ff fea8 	bl	15e4 <mbed_assert_internal>
    1894:	e7e8      	b.n	1868 <gpio_dir+0xc>
    1896:	bf00      	nop
    1898:	00007ef0 	.word	0x00007ef0
    189c:	00008438 	.word	0x00008438

000018a0 <pin_function>:
    18a0:	b538      	push	{r3, r4, r5, lr}
    18a2:	1c43      	adds	r3, r0, #1
    18a4:	4604      	mov	r4, r0
    18a6:	460d      	mov	r5, r1
    18a8:	d017      	beq.n	18da <pin_function+0x3a>
    18aa:	f104 4060 	add.w	r0, r4, #3758096384	; 0xe0000000
    18ae:	f5a0 201c 	sub.w	r0, r0, #638976	; 0x9c000
    18b2:	f000 030f 	and.w	r3, r0, #15
    18b6:	005b      	lsls	r3, r3, #1
    18b8:	2203      	movs	r2, #3
    18ba:	409a      	lsls	r2, r3
    18bc:	409d      	lsls	r5, r3
    18be:	0903      	lsrs	r3, r0, #4
    18c0:	009b      	lsls	r3, r3, #2
    18c2:	f103 4380 	add.w	r3, r3, #1073741824	; 0x40000000
    18c6:	f503 3330 	add.w	r3, r3, #180224	; 0x2c000
    18ca:	6819      	ldr	r1, [r3, #0]
    18cc:	ea21 0202 	bic.w	r2, r1, r2
    18d0:	601a      	str	r2, [r3, #0]
    18d2:	681a      	ldr	r2, [r3, #0]
    18d4:	4315      	orrs	r5, r2
    18d6:	601d      	str	r5, [r3, #0]
    18d8:	bd38      	pop	{r3, r4, r5, pc}
    18da:	4803      	ldr	r0, [pc, #12]	; (18e8 <pin_function+0x48>)
    18dc:	4903      	ldr	r1, [pc, #12]	; (18ec <pin_function+0x4c>)
    18de:	2215      	movs	r2, #21
    18e0:	f7ff fe80 	bl	15e4 <mbed_assert_internal>
    18e4:	e7e1      	b.n	18aa <pin_function+0xa>
    18e6:	bf00      	nop
    18e8:	00008424 	.word	0x00008424
    18ec:	000084a0 	.word	0x000084a0

000018f0 <pin_mode>:
    18f0:	b538      	push	{r3, r4, r5, lr}
    18f2:	1c43      	adds	r3, r0, #1
    18f4:	4604      	mov	r4, r0
    18f6:	460d      	mov	r5, r1
    18f8:	d02c      	beq.n	1954 <pin_mode+0x64>
    18fa:	f104 4060 	add.w	r0, r4, #3758096384	; 0xe0000000
    18fe:	f5a0 201c 	sub.w	r0, r0, #638976	; 0x9c000
    1902:	f000 041f 	and.w	r4, r0, #31
    1906:	f3c5 0280 	ubfx	r2, r5, #2, #1
    190a:	fa02 f404 	lsl.w	r4, r2, r4
    190e:	0943      	lsrs	r3, r0, #5
    1910:	009b      	lsls	r3, r3, #2
    1912:	f103 4380 	add.w	r3, r3, #1073741824	; 0x40000000
    1916:	f503 3330 	add.w	r3, r3, #180224	; 0x2c000
    191a:	6e99      	ldr	r1, [r3, #104]	; 0x68
    191c:	ea21 0104 	bic.w	r1, r1, r4
    1920:	6699      	str	r1, [r3, #104]	; 0x68
    1922:	6e99      	ldr	r1, [r3, #104]	; 0x68
    1924:	430c      	orrs	r4, r1
    1926:	669c      	str	r4, [r3, #104]	; 0x68
    1928:	b99a      	cbnz	r2, 1952 <pin_mode+0x62>
    192a:	f000 030f 	and.w	r3, r0, #15
    192e:	005b      	lsls	r3, r3, #1
    1930:	2203      	movs	r2, #3
    1932:	409a      	lsls	r2, r3
    1934:	fa05 f303 	lsl.w	r3, r5, r3
    1938:	0900      	lsrs	r0, r0, #4
    193a:	0080      	lsls	r0, r0, #2
    193c:	f100 4080 	add.w	r0, r0, #1073741824	; 0x40000000
    1940:	f500 3030 	add.w	r0, r0, #180224	; 0x2c000
    1944:	6c01      	ldr	r1, [r0, #64]	; 0x40
    1946:	ea21 0202 	bic.w	r2, r1, r2
    194a:	6402      	str	r2, [r0, #64]	; 0x40
    194c:	6c02      	ldr	r2, [r0, #64]	; 0x40
    194e:	4313      	orrs	r3, r2
    1950:	6403      	str	r3, [r0, #64]	; 0x40
    1952:	bd38      	pop	{r3, r4, r5, pc}
    1954:	4802      	ldr	r0, [pc, #8]	; (1960 <pin_mode+0x70>)
    1956:	4903      	ldr	r1, [pc, #12]	; (1964 <pin_mode+0x74>)
    1958:	2220      	movs	r2, #32
    195a:	f7ff fe43 	bl	15e4 <mbed_assert_internal>
    195e:	e7cc      	b.n	18fa <pin_mode+0xa>
    1960:	00008424 	.word	0x00008424
    1964:	000084a0 	.word	0x000084a0

00001968 <us_ticker_init>:
    1968:	4a13      	ldr	r2, [pc, #76]	; (19b8 <us_ticker_init+0x50>)
    196a:	b538      	push	{r3, r4, r5, lr}
    196c:	6813      	ldr	r3, [r2, #0]
    196e:	bb0b      	cbnz	r3, 19b4 <us_ticker_init+0x4c>
    1970:	4912      	ldr	r1, [pc, #72]	; (19bc <us_ticker_init+0x54>)
    1972:	2401      	movs	r4, #1
    1974:	f8d1 50c4 	ldr.w	r5, [r1, #196]	; 0xc4
    1978:	6014      	str	r4, [r2, #0]
    197a:	4a11      	ldr	r2, [pc, #68]	; (19c0 <us_ticker_init+0x58>)
    197c:	4811      	ldr	r0, [pc, #68]	; (19c4 <us_ticker_init+0x5c>)
    197e:	f445 0500 	orr.w	r5, r5, #8388608	; 0x800000
    1982:	f8c1 50c4 	str.w	r5, [r1, #196]	; 0xc4
    1986:	6713      	str	r3, [r2, #112]	; 0x70
    1988:	6803      	ldr	r3, [r0, #0]
    198a:	f101 7143 	add.w	r1, r1, #51118080	; 0x30c0000
    198e:	f501 51f4 	add.w	r1, r1, #7808	; 0x1e80
    1992:	3103      	adds	r1, #3
    1994:	089b      	lsrs	r3, r3, #2
    1996:	fba1 0303 	umull	r0, r3, r1, r3
    199a:	0c9b      	lsrs	r3, r3, #18
    199c:	3b01      	subs	r3, #1
    199e:	2102      	movs	r1, #2
    19a0:	6051      	str	r1, [r2, #4]
    19a2:	2004      	movs	r0, #4
    19a4:	60d3      	str	r3, [r2, #12]
    19a6:	4908      	ldr	r1, [pc, #32]	; (19c8 <us_ticker_init+0x60>)
    19a8:	6054      	str	r4, [r2, #4]
    19aa:	f7fe fd65 	bl	478 <NVIC_SetVector>
    19ae:	4b07      	ldr	r3, [pc, #28]	; (19cc <us_ticker_init+0x64>)
    19b0:	2210      	movs	r2, #16
    19b2:	601a      	str	r2, [r3, #0]
    19b4:	bd38      	pop	{r3, r4, r5, pc}
    19b6:	bf00      	nop
    19b8:	10000464 	.word	0x10000464
    19bc:	400fc000 	.word	0x400fc000
    19c0:	40094000 	.word	0x40094000
    19c4:	100000cc 	.word	0x100000cc
    19c8:	00001b9d 	.word	0x00001b9d
    19cc:	e000e100 	.word	0xe000e100

000019d0 <us_ticker_read>:
    19d0:	b508      	push	{r3, lr}
    19d2:	4b04      	ldr	r3, [pc, #16]	; (19e4 <us_ticker_read+0x14>)
    19d4:	681b      	ldr	r3, [r3, #0]
    19d6:	b90b      	cbnz	r3, 19dc <us_ticker_read+0xc>
    19d8:	f7ff ffc6 	bl	1968 <us_ticker_init>
    19dc:	4b02      	ldr	r3, [pc, #8]	; (19e8 <us_ticker_read+0x18>)
    19de:	6898      	ldr	r0, [r3, #8]
    19e0:	bd08      	pop	{r3, pc}
    19e2:	bf00      	nop
    19e4:	10000464 	.word	0x10000464
    19e8:	40094000 	.word	0x40094000

000019ec <us_ticker_set_interrupt>:
    19ec:	4b03      	ldr	r3, [pc, #12]	; (19fc <us_ticker_set_interrupt+0x10>)
    19ee:	6198      	str	r0, [r3, #24]
    19f0:	695a      	ldr	r2, [r3, #20]
    19f2:	f042 0201 	orr.w	r2, r2, #1
    19f6:	615a      	str	r2, [r3, #20]
    19f8:	4770      	bx	lr
    19fa:	bf00      	nop
    19fc:	40094000 	.word	0x40094000

00001a00 <us_ticker_disable_interrupt>:
    1a00:	4b02      	ldr	r3, [pc, #8]	; (1a0c <us_ticker_disable_interrupt+0xc>)
    1a02:	695a      	ldr	r2, [r3, #20]
    1a04:	f022 0201 	bic.w	r2, r2, #1
    1a08:	615a      	str	r2, [r3, #20]
    1a0a:	4770      	bx	lr
    1a0c:	40094000 	.word	0x40094000

00001a10 <us_ticker_clear_interrupt>:
    1a10:	4b01      	ldr	r3, [pc, #4]	; (1a18 <us_ticker_clear_interrupt+0x8>)
    1a12:	2201      	movs	r2, #1
    1a14:	601a      	str	r2, [r3, #0]
    1a16:	4770      	bx	lr
    1a18:	40094000 	.word	0x40094000

00001a1c <_ZN4mbed8FileBaseD1Ev>:
    1a1c:	4a09      	ldr	r2, [pc, #36]	; (1a44 <_ZN4mbed8FileBaseD1Ev+0x28>)
    1a1e:	6883      	ldr	r3, [r0, #8]
    1a20:	6002      	str	r2, [r0, #0]
    1a22:	b153      	cbz	r3, 1a3a <_ZN4mbed8FileBaseD1Ev+0x1e>
    1a24:	4b08      	ldr	r3, [pc, #32]	; (1a48 <_ZN4mbed8FileBaseD1Ev+0x2c>)
    1a26:	681a      	ldr	r2, [r3, #0]
    1a28:	4282      	cmp	r2, r0
    1a2a:	d101      	bne.n	1a30 <_ZN4mbed8FileBaseD1Ev+0x14>
    1a2c:	e006      	b.n	1a3c <_ZN4mbed8FileBaseD1Ev+0x20>
    1a2e:	461a      	mov	r2, r3
    1a30:	6853      	ldr	r3, [r2, #4]
    1a32:	4283      	cmp	r3, r0
    1a34:	d1fb      	bne.n	1a2e <_ZN4mbed8FileBaseD1Ev+0x12>
    1a36:	6843      	ldr	r3, [r0, #4]
    1a38:	6053      	str	r3, [r2, #4]
    1a3a:	4770      	bx	lr
    1a3c:	6842      	ldr	r2, [r0, #4]
    1a3e:	601a      	str	r2, [r3, #0]
    1a40:	4770      	bx	lr
    1a42:	bf00      	nop
    1a44:	00008510 	.word	0x00008510
    1a48:	10000468 	.word	0x10000468

00001a4c <_ZN4mbed8FileBaseD0Ev>:
    1a4c:	4a0c      	ldr	r2, [pc, #48]	; (1a80 <_ZN4mbed8FileBaseD0Ev+0x34>)
    1a4e:	6883      	ldr	r3, [r0, #8]
    1a50:	b510      	push	{r4, lr}
    1a52:	4604      	mov	r4, r0
    1a54:	6002      	str	r2, [r0, #0]
    1a56:	b153      	cbz	r3, 1a6e <_ZN4mbed8FileBaseD0Ev+0x22>
    1a58:	4b0a      	ldr	r3, [pc, #40]	; (1a84 <_ZN4mbed8FileBaseD0Ev+0x38>)
    1a5a:	681a      	ldr	r2, [r3, #0]
    1a5c:	4290      	cmp	r0, r2
    1a5e:	d101      	bne.n	1a64 <_ZN4mbed8FileBaseD0Ev+0x18>
    1a60:	e00a      	b.n	1a78 <_ZN4mbed8FileBaseD0Ev+0x2c>
    1a62:	461a      	mov	r2, r3
    1a64:	6853      	ldr	r3, [r2, #4]
    1a66:	429c      	cmp	r4, r3
    1a68:	d1fb      	bne.n	1a62 <_ZN4mbed8FileBaseD0Ev+0x16>
    1a6a:	6863      	ldr	r3, [r4, #4]
    1a6c:	6053      	str	r3, [r2, #4]
    1a6e:	4620      	mov	r0, r4
    1a70:	f000 f8b8 	bl	1be4 <_ZdlPv>
    1a74:	4620      	mov	r0, r4
    1a76:	bd10      	pop	{r4, pc}
    1a78:	6842      	ldr	r2, [r0, #4]
    1a7a:	601a      	str	r2, [r3, #0]
    1a7c:	e7f7      	b.n	1a6e <_ZN4mbed8FileBaseD0Ev+0x22>
    1a7e:	bf00      	nop
    1a80:	00008510 	.word	0x00008510
    1a84:	10000468 	.word	0x10000468

00001a88 <_ZN4mbed8FileBaseC1EPKcNS_8PathTypeE>:
    1a88:	4b07      	ldr	r3, [pc, #28]	; (1aa8 <_ZN4mbed8FileBaseC1EPKcNS_8PathTypeE+0x20>)
    1a8a:	b410      	push	{r4}
    1a8c:	2400      	movs	r4, #0
    1a8e:	7302      	strb	r2, [r0, #12]
    1a90:	6081      	str	r1, [r0, #8]
    1a92:	e880 0018 	stmia.w	r0, {r3, r4}
    1a96:	b119      	cbz	r1, 1aa0 <_ZN4mbed8FileBaseC1EPKcNS_8PathTypeE+0x18>
    1a98:	4b04      	ldr	r3, [pc, #16]	; (1aac <_ZN4mbed8FileBaseC1EPKcNS_8PathTypeE+0x24>)
    1a9a:	681a      	ldr	r2, [r3, #0]
    1a9c:	6018      	str	r0, [r3, #0]
    1a9e:	6042      	str	r2, [r0, #4]
    1aa0:	f85d 4b04 	ldr.w	r4, [sp], #4
    1aa4:	4770      	bx	lr
    1aa6:	bf00      	nop
    1aa8:	00008510 	.word	0x00008510
    1aac:	10000468 	.word	0x10000468

00001ab0 <_ZN4mbed8FileBase6lookupEPKcj>:
    1ab0:	4b0d      	ldr	r3, [pc, #52]	; (1ae8 <_ZN4mbed8FileBase6lookupEPKcj+0x38>)
    1ab2:	b570      	push	{r4, r5, r6, lr}
    1ab4:	681c      	ldr	r4, [r3, #0]
    1ab6:	4606      	mov	r6, r0
    1ab8:	460d      	mov	r5, r1
    1aba:	b914      	cbnz	r4, 1ac2 <_ZN4mbed8FileBase6lookupEPKcj+0x12>
    1abc:	e012      	b.n	1ae4 <_ZN4mbed8FileBase6lookupEPKcj+0x34>
    1abe:	6864      	ldr	r4, [r4, #4]
    1ac0:	b184      	cbz	r4, 1ae4 <_ZN4mbed8FileBase6lookupEPKcj+0x34>
    1ac2:	68a3      	ldr	r3, [r4, #8]
    1ac4:	4631      	mov	r1, r6
    1ac6:	462a      	mov	r2, r5
    1ac8:	4618      	mov	r0, r3
    1aca:	2b00      	cmp	r3, #0
    1acc:	d0f7      	beq.n	1abe <_ZN4mbed8FileBase6lookupEPKcj+0xe>
    1ace:	f002 fac8 	bl	4062 <strncmp>
    1ad2:	2800      	cmp	r0, #0
    1ad4:	d1f3      	bne.n	1abe <_ZN4mbed8FileBase6lookupEPKcj+0xe>
    1ad6:	68a0      	ldr	r0, [r4, #8]
    1ad8:	f002 fabb 	bl	4052 <strlen>
    1adc:	42a8      	cmp	r0, r5
    1ade:	d1ee      	bne.n	1abe <_ZN4mbed8FileBase6lookupEPKcj+0xe>
    1ae0:	4620      	mov	r0, r4
    1ae2:	bd70      	pop	{r4, r5, r6, pc}
    1ae4:	2000      	movs	r0, #0
    1ae6:	bd70      	pop	{r4, r5, r6, pc}
    1ae8:	10000468 	.word	0x10000468

00001aec <_ZN4mbed8FileBase11getPathTypeEv>:
    1aec:	7b00      	ldrb	r0, [r0, #12]
    1aee:	4770      	bx	lr

00001af0 <_ZN4mbed8FileLikeD1Ev>:
    1af0:	b510      	push	{r4, lr}
    1af2:	4b07      	ldr	r3, [pc, #28]	; (1b10 <_ZN4mbed8FileLikeD1Ev+0x20>)
    1af4:	4604      	mov	r4, r0
    1af6:	f103 0208 	add.w	r2, r3, #8
    1afa:	3334      	adds	r3, #52	; 0x34
    1afc:	6022      	str	r2, [r4, #0]
    1afe:	f840 3f04 	str.w	r3, [r0, #4]!
    1b02:	f7ff ff8b 	bl	1a1c <_ZN4mbed8FileBaseD1Ev>
    1b06:	4620      	mov	r0, r4
    1b08:	f7fe fdd0 	bl	6ac <_ZN4mbed10FileHandleD1Ev>
    1b0c:	4620      	mov	r0, r4
    1b0e:	bd10      	pop	{r4, pc}
    1b10:	00008518 	.word	0x00008518

00001b14 <_ZThn4_N4mbed8FileLikeD1Ev>:
    1b14:	f1a0 0004 	sub.w	r0, r0, #4
    1b18:	f7ff bfea 	b.w	1af0 <_ZN4mbed8FileLikeD1Ev>

00001b1c <_ZN4mbed8FileLikeD0Ev>:
    1b1c:	4b09      	ldr	r3, [pc, #36]	; (1b44 <_ZN4mbed8FileLikeD0Ev+0x28>)
    1b1e:	b510      	push	{r4, lr}
    1b20:	f103 0208 	add.w	r2, r3, #8
    1b24:	4604      	mov	r4, r0
    1b26:	3334      	adds	r3, #52	; 0x34
    1b28:	6022      	str	r2, [r4, #0]
    1b2a:	f840 3f04 	str.w	r3, [r0, #4]!
    1b2e:	f7ff ff75 	bl	1a1c <_ZN4mbed8FileBaseD1Ev>
    1b32:	4620      	mov	r0, r4
    1b34:	f7fe fdba 	bl	6ac <_ZN4mbed10FileHandleD1Ev>
    1b38:	4620      	mov	r0, r4
    1b3a:	f000 f853 	bl	1be4 <_ZdlPv>
    1b3e:	4620      	mov	r0, r4
    1b40:	bd10      	pop	{r4, pc}
    1b42:	bf00      	nop
    1b44:	00008518 	.word	0x00008518

00001b48 <_ZThn4_N4mbed8FileLikeD0Ev>:
    1b48:	f1a0 0004 	sub.w	r0, r0, #4
    1b4c:	f7ff bfe6 	b.w	1b1c <_ZN4mbed8FileLikeD0Ev>

00001b50 <_ZN4mbed8FileLikeC1EPKc>:
    1b50:	4b07      	ldr	r3, [pc, #28]	; (1b70 <_ZN4mbed8FileLikeC1EPKc+0x20>)
    1b52:	b510      	push	{r4, lr}
    1b54:	2200      	movs	r2, #0
    1b56:	4604      	mov	r4, r0
    1b58:	f840 3b04 	str.w	r3, [r0], #4
    1b5c:	f7ff ff94 	bl	1a88 <_ZN4mbed8FileBaseC1EPKcNS_8PathTypeE>
    1b60:	4b04      	ldr	r3, [pc, #16]	; (1b74 <_ZN4mbed8FileLikeC1EPKc+0x24>)
    1b62:	4620      	mov	r0, r4
    1b64:	f103 0208 	add.w	r2, r3, #8
    1b68:	3334      	adds	r3, #52	; 0x34
    1b6a:	e884 000c 	stmia.w	r4, {r2, r3}
    1b6e:	bd10      	pop	{r4, pc}
    1b70:	00007f90 	.word	0x00007f90
    1b74:	00008518 	.word	0x00008518

00001b78 <_ZN4mbed15FunctionPointerC1EPFvvE>:
    1b78:	2200      	movs	r2, #0
    1b7a:	e880 0006 	stmia.w	r0, {r1, r2}
    1b7e:	6182      	str	r2, [r0, #24]
    1b80:	4770      	bx	lr
    1b82:	bf00      	nop

00001b84 <_ZN4mbed15FunctionPointer4callEv>:
    1b84:	b508      	push	{r3, lr}
    1b86:	6803      	ldr	r3, [r0, #0]
    1b88:	4601      	mov	r1, r0
    1b8a:	b10b      	cbz	r3, 1b90 <_ZN4mbed15FunctionPointer4callEv+0xc>
    1b8c:	4798      	blx	r3
    1b8e:	bd08      	pop	{r3, pc}
    1b90:	6840      	ldr	r0, [r0, #4]
    1b92:	b110      	cbz	r0, 1b9a <_ZN4mbed15FunctionPointer4callEv+0x16>
    1b94:	698b      	ldr	r3, [r1, #24]
    1b96:	3108      	adds	r1, #8
    1b98:	4798      	blx	r3
    1b9a:	bd08      	pop	{r3, pc}

00001b9c <us_ticker_irq_handler>:
    1b9c:	b570      	push	{r4, r5, r6, lr}
    1b9e:	f7ff ff37 	bl	1a10 <us_ticker_clear_interrupt>
    1ba2:	4c0e      	ldr	r4, [pc, #56]	; (1bdc <us_ticker_irq_handler+0x40>)
    1ba4:	4e0e      	ldr	r6, [pc, #56]	; (1be0 <us_ticker_irq_handler+0x44>)
    1ba6:	6823      	ldr	r3, [r4, #0]
    1ba8:	b173      	cbz	r3, 1bc8 <us_ticker_irq_handler+0x2c>
    1baa:	681d      	ldr	r5, [r3, #0]
    1bac:	f7ff ff10 	bl	19d0 <us_ticker_read>
    1bb0:	1a28      	subs	r0, r5, r0
    1bb2:	2800      	cmp	r0, #0
    1bb4:	dc0c      	bgt.n	1bd0 <us_ticker_irq_handler+0x34>
    1bb6:	6821      	ldr	r1, [r4, #0]
    1bb8:	6832      	ldr	r2, [r6, #0]
    1bba:	688b      	ldr	r3, [r1, #8]
    1bbc:	6023      	str	r3, [r4, #0]
    1bbe:	2a00      	cmp	r2, #0
    1bc0:	d0f2      	beq.n	1ba8 <us_ticker_irq_handler+0xc>
    1bc2:	6848      	ldr	r0, [r1, #4]
    1bc4:	4790      	blx	r2
    1bc6:	e7ee      	b.n	1ba6 <us_ticker_irq_handler+0xa>
    1bc8:	e8bd 4070 	ldmia.w	sp!, {r4, r5, r6, lr}
    1bcc:	f7ff bf18 	b.w	1a00 <us_ticker_disable_interrupt>
    1bd0:	6823      	ldr	r3, [r4, #0]
    1bd2:	e8bd 4070 	ldmia.w	sp!, {r4, r5, r6, lr}
    1bd6:	6818      	ldr	r0, [r3, #0]
    1bd8:	f7ff bf08 	b.w	19ec <us_ticker_set_interrupt>
    1bdc:	1000046c 	.word	0x1000046c
    1be0:	10000470 	.word	0x10000470

00001be4 <_ZdlPv>:
    1be4:	f000 bbf8 	b.w	23d8 <free>

00001be8 <__aeabi_atexit>:
    1be8:	4603      	mov	r3, r0
    1bea:	4608      	mov	r0, r1
    1bec:	4619      	mov	r1, r3
    1bee:	f000 b805 	b.w	1bfc <__cxa_atexit>

00001bf2 <abs>:
    1bf2:	2800      	cmp	r0, #0
    1bf4:	bfb8      	it	lt
    1bf6:	4240      	neglt	r0, r0
    1bf8:	4770      	bx	lr
	...

00001bfc <__cxa_atexit>:
    1bfc:	b538      	push	{r3, r4, r5, lr}
    1bfe:	4605      	mov	r5, r0
    1c00:	4804      	ldr	r0, [pc, #16]	; (1c14 <__cxa_atexit+0x18>)
    1c02:	460c      	mov	r4, r1
    1c04:	4613      	mov	r3, r2
    1c06:	b120      	cbz	r0, 1c12 <__cxa_atexit+0x16>
    1c08:	2002      	movs	r0, #2
    1c0a:	4629      	mov	r1, r5
    1c0c:	4622      	mov	r2, r4
    1c0e:	f3af 8000 	nop.w
    1c12:	bd38      	pop	{r3, r4, r5, pc}
    1c14:	00000000 	.word	0x00000000

00001c18 <__errno>:
    1c18:	4b01      	ldr	r3, [pc, #4]	; (1c20 <__errno+0x8>)
    1c1a:	6818      	ldr	r0, [r3, #0]
    1c1c:	4770      	bx	lr
    1c1e:	bf00      	nop
    1c20:	10000134 	.word	0x10000134

00001c24 <exit>:
    1c24:	b508      	push	{r3, lr}
    1c26:	4b07      	ldr	r3, [pc, #28]	; (1c44 <exit+0x20>)
    1c28:	4604      	mov	r4, r0
    1c2a:	b113      	cbz	r3, 1c32 <exit+0xe>
    1c2c:	2100      	movs	r1, #0
    1c2e:	f3af 8000 	nop.w
    1c32:	4b05      	ldr	r3, [pc, #20]	; (1c48 <exit+0x24>)
    1c34:	6818      	ldr	r0, [r3, #0]
    1c36:	6a83      	ldr	r3, [r0, #40]	; 0x28
    1c38:	b103      	cbz	r3, 1c3c <exit+0x18>
    1c3a:	4798      	blx	r3
    1c3c:	4620      	mov	r0, r4
    1c3e:	f7fe feaf 	bl	9a0 <_exit>
    1c42:	bf00      	nop
    1c44:	00000000 	.word	0x00000000
    1c48:	000085bc 	.word	0x000085bc

00001c4c <_fclose_r>:
    1c4c:	b570      	push	{r4, r5, r6, lr}
    1c4e:	4605      	mov	r5, r0
    1c50:	460c      	mov	r4, r1
    1c52:	b909      	cbnz	r1, 1c58 <_fclose_r+0xc>
    1c54:	2000      	movs	r0, #0
    1c56:	bd70      	pop	{r4, r5, r6, pc}
    1c58:	b118      	cbz	r0, 1c62 <_fclose_r+0x16>
    1c5a:	6983      	ldr	r3, [r0, #24]
    1c5c:	b90b      	cbnz	r3, 1c62 <_fclose_r+0x16>
    1c5e:	f000 f983 	bl	1f68 <__sinit>
    1c62:	4b20      	ldr	r3, [pc, #128]	; (1ce4 <_fclose_r+0x98>)
    1c64:	429c      	cmp	r4, r3
    1c66:	d101      	bne.n	1c6c <_fclose_r+0x20>
    1c68:	686c      	ldr	r4, [r5, #4]
    1c6a:	e008      	b.n	1c7e <_fclose_r+0x32>
    1c6c:	4b1e      	ldr	r3, [pc, #120]	; (1ce8 <_fclose_r+0x9c>)
    1c6e:	429c      	cmp	r4, r3
    1c70:	d101      	bne.n	1c76 <_fclose_r+0x2a>
    1c72:	68ac      	ldr	r4, [r5, #8]
    1c74:	e003      	b.n	1c7e <_fclose_r+0x32>
    1c76:	4b1d      	ldr	r3, [pc, #116]	; (1cec <_fclose_r+0xa0>)
    1c78:	429c      	cmp	r4, r3
    1c7a:	bf08      	it	eq
    1c7c:	68ec      	ldreq	r4, [r5, #12]
    1c7e:	f9b4 300c 	ldrsh.w	r3, [r4, #12]
    1c82:	2b00      	cmp	r3, #0
    1c84:	d0e6      	beq.n	1c54 <_fclose_r+0x8>
    1c86:	4628      	mov	r0, r5
    1c88:	4621      	mov	r1, r4
    1c8a:	f000 f839 	bl	1d00 <__sflush_r>
    1c8e:	6b23      	ldr	r3, [r4, #48]	; 0x30
    1c90:	4606      	mov	r6, r0
    1c92:	b133      	cbz	r3, 1ca2 <_fclose_r+0x56>
    1c94:	4628      	mov	r0, r5
    1c96:	6a21      	ldr	r1, [r4, #32]
    1c98:	4798      	blx	r3
    1c9a:	2800      	cmp	r0, #0
    1c9c:	bfb8      	it	lt
    1c9e:	f04f 36ff 	movlt.w	r6, #4294967295
    1ca2:	89a3      	ldrh	r3, [r4, #12]
    1ca4:	061b      	lsls	r3, r3, #24
    1ca6:	d503      	bpl.n	1cb0 <_fclose_r+0x64>
    1ca8:	4628      	mov	r0, r5
    1caa:	6921      	ldr	r1, [r4, #16]
    1cac:	f000 fbbe 	bl	242c <_free_r>
    1cb0:	6b61      	ldr	r1, [r4, #52]	; 0x34
    1cb2:	b141      	cbz	r1, 1cc6 <_fclose_r+0x7a>
    1cb4:	f104 0344 	add.w	r3, r4, #68	; 0x44
    1cb8:	4299      	cmp	r1, r3
    1cba:	d002      	beq.n	1cc2 <_fclose_r+0x76>
    1cbc:	4628      	mov	r0, r5
    1cbe:	f000 fbb5 	bl	242c <_free_r>
    1cc2:	2300      	movs	r3, #0
    1cc4:	6363      	str	r3, [r4, #52]	; 0x34
    1cc6:	6ca1      	ldr	r1, [r4, #72]	; 0x48
    1cc8:	b121      	cbz	r1, 1cd4 <_fclose_r+0x88>
    1cca:	4628      	mov	r0, r5
    1ccc:	f000 fbae 	bl	242c <_free_r>
    1cd0:	2300      	movs	r3, #0
    1cd2:	64a3      	str	r3, [r4, #72]	; 0x48
    1cd4:	f000 f9b2 	bl	203c <__sfp_lock_acquire>
    1cd8:	2300      	movs	r3, #0
    1cda:	81a3      	strh	r3, [r4, #12]
    1cdc:	f000 f9af 	bl	203e <__sfp_lock_release>
    1ce0:	4630      	mov	r0, r6
    1ce2:	bd70      	pop	{r4, r5, r6, pc}
    1ce4:	00008558 	.word	0x00008558
    1ce8:	00008578 	.word	0x00008578
    1cec:	00008598 	.word	0x00008598

00001cf0 <fclose>:
    1cf0:	4b02      	ldr	r3, [pc, #8]	; (1cfc <fclose+0xc>)
    1cf2:	4601      	mov	r1, r0
    1cf4:	6818      	ldr	r0, [r3, #0]
    1cf6:	f7ff bfa9 	b.w	1c4c <_fclose_r>
    1cfa:	bf00      	nop
    1cfc:	10000134 	.word	0x10000134

00001d00 <__sflush_r>:
    1d00:	898a      	ldrh	r2, [r1, #12]
    1d02:	e92d 41f0 	stmdb	sp!, {r4, r5, r6, r7, r8, lr}
    1d06:	4605      	mov	r5, r0
    1d08:	0710      	lsls	r0, r2, #28
    1d0a:	460c      	mov	r4, r1
    1d0c:	d457      	bmi.n	1dbe <__sflush_r+0xbe>
    1d0e:	684b      	ldr	r3, [r1, #4]
    1d10:	2b00      	cmp	r3, #0
    1d12:	dc02      	bgt.n	1d1a <__sflush_r+0x1a>
    1d14:	6c0b      	ldr	r3, [r1, #64]	; 0x40
    1d16:	2b00      	cmp	r3, #0
    1d18:	dd18      	ble.n	1d4c <__sflush_r+0x4c>
    1d1a:	6ae6      	ldr	r6, [r4, #44]	; 0x2c
    1d1c:	b1b6      	cbz	r6, 1d4c <__sflush_r+0x4c>
    1d1e:	f402 5280 	and.w	r2, r2, #4096	; 0x1000
    1d22:	2300      	movs	r3, #0
    1d24:	b292      	uxth	r2, r2
    1d26:	682f      	ldr	r7, [r5, #0]
    1d28:	602b      	str	r3, [r5, #0]
    1d2a:	b10a      	cbz	r2, 1d30 <__sflush_r+0x30>
    1d2c:	6d62      	ldr	r2, [r4, #84]	; 0x54
    1d2e:	e010      	b.n	1d52 <__sflush_r+0x52>
    1d30:	6a21      	ldr	r1, [r4, #32]
    1d32:	4628      	mov	r0, r5
    1d34:	2301      	movs	r3, #1
    1d36:	47b0      	blx	r6
    1d38:	1c41      	adds	r1, r0, #1
    1d3a:	4602      	mov	r2, r0
    1d3c:	d109      	bne.n	1d52 <__sflush_r+0x52>
    1d3e:	682b      	ldr	r3, [r5, #0]
    1d40:	b13b      	cbz	r3, 1d52 <__sflush_r+0x52>
    1d42:	2b1d      	cmp	r3, #29
    1d44:	d001      	beq.n	1d4a <__sflush_r+0x4a>
    1d46:	2b16      	cmp	r3, #22
    1d48:	d146      	bne.n	1dd8 <__sflush_r+0xd8>
    1d4a:	602f      	str	r7, [r5, #0]
    1d4c:	2000      	movs	r0, #0
    1d4e:	e8bd 81f0 	ldmia.w	sp!, {r4, r5, r6, r7, r8, pc}
    1d52:	89a3      	ldrh	r3, [r4, #12]
    1d54:	075b      	lsls	r3, r3, #29
    1d56:	d505      	bpl.n	1d64 <__sflush_r+0x64>
    1d58:	6863      	ldr	r3, [r4, #4]
    1d5a:	1ad2      	subs	r2, r2, r3
    1d5c:	6b63      	ldr	r3, [r4, #52]	; 0x34
    1d5e:	b10b      	cbz	r3, 1d64 <__sflush_r+0x64>
    1d60:	6c23      	ldr	r3, [r4, #64]	; 0x40
    1d62:	1ad2      	subs	r2, r2, r3
    1d64:	6ae6      	ldr	r6, [r4, #44]	; 0x2c
    1d66:	2300      	movs	r3, #0
    1d68:	4628      	mov	r0, r5
    1d6a:	6a21      	ldr	r1, [r4, #32]
    1d6c:	47b0      	blx	r6
    1d6e:	1c46      	adds	r6, r0, #1
    1d70:	89a3      	ldrh	r3, [r4, #12]
    1d72:	d105      	bne.n	1d80 <__sflush_r+0x80>
    1d74:	682a      	ldr	r2, [r5, #0]
    1d76:	b11a      	cbz	r2, 1d80 <__sflush_r+0x80>
    1d78:	2a1d      	cmp	r2, #29
    1d7a:	d001      	beq.n	1d80 <__sflush_r+0x80>
    1d7c:	2a16      	cmp	r2, #22
    1d7e:	d119      	bne.n	1db4 <__sflush_r+0xb4>
    1d80:	2200      	movs	r2, #0
    1d82:	6062      	str	r2, [r4, #4]
    1d84:	6922      	ldr	r2, [r4, #16]
    1d86:	04d9      	lsls	r1, r3, #19
    1d88:	6022      	str	r2, [r4, #0]
    1d8a:	d504      	bpl.n	1d96 <__sflush_r+0x96>
    1d8c:	1c42      	adds	r2, r0, #1
    1d8e:	d101      	bne.n	1d94 <__sflush_r+0x94>
    1d90:	682b      	ldr	r3, [r5, #0]
    1d92:	b903      	cbnz	r3, 1d96 <__sflush_r+0x96>
    1d94:	6560      	str	r0, [r4, #84]	; 0x54
    1d96:	6b61      	ldr	r1, [r4, #52]	; 0x34
    1d98:	602f      	str	r7, [r5, #0]
    1d9a:	2900      	cmp	r1, #0
    1d9c:	d0d6      	beq.n	1d4c <__sflush_r+0x4c>
    1d9e:	f104 0344 	add.w	r3, r4, #68	; 0x44
    1da2:	4299      	cmp	r1, r3
    1da4:	d002      	beq.n	1dac <__sflush_r+0xac>
    1da6:	4628      	mov	r0, r5
    1da8:	f000 fb40 	bl	242c <_free_r>
    1dac:	2000      	movs	r0, #0
    1dae:	6360      	str	r0, [r4, #52]	; 0x34
    1db0:	e8bd 81f0 	ldmia.w	sp!, {r4, r5, r6, r7, r8, pc}
    1db4:	f043 0340 	orr.w	r3, r3, #64	; 0x40
    1db8:	81a3      	strh	r3, [r4, #12]
    1dba:	e8bd 81f0 	ldmia.w	sp!, {r4, r5, r6, r7, r8, pc}
    1dbe:	690f      	ldr	r7, [r1, #16]
    1dc0:	2f00      	cmp	r7, #0
    1dc2:	d0c3      	beq.n	1d4c <__sflush_r+0x4c>
    1dc4:	0793      	lsls	r3, r2, #30
    1dc6:	680e      	ldr	r6, [r1, #0]
    1dc8:	bf0c      	ite	eq
    1dca:	694b      	ldreq	r3, [r1, #20]
    1dcc:	2300      	movne	r3, #0
    1dce:	ebc7 0806 	rsb	r8, r7, r6
    1dd2:	600f      	str	r7, [r1, #0]
    1dd4:	608b      	str	r3, [r1, #8]
    1dd6:	e012      	b.n	1dfe <__sflush_r+0xfe>
    1dd8:	89a3      	ldrh	r3, [r4, #12]
    1dda:	f04f 30ff 	mov.w	r0, #4294967295
    1dde:	f043 0340 	orr.w	r3, r3, #64	; 0x40
    1de2:	81a3      	strh	r3, [r4, #12]
    1de4:	e8bd 81f0 	ldmia.w	sp!, {r4, r5, r6, r7, r8, pc}
    1de8:	4628      	mov	r0, r5
    1dea:	6a21      	ldr	r1, [r4, #32]
    1dec:	463a      	mov	r2, r7
    1dee:	4643      	mov	r3, r8
    1df0:	6aa6      	ldr	r6, [r4, #40]	; 0x28
    1df2:	47b0      	blx	r6
    1df4:	2800      	cmp	r0, #0
    1df6:	ddef      	ble.n	1dd8 <__sflush_r+0xd8>
    1df8:	4407      	add	r7, r0
    1dfa:	ebc0 0808 	rsb	r8, r0, r8
    1dfe:	f1b8 0f00 	cmp.w	r8, #0
    1e02:	dcf1      	bgt.n	1de8 <__sflush_r+0xe8>
    1e04:	e7a2      	b.n	1d4c <__sflush_r+0x4c>
	...

00001e08 <_fflush_r>:
    1e08:	b538      	push	{r3, r4, r5, lr}
    1e0a:	690b      	ldr	r3, [r1, #16]
    1e0c:	4605      	mov	r5, r0
    1e0e:	460c      	mov	r4, r1
    1e10:	b1db      	cbz	r3, 1e4a <_fflush_r+0x42>
    1e12:	b118      	cbz	r0, 1e1c <_fflush_r+0x14>
    1e14:	6983      	ldr	r3, [r0, #24]
    1e16:	b90b      	cbnz	r3, 1e1c <_fflush_r+0x14>
    1e18:	f000 f8a6 	bl	1f68 <__sinit>
    1e1c:	4b0c      	ldr	r3, [pc, #48]	; (1e50 <_fflush_r+0x48>)
    1e1e:	429c      	cmp	r4, r3
    1e20:	d101      	bne.n	1e26 <_fflush_r+0x1e>
    1e22:	686c      	ldr	r4, [r5, #4]
    1e24:	e008      	b.n	1e38 <_fflush_r+0x30>
    1e26:	4b0b      	ldr	r3, [pc, #44]	; (1e54 <_fflush_r+0x4c>)
    1e28:	429c      	cmp	r4, r3
    1e2a:	d101      	bne.n	1e30 <_fflush_r+0x28>
    1e2c:	68ac      	ldr	r4, [r5, #8]
    1e2e:	e003      	b.n	1e38 <_fflush_r+0x30>
    1e30:	4b09      	ldr	r3, [pc, #36]	; (1e58 <_fflush_r+0x50>)
    1e32:	429c      	cmp	r4, r3
    1e34:	bf08      	it	eq
    1e36:	68ec      	ldreq	r4, [r5, #12]
    1e38:	f9b4 300c 	ldrsh.w	r3, [r4, #12]
    1e3c:	b12b      	cbz	r3, 1e4a <_fflush_r+0x42>
    1e3e:	4628      	mov	r0, r5
    1e40:	4621      	mov	r1, r4
    1e42:	e8bd 4038 	ldmia.w	sp!, {r3, r4, r5, lr}
    1e46:	f7ff bf5b 	b.w	1d00 <__sflush_r>
    1e4a:	2000      	movs	r0, #0
    1e4c:	bd38      	pop	{r3, r4, r5, pc}
    1e4e:	bf00      	nop
    1e50:	00008558 	.word	0x00008558
    1e54:	00008578 	.word	0x00008578
    1e58:	00008598 	.word	0x00008598

00001e5c <fflush>:
    1e5c:	4601      	mov	r1, r0
    1e5e:	b920      	cbnz	r0, 1e6a <fflush+0xe>
    1e60:	4b04      	ldr	r3, [pc, #16]	; (1e74 <fflush+0x18>)
    1e62:	4905      	ldr	r1, [pc, #20]	; (1e78 <fflush+0x1c>)
    1e64:	6818      	ldr	r0, [r3, #0]
    1e66:	f000 ba1f 	b.w	22a8 <_fwalk_reent>
    1e6a:	4b04      	ldr	r3, [pc, #16]	; (1e7c <fflush+0x20>)
    1e6c:	6818      	ldr	r0, [r3, #0]
    1e6e:	f7ff bfcb 	b.w	1e08 <_fflush_r>
    1e72:	bf00      	nop
    1e74:	000085bc 	.word	0x000085bc
    1e78:	00001e09 	.word	0x00001e09
    1e7c:	10000134 	.word	0x10000134

00001e80 <_fgetc_r>:
    1e80:	b538      	push	{r3, r4, r5, lr}
    1e82:	460c      	mov	r4, r1
    1e84:	4605      	mov	r5, r0
    1e86:	b118      	cbz	r0, 1e90 <_fgetc_r+0x10>
    1e88:	6983      	ldr	r3, [r0, #24]
    1e8a:	b90b      	cbnz	r3, 1e90 <_fgetc_r+0x10>
    1e8c:	f000 f86c 	bl	1f68 <__sinit>
    1e90:	4b0e      	ldr	r3, [pc, #56]	; (1ecc <_fgetc_r+0x4c>)
    1e92:	429c      	cmp	r4, r3
    1e94:	d101      	bne.n	1e9a <_fgetc_r+0x1a>
    1e96:	686c      	ldr	r4, [r5, #4]
    1e98:	e008      	b.n	1eac <_fgetc_r+0x2c>
    1e9a:	4b0d      	ldr	r3, [pc, #52]	; (1ed0 <_fgetc_r+0x50>)
    1e9c:	429c      	cmp	r4, r3
    1e9e:	d101      	bne.n	1ea4 <_fgetc_r+0x24>
    1ea0:	68ac      	ldr	r4, [r5, #8]
    1ea2:	e003      	b.n	1eac <_fgetc_r+0x2c>
    1ea4:	4b0b      	ldr	r3, [pc, #44]	; (1ed4 <_fgetc_r+0x54>)
    1ea6:	429c      	cmp	r4, r3
    1ea8:	bf08      	it	eq
    1eaa:	68ec      	ldreq	r4, [r5, #12]
    1eac:	6863      	ldr	r3, [r4, #4]
    1eae:	3b01      	subs	r3, #1
    1eb0:	2b00      	cmp	r3, #0
    1eb2:	6063      	str	r3, [r4, #4]
    1eb4:	da05      	bge.n	1ec2 <_fgetc_r+0x42>
    1eb6:	4628      	mov	r0, r5
    1eb8:	4621      	mov	r1, r4
    1eba:	e8bd 4038 	ldmia.w	sp!, {r3, r4, r5, lr}
    1ebe:	f001 bee9 	b.w	3c94 <__srget_r>
    1ec2:	6823      	ldr	r3, [r4, #0]
    1ec4:	1c5a      	adds	r2, r3, #1
    1ec6:	6022      	str	r2, [r4, #0]
    1ec8:	7818      	ldrb	r0, [r3, #0]
    1eca:	bd38      	pop	{r3, r4, r5, pc}
    1ecc:	00008558 	.word	0x00008558
    1ed0:	00008578 	.word	0x00008578
    1ed4:	00008598 	.word	0x00008598

00001ed8 <fgetc>:
    1ed8:	4b02      	ldr	r3, [pc, #8]	; (1ee4 <fgetc+0xc>)
    1eda:	4601      	mov	r1, r0
    1edc:	6818      	ldr	r0, [r3, #0]
    1ede:	f7ff bfcf 	b.w	1e80 <_fgetc_r>
    1ee2:	bf00      	nop
    1ee4:	10000134 	.word	0x10000134

00001ee8 <_cleanup_r>:
    1ee8:	4901      	ldr	r1, [pc, #4]	; (1ef0 <_cleanup_r+0x8>)
    1eea:	f000 b9dd 	b.w	22a8 <_fwalk_reent>
    1eee:	bf00      	nop
    1ef0:	00001e09 	.word	0x00001e09

00001ef4 <std.isra.0>:
    1ef4:	b510      	push	{r4, lr}
    1ef6:	4604      	mov	r4, r0
    1ef8:	2300      	movs	r3, #0
    1efa:	6003      	str	r3, [r0, #0]
    1efc:	6043      	str	r3, [r0, #4]
    1efe:	6083      	str	r3, [r0, #8]
    1f00:	8181      	strh	r1, [r0, #12]
    1f02:	6643      	str	r3, [r0, #100]	; 0x64
    1f04:	81c2      	strh	r2, [r0, #14]
    1f06:	6103      	str	r3, [r0, #16]
    1f08:	6143      	str	r3, [r0, #20]
    1f0a:	6183      	str	r3, [r0, #24]
    1f0c:	4619      	mov	r1, r3
    1f0e:	305c      	adds	r0, #92	; 0x5c
    1f10:	2208      	movs	r2, #8
    1f12:	f000 fa82 	bl	241a <memset>
    1f16:	4b05      	ldr	r3, [pc, #20]	; (1f2c <std.isra.0+0x38>)
    1f18:	6224      	str	r4, [r4, #32]
    1f1a:	6263      	str	r3, [r4, #36]	; 0x24
    1f1c:	4b04      	ldr	r3, [pc, #16]	; (1f30 <std.isra.0+0x3c>)
    1f1e:	62a3      	str	r3, [r4, #40]	; 0x28
    1f20:	4b04      	ldr	r3, [pc, #16]	; (1f34 <std.isra.0+0x40>)
    1f22:	62e3      	str	r3, [r4, #44]	; 0x2c
    1f24:	4b04      	ldr	r3, [pc, #16]	; (1f38 <std.isra.0+0x44>)
    1f26:	6323      	str	r3, [r4, #48]	; 0x30
    1f28:	bd10      	pop	{r4, pc}
    1f2a:	bf00      	nop
    1f2c:	00003fb5 	.word	0x00003fb5
    1f30:	00003fdb 	.word	0x00003fdb
    1f34:	00004013 	.word	0x00004013
    1f38:	00004037 	.word	0x00004037

00001f3c <__sfmoreglue>:
    1f3c:	b570      	push	{r4, r5, r6, lr}
    1f3e:	2368      	movs	r3, #104	; 0x68
    1f40:	1e4d      	subs	r5, r1, #1
    1f42:	435d      	muls	r5, r3
    1f44:	460e      	mov	r6, r1
    1f46:	f105 0174 	add.w	r1, r5, #116	; 0x74
    1f4a:	f000 fab3 	bl	24b4 <_malloc_r>
    1f4e:	4604      	mov	r4, r0
    1f50:	b140      	cbz	r0, 1f64 <__sfmoreglue+0x28>
    1f52:	2100      	movs	r1, #0
    1f54:	e880 0042 	stmia.w	r0, {r1, r6}
    1f58:	300c      	adds	r0, #12
    1f5a:	60a0      	str	r0, [r4, #8]
    1f5c:	f105 0268 	add.w	r2, r5, #104	; 0x68
    1f60:	f000 fa5b 	bl	241a <memset>
    1f64:	4620      	mov	r0, r4
    1f66:	bd70      	pop	{r4, r5, r6, pc}

00001f68 <__sinit>:
    1f68:	6983      	ldr	r3, [r0, #24]
    1f6a:	b510      	push	{r4, lr}
    1f6c:	4604      	mov	r4, r0
    1f6e:	bb33      	cbnz	r3, 1fbe <__sinit+0x56>
    1f70:	6483      	str	r3, [r0, #72]	; 0x48
    1f72:	64c3      	str	r3, [r0, #76]	; 0x4c
    1f74:	6503      	str	r3, [r0, #80]	; 0x50
    1f76:	4b12      	ldr	r3, [pc, #72]	; (1fc0 <__sinit+0x58>)
    1f78:	4a12      	ldr	r2, [pc, #72]	; (1fc4 <__sinit+0x5c>)
    1f7a:	681b      	ldr	r3, [r3, #0]
    1f7c:	6282      	str	r2, [r0, #40]	; 0x28
    1f7e:	4298      	cmp	r0, r3
    1f80:	bf04      	itt	eq
    1f82:	2301      	moveq	r3, #1
    1f84:	6183      	streq	r3, [r0, #24]
    1f86:	f000 f81f 	bl	1fc8 <__sfp>
    1f8a:	6060      	str	r0, [r4, #4]
    1f8c:	4620      	mov	r0, r4
    1f8e:	f000 f81b 	bl	1fc8 <__sfp>
    1f92:	60a0      	str	r0, [r4, #8]
    1f94:	4620      	mov	r0, r4
    1f96:	f000 f817 	bl	1fc8 <__sfp>
    1f9a:	2104      	movs	r1, #4
    1f9c:	60e0      	str	r0, [r4, #12]
    1f9e:	2200      	movs	r2, #0
    1fa0:	6860      	ldr	r0, [r4, #4]
    1fa2:	f7ff ffa7 	bl	1ef4 <std.isra.0>
    1fa6:	68a0      	ldr	r0, [r4, #8]
    1fa8:	2109      	movs	r1, #9
    1faa:	2201      	movs	r2, #1
    1fac:	f7ff ffa2 	bl	1ef4 <std.isra.0>
    1fb0:	68e0      	ldr	r0, [r4, #12]
    1fb2:	2112      	movs	r1, #18
    1fb4:	2202      	movs	r2, #2
    1fb6:	f7ff ff9d 	bl	1ef4 <std.isra.0>
    1fba:	2301      	movs	r3, #1
    1fbc:	61a3      	str	r3, [r4, #24]
    1fbe:	bd10      	pop	{r4, pc}
    1fc0:	000085bc 	.word	0x000085bc
    1fc4:	00001ee9 	.word	0x00001ee9

00001fc8 <__sfp>:
    1fc8:	b5f8      	push	{r3, r4, r5, r6, r7, lr}
    1fca:	4b1b      	ldr	r3, [pc, #108]	; (2038 <__sfp+0x70>)
    1fcc:	4607      	mov	r7, r0
    1fce:	681e      	ldr	r6, [r3, #0]
    1fd0:	69b3      	ldr	r3, [r6, #24]
    1fd2:	b913      	cbnz	r3, 1fda <__sfp+0x12>
    1fd4:	4630      	mov	r0, r6
    1fd6:	f7ff ffc7 	bl	1f68 <__sinit>
    1fda:	3648      	adds	r6, #72	; 0x48
    1fdc:	68b4      	ldr	r4, [r6, #8]
    1fde:	6873      	ldr	r3, [r6, #4]
    1fe0:	3b01      	subs	r3, #1
    1fe2:	d404      	bmi.n	1fee <__sfp+0x26>
    1fe4:	f9b4 500c 	ldrsh.w	r5, [r4, #12]
    1fe8:	b175      	cbz	r5, 2008 <__sfp+0x40>
    1fea:	3468      	adds	r4, #104	; 0x68
    1fec:	e7f8      	b.n	1fe0 <__sfp+0x18>
    1fee:	6833      	ldr	r3, [r6, #0]
    1ff0:	b92b      	cbnz	r3, 1ffe <__sfp+0x36>
    1ff2:	4638      	mov	r0, r7
    1ff4:	2104      	movs	r1, #4
    1ff6:	f7ff ffa1 	bl	1f3c <__sfmoreglue>
    1ffa:	6030      	str	r0, [r6, #0]
    1ffc:	b108      	cbz	r0, 2002 <__sfp+0x3a>
    1ffe:	6836      	ldr	r6, [r6, #0]
    2000:	e7ec      	b.n	1fdc <__sfp+0x14>
    2002:	230c      	movs	r3, #12
    2004:	603b      	str	r3, [r7, #0]
    2006:	bdf8      	pop	{r3, r4, r5, r6, r7, pc}
    2008:	f64f 73ff 	movw	r3, #65535	; 0xffff
    200c:	81e3      	strh	r3, [r4, #14]
    200e:	2301      	movs	r3, #1
    2010:	81a3      	strh	r3, [r4, #12]
    2012:	6665      	str	r5, [r4, #100]	; 0x64
    2014:	6025      	str	r5, [r4, #0]
    2016:	60a5      	str	r5, [r4, #8]
    2018:	6065      	str	r5, [r4, #4]
    201a:	6125      	str	r5, [r4, #16]
    201c:	6165      	str	r5, [r4, #20]
    201e:	61a5      	str	r5, [r4, #24]
    2020:	f104 005c 	add.w	r0, r4, #92	; 0x5c
    2024:	4629      	mov	r1, r5
    2026:	2208      	movs	r2, #8
    2028:	f000 f9f7 	bl	241a <memset>
    202c:	6365      	str	r5, [r4, #52]	; 0x34
    202e:	63a5      	str	r5, [r4, #56]	; 0x38
    2030:	64a5      	str	r5, [r4, #72]	; 0x48
    2032:	64e5      	str	r5, [r4, #76]	; 0x4c
    2034:	4620      	mov	r0, r4
    2036:	bdf8      	pop	{r3, r4, r5, r6, r7, pc}
    2038:	000085bc 	.word	0x000085bc

0000203c <__sfp_lock_acquire>:
    203c:	4770      	bx	lr

0000203e <__sfp_lock_release>:
    203e:	4770      	bx	lr

00002040 <_fopen_r>:
    2040:	b5f7      	push	{r0, r1, r2, r4, r5, r6, r7, lr}
    2042:	460f      	mov	r7, r1
    2044:	4611      	mov	r1, r2
    2046:	aa01      	add	r2, sp, #4
    2048:	4605      	mov	r5, r0
    204a:	f003 ff51 	bl	5ef0 <__sflags>
    204e:	4606      	mov	r6, r0
    2050:	b908      	cbnz	r0, 2056 <_fopen_r+0x16>
    2052:	2000      	movs	r0, #0
    2054:	e029      	b.n	20aa <_fopen_r+0x6a>
    2056:	4628      	mov	r0, r5
    2058:	f7ff ffb6 	bl	1fc8 <__sfp>
    205c:	4604      	mov	r4, r0
    205e:	2800      	cmp	r0, #0
    2060:	d0f7      	beq.n	2052 <_fopen_r+0x12>
    2062:	4628      	mov	r0, r5
    2064:	4639      	mov	r1, r7
    2066:	9a01      	ldr	r2, [sp, #4]
    2068:	f44f 73db 	mov.w	r3, #438	; 0x1b6
    206c:	f001 fcce 	bl	3a0c <_open_r>
    2070:	2800      	cmp	r0, #0
    2072:	da06      	bge.n	2082 <_fopen_r+0x42>
    2074:	2500      	movs	r5, #0
    2076:	f7ff ffe1 	bl	203c <__sfp_lock_acquire>
    207a:	81a5      	strh	r5, [r4, #12]
    207c:	f7ff ffdf 	bl	203e <__sfp_lock_release>
    2080:	e7e7      	b.n	2052 <_fopen_r+0x12>
    2082:	4b0b      	ldr	r3, [pc, #44]	; (20b0 <_fopen_r+0x70>)
    2084:	81e0      	strh	r0, [r4, #14]
    2086:	6263      	str	r3, [r4, #36]	; 0x24
    2088:	4b0a      	ldr	r3, [pc, #40]	; (20b4 <_fopen_r+0x74>)
    208a:	81a6      	strh	r6, [r4, #12]
    208c:	62a3      	str	r3, [r4, #40]	; 0x28
    208e:	4b0a      	ldr	r3, [pc, #40]	; (20b8 <_fopen_r+0x78>)
    2090:	6224      	str	r4, [r4, #32]
    2092:	62e3      	str	r3, [r4, #44]	; 0x2c
    2094:	4b09      	ldr	r3, [pc, #36]	; (20bc <_fopen_r+0x7c>)
    2096:	6323      	str	r3, [r4, #48]	; 0x30
    2098:	05f3      	lsls	r3, r6, #23
    209a:	d505      	bpl.n	20a8 <_fopen_r+0x68>
    209c:	4628      	mov	r0, r5
    209e:	4621      	mov	r1, r4
    20a0:	2200      	movs	r2, #0
    20a2:	2302      	movs	r3, #2
    20a4:	f000 f856 	bl	2154 <_fseek_r>
    20a8:	4620      	mov	r0, r4
    20aa:	b003      	add	sp, #12
    20ac:	bdf0      	pop	{r4, r5, r6, r7, pc}
    20ae:	bf00      	nop
    20b0:	00003fb5 	.word	0x00003fb5
    20b4:	00003fdb 	.word	0x00003fdb
    20b8:	00004013 	.word	0x00004013
    20bc:	00004037 	.word	0x00004037

000020c0 <fopen>:
    20c0:	4603      	mov	r3, r0
    20c2:	460a      	mov	r2, r1
    20c4:	4902      	ldr	r1, [pc, #8]	; (20d0 <fopen+0x10>)
    20c6:	6808      	ldr	r0, [r1, #0]
    20c8:	4619      	mov	r1, r3
    20ca:	f7ff bfb9 	b.w	2040 <_fopen_r>
    20ce:	bf00      	nop
    20d0:	10000134 	.word	0x10000134

000020d4 <fiprintf>:
    20d4:	b40e      	push	{r1, r2, r3}
    20d6:	b503      	push	{r0, r1, lr}
    20d8:	4601      	mov	r1, r0
    20da:	ab03      	add	r3, sp, #12
    20dc:	4805      	ldr	r0, [pc, #20]	; (20f4 <fiprintf+0x20>)
    20de:	f853 2b04 	ldr.w	r2, [r3], #4
    20e2:	6800      	ldr	r0, [r0, #0]
    20e4:	9301      	str	r3, [sp, #4]
    20e6:	f000 fa63 	bl	25b0 <_vfiprintf_r>
    20ea:	b002      	add	sp, #8
    20ec:	f85d eb04 	ldr.w	lr, [sp], #4
    20f0:	b003      	add	sp, #12
    20f2:	4770      	bx	lr
    20f4:	10000134 	.word	0x10000134

000020f8 <_fputc_r>:
    20f8:	b570      	push	{r4, r5, r6, lr}
    20fa:	460e      	mov	r6, r1
    20fc:	4614      	mov	r4, r2
    20fe:	4605      	mov	r5, r0
    2100:	b118      	cbz	r0, 210a <_fputc_r+0x12>
    2102:	6983      	ldr	r3, [r0, #24]
    2104:	b90b      	cbnz	r3, 210a <_fputc_r+0x12>
    2106:	f7ff ff2f 	bl	1f68 <__sinit>
    210a:	4b0a      	ldr	r3, [pc, #40]	; (2134 <_fputc_r+0x3c>)
    210c:	429c      	cmp	r4, r3
    210e:	d101      	bne.n	2114 <_fputc_r+0x1c>
    2110:	686c      	ldr	r4, [r5, #4]
    2112:	e008      	b.n	2126 <_fputc_r+0x2e>
    2114:	4b08      	ldr	r3, [pc, #32]	; (2138 <_fputc_r+0x40>)
    2116:	429c      	cmp	r4, r3
    2118:	d101      	bne.n	211e <_fputc_r+0x26>
    211a:	68ac      	ldr	r4, [r5, #8]
    211c:	e003      	b.n	2126 <_fputc_r+0x2e>
    211e:	4b07      	ldr	r3, [pc, #28]	; (213c <_fputc_r+0x44>)
    2120:	429c      	cmp	r4, r3
    2122:	bf08      	it	eq
    2124:	68ec      	ldreq	r4, [r5, #12]
    2126:	4628      	mov	r0, r5
    2128:	4631      	mov	r1, r6
    212a:	4622      	mov	r2, r4
    212c:	e8bd 4070 	ldmia.w	sp!, {r4, r5, r6, lr}
    2130:	f001 bc7e 	b.w	3a30 <_putc_r>
    2134:	00008558 	.word	0x00008558
    2138:	00008578 	.word	0x00008578
    213c:	00008598 	.word	0x00008598

00002140 <fputc>:
    2140:	4603      	mov	r3, r0
    2142:	460a      	mov	r2, r1
    2144:	4902      	ldr	r1, [pc, #8]	; (2150 <fputc+0x10>)
    2146:	6808      	ldr	r0, [r1, #0]
    2148:	4619      	mov	r1, r3
    214a:	f7ff bfd5 	b.w	20f8 <_fputc_r>
    214e:	bf00      	nop
    2150:	10000134 	.word	0x10000134

00002154 <_fseek_r>:
    2154:	f000 b800 	b.w	2158 <_fseeko_r>

00002158 <_fseeko_r>:
    2158:	e92d 43f8 	stmdb	sp!, {r3, r4, r5, r6, r7, r8, r9, lr}
    215c:	460c      	mov	r4, r1
    215e:	4690      	mov	r8, r2
    2160:	461e      	mov	r6, r3
    2162:	4605      	mov	r5, r0
    2164:	b118      	cbz	r0, 216e <_fseeko_r+0x16>
    2166:	6983      	ldr	r3, [r0, #24]
    2168:	b90b      	cbnz	r3, 216e <_fseeko_r+0x16>
    216a:	f7ff fefd 	bl	1f68 <__sinit>
    216e:	4b3d      	ldr	r3, [pc, #244]	; (2264 <_fseeko_r+0x10c>)
    2170:	429c      	cmp	r4, r3
    2172:	d101      	bne.n	2178 <_fseeko_r+0x20>
    2174:	686c      	ldr	r4, [r5, #4]
    2176:	e008      	b.n	218a <_fseeko_r+0x32>
    2178:	4b3b      	ldr	r3, [pc, #236]	; (2268 <_fseeko_r+0x110>)
    217a:	429c      	cmp	r4, r3
    217c:	d101      	bne.n	2182 <_fseeko_r+0x2a>
    217e:	68ac      	ldr	r4, [r5, #8]
    2180:	e003      	b.n	218a <_fseeko_r+0x32>
    2182:	4b3a      	ldr	r3, [pc, #232]	; (226c <_fseeko_r+0x114>)
    2184:	429c      	cmp	r4, r3
    2186:	bf08      	it	eq
    2188:	68ec      	ldreq	r4, [r5, #12]
    218a:	89a3      	ldrh	r3, [r4, #12]
    218c:	f403 7384 	and.w	r3, r3, #264	; 0x108
    2190:	f5b3 7f84 	cmp.w	r3, #264	; 0x108
    2194:	d103      	bne.n	219e <_fseeko_r+0x46>
    2196:	4628      	mov	r0, r5
    2198:	4621      	mov	r1, r4
    219a:	f7ff fe35 	bl	1e08 <_fflush_r>
    219e:	6ae7      	ldr	r7, [r4, #44]	; 0x2c
    21a0:	b90f      	cbnz	r7, 21a6 <_fseeko_r+0x4e>
    21a2:	231d      	movs	r3, #29
    21a4:	e02b      	b.n	21fe <_fseeko_r+0xa6>
    21a6:	2e01      	cmp	r6, #1
    21a8:	d004      	beq.n	21b4 <_fseeko_r+0x5c>
    21aa:	2e02      	cmp	r6, #2
    21ac:	d02b      	beq.n	2206 <_fseeko_r+0xae>
    21ae:	b356      	cbz	r6, 2206 <_fseeko_r+0xae>
    21b0:	2316      	movs	r3, #22
    21b2:	e024      	b.n	21fe <_fseeko_r+0xa6>
    21b4:	4628      	mov	r0, r5
    21b6:	4621      	mov	r1, r4
    21b8:	f7ff fe26 	bl	1e08 <_fflush_r>
    21bc:	89a2      	ldrh	r2, [r4, #12]
    21be:	f402 5280 	and.w	r2, r2, #4096	; 0x1000
    21c2:	b292      	uxth	r2, r2
    21c4:	b10a      	cbz	r2, 21ca <_fseeko_r+0x72>
    21c6:	6d60      	ldr	r0, [r4, #84]	; 0x54
    21c8:	e005      	b.n	21d6 <_fseeko_r+0x7e>
    21ca:	6a21      	ldr	r1, [r4, #32]
    21cc:	4628      	mov	r0, r5
    21ce:	4633      	mov	r3, r6
    21d0:	47b8      	blx	r7
    21d2:	1c41      	adds	r1, r0, #1
    21d4:	d014      	beq.n	2200 <_fseeko_r+0xa8>
    21d6:	89a3      	ldrh	r3, [r4, #12]
    21d8:	075a      	lsls	r2, r3, #29
    21da:	d506      	bpl.n	21ea <_fseeko_r+0x92>
    21dc:	6863      	ldr	r3, [r4, #4]
    21de:	1ac0      	subs	r0, r0, r3
    21e0:	6b63      	ldr	r3, [r4, #52]	; 0x34
    21e2:	b14b      	cbz	r3, 21f8 <_fseeko_r+0xa0>
    21e4:	6c23      	ldr	r3, [r4, #64]	; 0x40
    21e6:	1ac0      	subs	r0, r0, r3
    21e8:	e006      	b.n	21f8 <_fseeko_r+0xa0>
    21ea:	071b      	lsls	r3, r3, #28
    21ec:	d504      	bpl.n	21f8 <_fseeko_r+0xa0>
    21ee:	6823      	ldr	r3, [r4, #0]
    21f0:	b113      	cbz	r3, 21f8 <_fseeko_r+0xa0>
    21f2:	6922      	ldr	r2, [r4, #16]
    21f4:	1a9b      	subs	r3, r3, r2
    21f6:	4418      	add	r0, r3
    21f8:	4480      	add	r8, r0
    21fa:	2600      	movs	r6, #0
    21fc:	e003      	b.n	2206 <_fseeko_r+0xae>
    21fe:	602b      	str	r3, [r5, #0]
    2200:	f04f 39ff 	mov.w	r9, #4294967295
    2204:	e02b      	b.n	225e <_fseeko_r+0x106>
    2206:	6923      	ldr	r3, [r4, #16]
    2208:	b91b      	cbnz	r3, 2212 <_fseeko_r+0xba>
    220a:	4628      	mov	r0, r5
    220c:	4621      	mov	r1, r4
    220e:	f000 f88f 	bl	2330 <__smakebuf_r>
    2212:	4628      	mov	r0, r5
    2214:	4621      	mov	r1, r4
    2216:	f7ff fdf7 	bl	1e08 <_fflush_r>
    221a:	4681      	mov	r9, r0
    221c:	2800      	cmp	r0, #0
    221e:	d1ef      	bne.n	2200 <_fseeko_r+0xa8>
    2220:	4628      	mov	r0, r5
    2222:	6a21      	ldr	r1, [r4, #32]
    2224:	4642      	mov	r2, r8
    2226:	4633      	mov	r3, r6
    2228:	47b8      	blx	r7
    222a:	3001      	adds	r0, #1
    222c:	d0e8      	beq.n	2200 <_fseeko_r+0xa8>
    222e:	6b61      	ldr	r1, [r4, #52]	; 0x34
    2230:	b141      	cbz	r1, 2244 <_fseeko_r+0xec>
    2232:	f104 0344 	add.w	r3, r4, #68	; 0x44
    2236:	4299      	cmp	r1, r3
    2238:	d002      	beq.n	2240 <_fseeko_r+0xe8>
    223a:	4628      	mov	r0, r5
    223c:	f000 f8f6 	bl	242c <_free_r>
    2240:	2300      	movs	r3, #0
    2242:	6363      	str	r3, [r4, #52]	; 0x34
    2244:	6923      	ldr	r3, [r4, #16]
    2246:	2100      	movs	r1, #0
    2248:	6023      	str	r3, [r4, #0]
    224a:	89a3      	ldrh	r3, [r4, #12]
    224c:	6061      	str	r1, [r4, #4]
    224e:	f423 6302 	bic.w	r3, r3, #2080	; 0x820
    2252:	81a3      	strh	r3, [r4, #12]
    2254:	f104 005c 	add.w	r0, r4, #92	; 0x5c
    2258:	2208      	movs	r2, #8
    225a:	f000 f8de 	bl	241a <memset>
    225e:	4648      	mov	r0, r9
    2260:	e8bd 83f8 	ldmia.w	sp!, {r3, r4, r5, r6, r7, r8, r9, pc}
    2264:	00008558 	.word	0x00008558
    2268:	00008578 	.word	0x00008578
    226c:	00008598 	.word	0x00008598

00002270 <_fwalk>:
    2270:	e92d 41f0 	stmdb	sp!, {r4, r5, r6, r7, r8, lr}
    2274:	4688      	mov	r8, r1
    2276:	f100 0448 	add.w	r4, r0, #72	; 0x48
    227a:	2600      	movs	r6, #0
    227c:	b18c      	cbz	r4, 22a2 <_fwalk+0x32>
    227e:	68a5      	ldr	r5, [r4, #8]
    2280:	6867      	ldr	r7, [r4, #4]
    2282:	3f01      	subs	r7, #1
    2284:	d40b      	bmi.n	229e <_fwalk+0x2e>
    2286:	89ab      	ldrh	r3, [r5, #12]
    2288:	2b01      	cmp	r3, #1
    228a:	d906      	bls.n	229a <_fwalk+0x2a>
    228c:	f9b5 300e 	ldrsh.w	r3, [r5, #14]
    2290:	3301      	adds	r3, #1
    2292:	d002      	beq.n	229a <_fwalk+0x2a>
    2294:	4628      	mov	r0, r5
    2296:	47c0      	blx	r8
    2298:	4306      	orrs	r6, r0
    229a:	3568      	adds	r5, #104	; 0x68
    229c:	e7f1      	b.n	2282 <_fwalk+0x12>
    229e:	6824      	ldr	r4, [r4, #0]
    22a0:	e7ec      	b.n	227c <_fwalk+0xc>
    22a2:	4630      	mov	r0, r6
    22a4:	e8bd 81f0 	ldmia.w	sp!, {r4, r5, r6, r7, r8, pc}

000022a8 <_fwalk_reent>:
    22a8:	e92d 43f8 	stmdb	sp!, {r3, r4, r5, r6, r7, r8, r9, lr}
    22ac:	4680      	mov	r8, r0
    22ae:	4689      	mov	r9, r1
    22b0:	f100 0448 	add.w	r4, r0, #72	; 0x48
    22b4:	2600      	movs	r6, #0
    22b6:	b194      	cbz	r4, 22de <_fwalk_reent+0x36>
    22b8:	68a5      	ldr	r5, [r4, #8]
    22ba:	6867      	ldr	r7, [r4, #4]
    22bc:	3f01      	subs	r7, #1
    22be:	d40c      	bmi.n	22da <_fwalk_reent+0x32>
    22c0:	89ab      	ldrh	r3, [r5, #12]
    22c2:	2b01      	cmp	r3, #1
    22c4:	d907      	bls.n	22d6 <_fwalk_reent+0x2e>
    22c6:	f9b5 300e 	ldrsh.w	r3, [r5, #14]
    22ca:	3301      	adds	r3, #1
    22cc:	d003      	beq.n	22d6 <_fwalk_reent+0x2e>
    22ce:	4640      	mov	r0, r8
    22d0:	4629      	mov	r1, r5
    22d2:	47c8      	blx	r9
    22d4:	4306      	orrs	r6, r0
    22d6:	3568      	adds	r5, #104	; 0x68
    22d8:	e7f0      	b.n	22bc <_fwalk_reent+0x14>
    22da:	6824      	ldr	r4, [r4, #0]
    22dc:	e7eb      	b.n	22b6 <_fwalk_reent+0xe>
    22de:	4630      	mov	r0, r6
    22e0:	e8bd 83f8 	ldmia.w	sp!, {r3, r4, r5, r6, r7, r8, r9, pc}

000022e4 <__libc_init_array>:
    22e4:	4b0e      	ldr	r3, [pc, #56]	; (2320 <__libc_init_array+0x3c>)
    22e6:	b570      	push	{r4, r5, r6, lr}
    22e8:	461e      	mov	r6, r3
    22ea:	4c0e      	ldr	r4, [pc, #56]	; (2324 <__libc_init_array+0x40>)
    22ec:	2500      	movs	r5, #0
    22ee:	1ae4      	subs	r4, r4, r3
    22f0:	10a4      	asrs	r4, r4, #2
    22f2:	42a5      	cmp	r5, r4
    22f4:	d004      	beq.n	2300 <__libc_init_array+0x1c>
    22f6:	f856 3025 	ldr.w	r3, [r6, r5, lsl #2]
    22fa:	4798      	blx	r3
    22fc:	3501      	adds	r5, #1
    22fe:	e7f8      	b.n	22f2 <__libc_init_array+0xe>
    2300:	f005 fdb0 	bl	7e64 <_init>
    2304:	4b08      	ldr	r3, [pc, #32]	; (2328 <__libc_init_array+0x44>)
    2306:	4c09      	ldr	r4, [pc, #36]	; (232c <__libc_init_array+0x48>)
    2308:	461e      	mov	r6, r3
    230a:	1ae4      	subs	r4, r4, r3
    230c:	10a4      	asrs	r4, r4, #2
    230e:	2500      	movs	r5, #0
    2310:	42a5      	cmp	r5, r4
    2312:	d004      	beq.n	231e <__libc_init_array+0x3a>
    2314:	f856 3025 	ldr.w	r3, [r6, r5, lsl #2]
    2318:	4798      	blx	r3
    231a:	3501      	adds	r5, #1
    231c:	e7f8      	b.n	2310 <__libc_init_array+0x2c>
    231e:	bd70      	pop	{r4, r5, r6, pc}
    2320:	10000174 	.word	0x10000174
    2324:	10000174 	.word	0x10000174
    2328:	10000174 	.word	0x10000174
    232c:	1000017c 	.word	0x1000017c

00002330 <__smakebuf_r>:
    2330:	b5f0      	push	{r4, r5, r6, r7, lr}
    2332:	898b      	ldrh	r3, [r1, #12]
    2334:	b091      	sub	sp, #68	; 0x44
    2336:	079d      	lsls	r5, r3, #30
    2338:	4606      	mov	r6, r0
    233a:	460c      	mov	r4, r1
    233c:	d425      	bmi.n	238a <__smakebuf_r+0x5a>
    233e:	f9b1 100e 	ldrsh.w	r1, [r1, #14]
    2342:	2900      	cmp	r1, #0
    2344:	da08      	bge.n	2358 <__smakebuf_r+0x28>
    2346:	89a3      	ldrh	r3, [r4, #12]
    2348:	2500      	movs	r5, #0
    234a:	f013 0f80 	tst.w	r3, #128	; 0x80
    234e:	bf14      	ite	ne
    2350:	2740      	movne	r7, #64	; 0x40
    2352:	f44f 6780 	moveq.w	r7, #1024	; 0x400
    2356:	e00d      	b.n	2374 <__smakebuf_r+0x44>
    2358:	aa01      	add	r2, sp, #4
    235a:	f003 fe01 	bl	5f60 <_fstat_r>
    235e:	2800      	cmp	r0, #0
    2360:	dbf1      	blt.n	2346 <__smakebuf_r+0x16>
    2362:	9d02      	ldr	r5, [sp, #8]
    2364:	f44f 6780 	mov.w	r7, #1024	; 0x400
    2368:	f405 4570 	and.w	r5, r5, #61440	; 0xf000
    236c:	f5a5 5100 	sub.w	r1, r5, #8192	; 0x2000
    2370:	424d      	negs	r5, r1
    2372:	414d      	adcs	r5, r1
    2374:	4630      	mov	r0, r6
    2376:	4639      	mov	r1, r7
    2378:	f000 f89c 	bl	24b4 <_malloc_r>
    237c:	b960      	cbnz	r0, 2398 <__smakebuf_r+0x68>
    237e:	89a3      	ldrh	r3, [r4, #12]
    2380:	059a      	lsls	r2, r3, #22
    2382:	d41d      	bmi.n	23c0 <__smakebuf_r+0x90>
    2384:	f043 0302 	orr.w	r3, r3, #2
    2388:	81a3      	strh	r3, [r4, #12]
    238a:	f104 0347 	add.w	r3, r4, #71	; 0x47
    238e:	6023      	str	r3, [r4, #0]
    2390:	6123      	str	r3, [r4, #16]
    2392:	2301      	movs	r3, #1
    2394:	6163      	str	r3, [r4, #20]
    2396:	e013      	b.n	23c0 <__smakebuf_r+0x90>
    2398:	4b0a      	ldr	r3, [pc, #40]	; (23c4 <__smakebuf_r+0x94>)
    239a:	62b3      	str	r3, [r6, #40]	; 0x28
    239c:	89a3      	ldrh	r3, [r4, #12]
    239e:	6020      	str	r0, [r4, #0]
    23a0:	f043 0380 	orr.w	r3, r3, #128	; 0x80
    23a4:	81a3      	strh	r3, [r4, #12]
    23a6:	6120      	str	r0, [r4, #16]
    23a8:	6167      	str	r7, [r4, #20]
    23aa:	b14d      	cbz	r5, 23c0 <__smakebuf_r+0x90>
    23ac:	4630      	mov	r0, r6
    23ae:	f9b4 100e 	ldrsh.w	r1, [r4, #14]
    23b2:	f004 f8f3 	bl	659c <_isatty_r>
    23b6:	b118      	cbz	r0, 23c0 <__smakebuf_r+0x90>
    23b8:	89a3      	ldrh	r3, [r4, #12]
    23ba:	f043 0301 	orr.w	r3, r3, #1
    23be:	81a3      	strh	r3, [r4, #12]
    23c0:	b011      	add	sp, #68	; 0x44
    23c2:	bdf0      	pop	{r4, r5, r6, r7, pc}
    23c4:	00001ee9 	.word	0x00001ee9

000023c8 <malloc>:
    23c8:	4b02      	ldr	r3, [pc, #8]	; (23d4 <malloc+0xc>)
    23ca:	4601      	mov	r1, r0
    23cc:	6818      	ldr	r0, [r3, #0]
    23ce:	f000 b871 	b.w	24b4 <_malloc_r>
    23d2:	bf00      	nop
    23d4:	10000134 	.word	0x10000134

000023d8 <free>:
    23d8:	4b02      	ldr	r3, [pc, #8]	; (23e4 <free+0xc>)
    23da:	4601      	mov	r1, r0
    23dc:	6818      	ldr	r0, [r3, #0]
    23de:	f000 b825 	b.w	242c <_free_r>
    23e2:	bf00      	nop
    23e4:	10000134 	.word	0x10000134

000023e8 <memchr>:
    23e8:	b510      	push	{r4, lr}
    23ea:	b2c9      	uxtb	r1, r1
    23ec:	4402      	add	r2, r0
    23ee:	4290      	cmp	r0, r2
    23f0:	4603      	mov	r3, r0
    23f2:	d005      	beq.n	2400 <memchr+0x18>
    23f4:	781c      	ldrb	r4, [r3, #0]
    23f6:	3001      	adds	r0, #1
    23f8:	428c      	cmp	r4, r1
    23fa:	d1f8      	bne.n	23ee <memchr+0x6>
    23fc:	4618      	mov	r0, r3
    23fe:	bd10      	pop	{r4, pc}
    2400:	2000      	movs	r0, #0
    2402:	bd10      	pop	{r4, pc}

00002404 <memcpy>:
    2404:	b510      	push	{r4, lr}
    2406:	1e43      	subs	r3, r0, #1
    2408:	440a      	add	r2, r1
    240a:	4291      	cmp	r1, r2
    240c:	d004      	beq.n	2418 <memcpy+0x14>
    240e:	f811 4b01 	ldrb.w	r4, [r1], #1
    2412:	f803 4f01 	strb.w	r4, [r3, #1]!
    2416:	e7f8      	b.n	240a <memcpy+0x6>
    2418:	bd10      	pop	{r4, pc}

0000241a <memset>:
    241a:	4603      	mov	r3, r0
    241c:	4402      	add	r2, r0
    241e:	4293      	cmp	r3, r2
    2420:	d002      	beq.n	2428 <memset+0xe>
    2422:	f803 1b01 	strb.w	r1, [r3], #1
    2426:	e7fa      	b.n	241e <memset+0x4>
    2428:	4770      	bx	lr
	...

0000242c <_free_r>:
    242c:	b530      	push	{r4, r5, lr}
    242e:	2900      	cmp	r1, #0
    2430:	d03c      	beq.n	24ac <_free_r+0x80>
    2432:	f851 2c04 	ldr.w	r2, [r1, #-4]
    2436:	1f0b      	subs	r3, r1, #4
    2438:	491d      	ldr	r1, [pc, #116]	; (24b0 <_free_r+0x84>)
    243a:	2a00      	cmp	r2, #0
    243c:	bfb8      	it	lt
    243e:	189b      	addlt	r3, r3, r2
    2440:	680a      	ldr	r2, [r1, #0]
    2442:	460c      	mov	r4, r1
    2444:	b912      	cbnz	r2, 244c <_free_r+0x20>
    2446:	605a      	str	r2, [r3, #4]
    2448:	600b      	str	r3, [r1, #0]
    244a:	bd30      	pop	{r4, r5, pc}
    244c:	4293      	cmp	r3, r2
    244e:	d20d      	bcs.n	246c <_free_r+0x40>
    2450:	6819      	ldr	r1, [r3, #0]
    2452:	1858      	adds	r0, r3, r1
    2454:	4290      	cmp	r0, r2
    2456:	bf01      	itttt	eq
    2458:	585a      	ldreq	r2, [r3, r1]
    245a:	1852      	addeq	r2, r2, r1
    245c:	601a      	streq	r2, [r3, #0]
    245e:	6842      	ldreq	r2, [r0, #4]
    2460:	6023      	str	r3, [r4, #0]
    2462:	605a      	str	r2, [r3, #4]
    2464:	bd30      	pop	{r4, r5, pc}
    2466:	4299      	cmp	r1, r3
    2468:	d803      	bhi.n	2472 <_free_r+0x46>
    246a:	460a      	mov	r2, r1
    246c:	6851      	ldr	r1, [r2, #4]
    246e:	2900      	cmp	r1, #0
    2470:	d1f9      	bne.n	2466 <_free_r+0x3a>
    2472:	6814      	ldr	r4, [r2, #0]
    2474:	1915      	adds	r5, r2, r4
    2476:	429d      	cmp	r5, r3
    2478:	d10a      	bne.n	2490 <_free_r+0x64>
    247a:	681b      	ldr	r3, [r3, #0]
    247c:	4423      	add	r3, r4
    247e:	18d0      	adds	r0, r2, r3
    2480:	4288      	cmp	r0, r1
    2482:	6013      	str	r3, [r2, #0]
    2484:	d112      	bne.n	24ac <_free_r+0x80>
    2486:	6808      	ldr	r0, [r1, #0]
    2488:	4403      	add	r3, r0
    248a:	6013      	str	r3, [r2, #0]
    248c:	684b      	ldr	r3, [r1, #4]
    248e:	e00c      	b.n	24aa <_free_r+0x7e>
    2490:	d902      	bls.n	2498 <_free_r+0x6c>
    2492:	230c      	movs	r3, #12
    2494:	6003      	str	r3, [r0, #0]
    2496:	bd30      	pop	{r4, r5, pc}
    2498:	681c      	ldr	r4, [r3, #0]
    249a:	1918      	adds	r0, r3, r4
    249c:	4288      	cmp	r0, r1
    249e:	bf01      	itttt	eq
    24a0:	6808      	ldreq	r0, [r1, #0]
    24a2:	6849      	ldreq	r1, [r1, #4]
    24a4:	1900      	addeq	r0, r0, r4
    24a6:	6018      	streq	r0, [r3, #0]
    24a8:	6059      	str	r1, [r3, #4]
    24aa:	6053      	str	r3, [r2, #4]
    24ac:	bd30      	pop	{r4, r5, pc}
    24ae:	bf00      	nop
    24b0:	10000478 	.word	0x10000478

000024b4 <_malloc_r>:
    24b4:	b570      	push	{r4, r5, r6, lr}
    24b6:	1ccc      	adds	r4, r1, #3
    24b8:	f024 0403 	bic.w	r4, r4, #3
    24bc:	3408      	adds	r4, #8
    24be:	2c0c      	cmp	r4, #12
    24c0:	bf38      	it	cc
    24c2:	240c      	movcc	r4, #12
    24c4:	2c00      	cmp	r4, #0
    24c6:	4606      	mov	r6, r0
    24c8:	da03      	bge.n	24d2 <_malloc_r+0x1e>
    24ca:	230c      	movs	r3, #12
    24cc:	6033      	str	r3, [r6, #0]
    24ce:	2000      	movs	r0, #0
    24d0:	bd70      	pop	{r4, r5, r6, pc}
    24d2:	428c      	cmp	r4, r1
    24d4:	d3f9      	bcc.n	24ca <_malloc_r+0x16>
    24d6:	4a20      	ldr	r2, [pc, #128]	; (2558 <_malloc_r+0xa4>)
    24d8:	6813      	ldr	r3, [r2, #0]
    24da:	4610      	mov	r0, r2
    24dc:	4619      	mov	r1, r3
    24de:	b1a1      	cbz	r1, 250a <_malloc_r+0x56>
    24e0:	680a      	ldr	r2, [r1, #0]
    24e2:	1b12      	subs	r2, r2, r4
    24e4:	d40e      	bmi.n	2504 <_malloc_r+0x50>
    24e6:	2a0b      	cmp	r2, #11
    24e8:	d903      	bls.n	24f2 <_malloc_r+0x3e>
    24ea:	600a      	str	r2, [r1, #0]
    24ec:	188b      	adds	r3, r1, r2
    24ee:	508c      	str	r4, [r1, r2]
    24f0:	e01f      	b.n	2532 <_malloc_r+0x7e>
    24f2:	428b      	cmp	r3, r1
    24f4:	bf0b      	itete	eq
    24f6:	685a      	ldreq	r2, [r3, #4]
    24f8:	684a      	ldrne	r2, [r1, #4]
    24fa:	6002      	streq	r2, [r0, #0]
    24fc:	605a      	strne	r2, [r3, #4]
    24fe:	bf18      	it	ne
    2500:	460b      	movne	r3, r1
    2502:	e016      	b.n	2532 <_malloc_r+0x7e>
    2504:	460b      	mov	r3, r1
    2506:	6849      	ldr	r1, [r1, #4]
    2508:	e7e9      	b.n	24de <_malloc_r+0x2a>
    250a:	4d14      	ldr	r5, [pc, #80]	; (255c <_malloc_r+0xa8>)
    250c:	682b      	ldr	r3, [r5, #0]
    250e:	b91b      	cbnz	r3, 2518 <_malloc_r+0x64>
    2510:	4630      	mov	r0, r6
    2512:	f001 fc13 	bl	3d3c <_sbrk_r>
    2516:	6028      	str	r0, [r5, #0]
    2518:	4630      	mov	r0, r6
    251a:	4621      	mov	r1, r4
    251c:	f001 fc0e 	bl	3d3c <_sbrk_r>
    2520:	1c42      	adds	r2, r0, #1
    2522:	4603      	mov	r3, r0
    2524:	d0d1      	beq.n	24ca <_malloc_r+0x16>
    2526:	1cc5      	adds	r5, r0, #3
    2528:	f025 0503 	bic.w	r5, r5, #3
    252c:	4285      	cmp	r5, r0
    252e:	d10a      	bne.n	2546 <_malloc_r+0x92>
    2530:	601c      	str	r4, [r3, #0]
    2532:	f103 000b 	add.w	r0, r3, #11
    2536:	1d1a      	adds	r2, r3, #4
    2538:	f020 0007 	bic.w	r0, r0, #7
    253c:	1a82      	subs	r2, r0, r2
    253e:	d00a      	beq.n	2556 <_malloc_r+0xa2>
    2540:	4251      	negs	r1, r2
    2542:	5099      	str	r1, [r3, r2]
    2544:	bd70      	pop	{r4, r5, r6, pc}
    2546:	4630      	mov	r0, r6
    2548:	1ae9      	subs	r1, r5, r3
    254a:	f001 fbf7 	bl	3d3c <_sbrk_r>
    254e:	3001      	adds	r0, #1
    2550:	d0bb      	beq.n	24ca <_malloc_r+0x16>
    2552:	462b      	mov	r3, r5
    2554:	e7ec      	b.n	2530 <_malloc_r+0x7c>
    2556:	bd70      	pop	{r4, r5, r6, pc}
    2558:	10000478 	.word	0x10000478
    255c:	10000474 	.word	0x10000474

00002560 <__sfputc_r>:
    2560:	6893      	ldr	r3, [r2, #8]
    2562:	b510      	push	{r4, lr}
    2564:	3b01      	subs	r3, #1
    2566:	2b00      	cmp	r3, #0
    2568:	6093      	str	r3, [r2, #8]
    256a:	da09      	bge.n	2580 <__sfputc_r+0x20>
    256c:	6994      	ldr	r4, [r2, #24]
    256e:	42a3      	cmp	r3, r4
    2570:	db02      	blt.n	2578 <__sfputc_r+0x18>
    2572:	b2cb      	uxtb	r3, r1
    2574:	2b0a      	cmp	r3, #10
    2576:	d103      	bne.n	2580 <__sfputc_r+0x20>
    2578:	e8bd 4010 	ldmia.w	sp!, {r4, lr}
    257c:	f002 bd8e 	b.w	509c <__swbuf_r>
    2580:	6813      	ldr	r3, [r2, #0]
    2582:	1c58      	adds	r0, r3, #1
    2584:	6010      	str	r0, [r2, #0]
    2586:	7019      	strb	r1, [r3, #0]
    2588:	b2c8      	uxtb	r0, r1
    258a:	bd10      	pop	{r4, pc}

0000258c <__sfputs_r>:
    258c:	b5f8      	push	{r3, r4, r5, r6, r7, lr}
    258e:	4606      	mov	r6, r0
    2590:	460f      	mov	r7, r1
    2592:	4614      	mov	r4, r2
    2594:	18d5      	adds	r5, r2, r3
    2596:	42ac      	cmp	r4, r5
    2598:	d008      	beq.n	25ac <__sfputs_r+0x20>
    259a:	4630      	mov	r0, r6
    259c:	f814 1b01 	ldrb.w	r1, [r4], #1
    25a0:	463a      	mov	r2, r7
    25a2:	f7ff ffdd 	bl	2560 <__sfputc_r>
    25a6:	1c43      	adds	r3, r0, #1
    25a8:	d1f5      	bne.n	2596 <__sfputs_r+0xa>
    25aa:	e000      	b.n	25ae <__sfputs_r+0x22>
    25ac:	2000      	movs	r0, #0
    25ae:	bdf8      	pop	{r3, r4, r5, r6, r7, pc}

000025b0 <_vfiprintf_r>:
    25b0:	e92d 43f0 	stmdb	sp!, {r4, r5, r6, r7, r8, r9, lr}
    25b4:	b09d      	sub	sp, #116	; 0x74
    25b6:	460d      	mov	r5, r1
    25b8:	4690      	mov	r8, r2
    25ba:	9303      	str	r3, [sp, #12]
    25bc:	4606      	mov	r6, r0
    25be:	b118      	cbz	r0, 25c8 <_vfiprintf_r+0x18>
    25c0:	6983      	ldr	r3, [r0, #24]
    25c2:	b90b      	cbnz	r3, 25c8 <_vfiprintf_r+0x18>
    25c4:	f7ff fcd0 	bl	1f68 <__sinit>
    25c8:	4b75      	ldr	r3, [pc, #468]	; (27a0 <_vfiprintf_r+0x1f0>)
    25ca:	429d      	cmp	r5, r3
    25cc:	d101      	bne.n	25d2 <_vfiprintf_r+0x22>
    25ce:	6875      	ldr	r5, [r6, #4]
    25d0:	e008      	b.n	25e4 <_vfiprintf_r+0x34>
    25d2:	4b74      	ldr	r3, [pc, #464]	; (27a4 <_vfiprintf_r+0x1f4>)
    25d4:	429d      	cmp	r5, r3
    25d6:	d101      	bne.n	25dc <_vfiprintf_r+0x2c>
    25d8:	68b5      	ldr	r5, [r6, #8]
    25da:	e003      	b.n	25e4 <_vfiprintf_r+0x34>
    25dc:	4b72      	ldr	r3, [pc, #456]	; (27a8 <_vfiprintf_r+0x1f8>)
    25de:	429d      	cmp	r5, r3
    25e0:	bf08      	it	eq
    25e2:	68f5      	ldreq	r5, [r6, #12]
    25e4:	89ab      	ldrh	r3, [r5, #12]
    25e6:	071c      	lsls	r4, r3, #28
    25e8:	d50a      	bpl.n	2600 <_vfiprintf_r+0x50>
    25ea:	692b      	ldr	r3, [r5, #16]
    25ec:	b143      	cbz	r3, 2600 <_vfiprintf_r+0x50>
    25ee:	2300      	movs	r3, #0
    25f0:	9309      	str	r3, [sp, #36]	; 0x24
    25f2:	2320      	movs	r3, #32
    25f4:	f88d 3029 	strb.w	r3, [sp, #41]	; 0x29
    25f8:	2330      	movs	r3, #48	; 0x30
    25fa:	f88d 302a 	strb.w	r3, [sp, #42]	; 0x2a
    25fe:	e041      	b.n	2684 <_vfiprintf_r+0xd4>
    2600:	4630      	mov	r0, r6
    2602:	4629      	mov	r1, r5
    2604:	f002 fdb0 	bl	5168 <__swsetup_r>
    2608:	2800      	cmp	r0, #0
    260a:	d0f0      	beq.n	25ee <_vfiprintf_r+0x3e>
    260c:	f04f 30ff 	mov.w	r0, #4294967295
    2610:	e0c2      	b.n	2798 <_vfiprintf_r+0x1e8>
    2612:	9a03      	ldr	r2, [sp, #12]
    2614:	3401      	adds	r4, #1
    2616:	1d11      	adds	r1, r2, #4
    2618:	6812      	ldr	r2, [r2, #0]
    261a:	9103      	str	r1, [sp, #12]
    261c:	2a00      	cmp	r2, #0
    261e:	bfbb      	ittet	lt
    2620:	4252      	neglt	r2, r2
    2622:	f043 0302 	orrlt.w	r3, r3, #2
    2626:	9207      	strge	r2, [sp, #28]
    2628:	9207      	strlt	r2, [sp, #28]
    262a:	bfb8      	it	lt
    262c:	9304      	strlt	r3, [sp, #16]
    262e:	7823      	ldrb	r3, [r4, #0]
    2630:	2b2e      	cmp	r3, #46	; 0x2e
    2632:	d07b      	beq.n	272c <_vfiprintf_r+0x17c>
    2634:	f8df 8180 	ldr.w	r8, [pc, #384]	; 27b8 <_vfiprintf_r+0x208>
    2638:	7821      	ldrb	r1, [r4, #0]
    263a:	4640      	mov	r0, r8
    263c:	2203      	movs	r2, #3
    263e:	f7ff fed3 	bl	23e8 <memchr>
    2642:	b138      	cbz	r0, 2654 <_vfiprintf_r+0xa4>
    2644:	9a04      	ldr	r2, [sp, #16]
    2646:	ebc8 0000 	rsb	r0, r8, r0
    264a:	2340      	movs	r3, #64	; 0x40
    264c:	4083      	lsls	r3, r0
    264e:	4313      	orrs	r3, r2
    2650:	9304      	str	r3, [sp, #16]
    2652:	3401      	adds	r4, #1
    2654:	7821      	ldrb	r1, [r4, #0]
    2656:	4855      	ldr	r0, [pc, #340]	; (27ac <_vfiprintf_r+0x1fc>)
    2658:	2206      	movs	r2, #6
    265a:	f104 0801 	add.w	r8, r4, #1
    265e:	f88d 1028 	strb.w	r1, [sp, #40]	; 0x28
    2662:	f7ff fec1 	bl	23e8 <memchr>
    2666:	2800      	cmp	r0, #0
    2668:	f000 8085 	beq.w	2776 <_vfiprintf_r+0x1c6>
    266c:	4b50      	ldr	r3, [pc, #320]	; (27b0 <_vfiprintf_r+0x200>)
    266e:	2b00      	cmp	r3, #0
    2670:	d178      	bne.n	2764 <_vfiprintf_r+0x1b4>
    2672:	9b03      	ldr	r3, [sp, #12]
    2674:	3307      	adds	r3, #7
    2676:	f023 0307 	bic.w	r3, r3, #7
    267a:	3308      	adds	r3, #8
    267c:	9303      	str	r3, [sp, #12]
    267e:	9b09      	ldr	r3, [sp, #36]	; 0x24
    2680:	443b      	add	r3, r7
    2682:	9309      	str	r3, [sp, #36]	; 0x24
    2684:	4643      	mov	r3, r8
    2686:	461c      	mov	r4, r3
    2688:	f813 2b01 	ldrb.w	r2, [r3], #1
    268c:	b91a      	cbnz	r2, 2696 <_vfiprintf_r+0xe6>
    268e:	ebb4 0908 	subs.w	r9, r4, r8
    2692:	d00e      	beq.n	26b2 <_vfiprintf_r+0x102>
    2694:	e002      	b.n	269c <_vfiprintf_r+0xec>
    2696:	2a25      	cmp	r2, #37	; 0x25
    2698:	d1f5      	bne.n	2686 <_vfiprintf_r+0xd6>
    269a:	e7f8      	b.n	268e <_vfiprintf_r+0xde>
    269c:	4630      	mov	r0, r6
    269e:	4629      	mov	r1, r5
    26a0:	4642      	mov	r2, r8
    26a2:	464b      	mov	r3, r9
    26a4:	f7ff ff72 	bl	258c <__sfputs_r>
    26a8:	3001      	adds	r0, #1
    26aa:	d070      	beq.n	278e <_vfiprintf_r+0x1de>
    26ac:	9b09      	ldr	r3, [sp, #36]	; 0x24
    26ae:	444b      	add	r3, r9
    26b0:	9309      	str	r3, [sp, #36]	; 0x24
    26b2:	7823      	ldrb	r3, [r4, #0]
    26b4:	2b00      	cmp	r3, #0
    26b6:	d06a      	beq.n	278e <_vfiprintf_r+0x1de>
    26b8:	2300      	movs	r3, #0
    26ba:	f04f 32ff 	mov.w	r2, #4294967295
    26be:	9304      	str	r3, [sp, #16]
    26c0:	9307      	str	r3, [sp, #28]
    26c2:	9205      	str	r2, [sp, #20]
    26c4:	9306      	str	r3, [sp, #24]
    26c6:	f88d 3053 	strb.w	r3, [sp, #83]	; 0x53
    26ca:	931a      	str	r3, [sp, #104]	; 0x68
    26cc:	f104 0801 	add.w	r8, r4, #1
    26d0:	4644      	mov	r4, r8
    26d2:	f8df 90e8 	ldr.w	r9, [pc, #232]	; 27bc <_vfiprintf_r+0x20c>
    26d6:	7821      	ldrb	r1, [r4, #0]
    26d8:	4648      	mov	r0, r9
    26da:	2205      	movs	r2, #5
    26dc:	f7ff fe84 	bl	23e8 <memchr>
    26e0:	f108 0801 	add.w	r8, r8, #1
    26e4:	9b04      	ldr	r3, [sp, #16]
    26e6:	b130      	cbz	r0, 26f6 <_vfiprintf_r+0x146>
    26e8:	ebc9 0000 	rsb	r0, r9, r0
    26ec:	2201      	movs	r2, #1
    26ee:	4082      	lsls	r2, r0
    26f0:	4313      	orrs	r3, r2
    26f2:	9304      	str	r3, [sp, #16]
    26f4:	e7ec      	b.n	26d0 <_vfiprintf_r+0x120>
    26f6:	06d8      	lsls	r0, r3, #27
    26f8:	bf44      	itt	mi
    26fa:	2220      	movmi	r2, #32
    26fc:	f88d 2053 	strbmi.w	r2, [sp, #83]	; 0x53
    2700:	0719      	lsls	r1, r3, #28
    2702:	bf44      	itt	mi
    2704:	222b      	movmi	r2, #43	; 0x2b
    2706:	f88d 2053 	strbmi.w	r2, [sp, #83]	; 0x53
    270a:	7822      	ldrb	r2, [r4, #0]
    270c:	2a2a      	cmp	r2, #42	; 0x2a
    270e:	d080      	beq.n	2612 <_vfiprintf_r+0x62>
    2710:	4623      	mov	r3, r4
    2712:	9907      	ldr	r1, [sp, #28]
    2714:	461c      	mov	r4, r3
    2716:	7822      	ldrb	r2, [r4, #0]
    2718:	3301      	adds	r3, #1
    271a:	3a30      	subs	r2, #48	; 0x30
    271c:	2a09      	cmp	r2, #9
    271e:	d803      	bhi.n	2728 <_vfiprintf_r+0x178>
    2720:	200a      	movs	r0, #10
    2722:	fb00 2101 	mla	r1, r0, r1, r2
    2726:	e7f5      	b.n	2714 <_vfiprintf_r+0x164>
    2728:	9107      	str	r1, [sp, #28]
    272a:	e780      	b.n	262e <_vfiprintf_r+0x7e>
    272c:	7863      	ldrb	r3, [r4, #1]
    272e:	2b2a      	cmp	r3, #42	; 0x2a
    2730:	d10a      	bne.n	2748 <_vfiprintf_r+0x198>
    2732:	9b03      	ldr	r3, [sp, #12]
    2734:	3402      	adds	r4, #2
    2736:	1d1a      	adds	r2, r3, #4
    2738:	681b      	ldr	r3, [r3, #0]
    273a:	9203      	str	r2, [sp, #12]
    273c:	2b00      	cmp	r3, #0
    273e:	bfb8      	it	lt
    2740:	f04f 33ff 	movlt.w	r3, #4294967295
    2744:	9305      	str	r3, [sp, #20]
    2746:	e775      	b.n	2634 <_vfiprintf_r+0x84>
    2748:	1c61      	adds	r1, r4, #1
    274a:	2200      	movs	r2, #0
    274c:	460c      	mov	r4, r1
    274e:	7823      	ldrb	r3, [r4, #0]
    2750:	3101      	adds	r1, #1
    2752:	3b30      	subs	r3, #48	; 0x30
    2754:	2b09      	cmp	r3, #9
    2756:	d803      	bhi.n	2760 <_vfiprintf_r+0x1b0>
    2758:	200a      	movs	r0, #10
    275a:	fb00 3202 	mla	r2, r0, r2, r3
    275e:	e7f5      	b.n	274c <_vfiprintf_r+0x19c>
    2760:	9205      	str	r2, [sp, #20]
    2762:	e767      	b.n	2634 <_vfiprintf_r+0x84>
    2764:	ab03      	add	r3, sp, #12
    2766:	9300      	str	r3, [sp, #0]
    2768:	4630      	mov	r0, r6
    276a:	a904      	add	r1, sp, #16
    276c:	462a      	mov	r2, r5
    276e:	4b11      	ldr	r3, [pc, #68]	; (27b4 <_vfiprintf_r+0x204>)
    2770:	f000 f8c4 	bl	28fc <_printf_float>
    2774:	e007      	b.n	2786 <_vfiprintf_r+0x1d6>
    2776:	ab03      	add	r3, sp, #12
    2778:	9300      	str	r3, [sp, #0]
    277a:	4630      	mov	r0, r6
    277c:	a904      	add	r1, sp, #16
    277e:	462a      	mov	r2, r5
    2780:	4b0c      	ldr	r3, [pc, #48]	; (27b4 <_vfiprintf_r+0x204>)
    2782:	f000 fb77 	bl	2e74 <_printf_i>
    2786:	1c42      	adds	r2, r0, #1
    2788:	4607      	mov	r7, r0
    278a:	f47f af78 	bne.w	267e <_vfiprintf_r+0xce>
    278e:	89ab      	ldrh	r3, [r5, #12]
    2790:	065b      	lsls	r3, r3, #25
    2792:	f53f af3b 	bmi.w	260c <_vfiprintf_r+0x5c>
    2796:	9809      	ldr	r0, [sp, #36]	; 0x24
    2798:	b01d      	add	sp, #116	; 0x74
    279a:	e8bd 83f0 	ldmia.w	sp!, {r4, r5, r6, r7, r8, r9, pc}
    279e:	bf00      	nop
    27a0:	00008558 	.word	0x00008558
    27a4:	00008578 	.word	0x00008578
    27a8:	00008598 	.word	0x00008598
    27ac:	000085ca 	.word	0x000085ca
    27b0:	000028fd 	.word	0x000028fd
    27b4:	0000258d 	.word	0x0000258d
    27b8:	000085c6 	.word	0x000085c6
    27bc:	000085c0 	.word	0x000085c0

000027c0 <vfiprintf>:
    27c0:	b530      	push	{r4, r5, lr}
    27c2:	4605      	mov	r5, r0
    27c4:	460c      	mov	r4, r1
    27c6:	4613      	mov	r3, r2
    27c8:	4a03      	ldr	r2, [pc, #12]	; (27d8 <vfiprintf+0x18>)
    27ca:	4629      	mov	r1, r5
    27cc:	6810      	ldr	r0, [r2, #0]
    27ce:	4622      	mov	r2, r4
    27d0:	e8bd 4030 	ldmia.w	sp!, {r4, r5, lr}
    27d4:	f7ff beec 	b.w	25b0 <_vfiprintf_r>
    27d8:	10000134 	.word	0x10000134

000027dc <__cvt>:
    27dc:	e92d 47f0 	stmdb	sp!, {r4, r5, r6, r7, r8, r9, sl, lr}
    27e0:	461e      	mov	r6, r3
    27e2:	b088      	sub	sp, #32
    27e4:	9f14      	ldr	r7, [sp, #80]	; 0x50
    27e6:	2b00      	cmp	r3, #0
    27e8:	bfb8      	it	lt
    27ea:	f106 4300 	addlt.w	r3, r6, #2147483648	; 0x80000000
    27ee:	9912      	ldr	r1, [sp, #72]	; 0x48
    27f0:	f027 0720 	bic.w	r7, r7, #32
    27f4:	bfb6      	itet	lt
    27f6:	461e      	movlt	r6, r3
    27f8:	2300      	movge	r3, #0
    27fa:	232d      	movlt	r3, #45	; 0x2d
    27fc:	2f46      	cmp	r7, #70	; 0x46
    27fe:	4614      	mov	r4, r2
    2800:	9d10      	ldr	r5, [sp, #64]	; 0x40
    2802:	f8dd a04c 	ldr.w	sl, [sp, #76]	; 0x4c
    2806:	700b      	strb	r3, [r1, #0]
    2808:	d003      	beq.n	2812 <__cvt+0x36>
    280a:	2f45      	cmp	r7, #69	; 0x45
    280c:	d103      	bne.n	2816 <__cvt+0x3a>
    280e:	3501      	adds	r5, #1
    2810:	e001      	b.n	2816 <__cvt+0x3a>
    2812:	2303      	movs	r3, #3
    2814:	e000      	b.n	2818 <__cvt+0x3c>
    2816:	2302      	movs	r3, #2
    2818:	e88d 0428 	stmia.w	sp, {r3, r5, sl}
    281c:	ab06      	add	r3, sp, #24
    281e:	9303      	str	r3, [sp, #12]
    2820:	ab07      	add	r3, sp, #28
    2822:	9304      	str	r3, [sp, #16]
    2824:	4622      	mov	r2, r4
    2826:	4633      	mov	r3, r6
    2828:	f002 fda6 	bl	5378 <_dtoa_r>
    282c:	2f47      	cmp	r7, #71	; 0x47
    282e:	4680      	mov	r8, r0
    2830:	d102      	bne.n	2838 <__cvt+0x5c>
    2832:	9b11      	ldr	r3, [sp, #68]	; 0x44
    2834:	07db      	lsls	r3, r3, #31
    2836:	d526      	bpl.n	2886 <__cvt+0xaa>
    2838:	2f46      	cmp	r7, #70	; 0x46
    283a:	eb08 0905 	add.w	r9, r8, r5
    283e:	d111      	bne.n	2864 <__cvt+0x88>
    2840:	f898 3000 	ldrb.w	r3, [r8]
    2844:	2b30      	cmp	r3, #48	; 0x30
    2846:	d10a      	bne.n	285e <__cvt+0x82>
    2848:	4620      	mov	r0, r4
    284a:	4631      	mov	r1, r6
    284c:	2200      	movs	r2, #0
    284e:	2300      	movs	r3, #0
    2850:	f005 fa3e 	bl	7cd0 <__aeabi_dcmpeq>
    2854:	b918      	cbnz	r0, 285e <__cvt+0x82>
    2856:	f1c5 0501 	rsb	r5, r5, #1
    285a:	f8ca 5000 	str.w	r5, [sl]
    285e:	f8da 3000 	ldr.w	r3, [sl]
    2862:	4499      	add	r9, r3
    2864:	4620      	mov	r0, r4
    2866:	4631      	mov	r1, r6
    2868:	2200      	movs	r2, #0
    286a:	2300      	movs	r3, #0
    286c:	f005 fa30 	bl	7cd0 <__aeabi_dcmpeq>
    2870:	b108      	cbz	r0, 2876 <__cvt+0x9a>
    2872:	f8cd 901c 	str.w	r9, [sp, #28]
    2876:	9b07      	ldr	r3, [sp, #28]
    2878:	454b      	cmp	r3, r9
    287a:	d204      	bcs.n	2886 <__cvt+0xaa>
    287c:	1c5a      	adds	r2, r3, #1
    287e:	9207      	str	r2, [sp, #28]
    2880:	2230      	movs	r2, #48	; 0x30
    2882:	701a      	strb	r2, [r3, #0]
    2884:	e7f7      	b.n	2876 <__cvt+0x9a>
    2886:	4640      	mov	r0, r8
    2888:	9b07      	ldr	r3, [sp, #28]
    288a:	9a15      	ldr	r2, [sp, #84]	; 0x54
    288c:	ebc8 0303 	rsb	r3, r8, r3
    2890:	6013      	str	r3, [r2, #0]
    2892:	b008      	add	sp, #32
    2894:	e8bd 87f0 	ldmia.w	sp!, {r4, r5, r6, r7, r8, r9, sl, pc}

00002898 <__exponent>:
    2898:	4603      	mov	r3, r0
    289a:	b573      	push	{r0, r1, r4, r5, r6, lr}
    289c:	2900      	cmp	r1, #0
    289e:	bfb8      	it	lt
    28a0:	4249      	neglt	r1, r1
    28a2:	f803 2b02 	strb.w	r2, [r3], #2
    28a6:	bfb4      	ite	lt
    28a8:	222d      	movlt	r2, #45	; 0x2d
    28aa:	222b      	movge	r2, #43	; 0x2b
    28ac:	2909      	cmp	r1, #9
    28ae:	7042      	strb	r2, [r0, #1]
    28b0:	dd1a      	ble.n	28e8 <__exponent+0x50>
    28b2:	f10d 0407 	add.w	r4, sp, #7
    28b6:	4626      	mov	r6, r4
    28b8:	220a      	movs	r2, #10
    28ba:	fb91 f5f2 	sdiv	r5, r1, r2
    28be:	fb02 1115 	mls	r1, r2, r5, r1
    28c2:	2d09      	cmp	r5, #9
    28c4:	f101 0130 	add.w	r1, r1, #48	; 0x30
    28c8:	f804 1d01 	strb.w	r1, [r4, #-1]!
    28cc:	4629      	mov	r1, r5
    28ce:	dcf3      	bgt.n	28b8 <__exponent+0x20>
    28d0:	3130      	adds	r1, #48	; 0x30
    28d2:	1e65      	subs	r5, r4, #1
    28d4:	f804 1c01 	strb.w	r1, [r4, #-1]
    28d8:	42b5      	cmp	r5, r6
    28da:	461a      	mov	r2, r3
    28dc:	d20a      	bcs.n	28f4 <__exponent+0x5c>
    28de:	f815 2b01 	ldrb.w	r2, [r5], #1
    28e2:	f803 2b01 	strb.w	r2, [r3], #1
    28e6:	e7f7      	b.n	28d8 <__exponent+0x40>
    28e8:	461a      	mov	r2, r3
    28ea:	2430      	movs	r4, #48	; 0x30
    28ec:	4421      	add	r1, r4
    28ee:	f802 4b02 	strb.w	r4, [r2], #2
    28f2:	7059      	strb	r1, [r3, #1]
    28f4:	1a10      	subs	r0, r2, r0
    28f6:	b002      	add	sp, #8
    28f8:	bd70      	pop	{r4, r5, r6, pc}
	...

000028fc <_printf_float>:
    28fc:	e92d 4ff0 	stmdb	sp!, {r4, r5, r6, r7, r8, r9, sl, fp, lr}
    2900:	b091      	sub	sp, #68	; 0x44
    2902:	468b      	mov	fp, r1
    2904:	4615      	mov	r5, r2
    2906:	461e      	mov	r6, r3
    2908:	9f1a      	ldr	r7, [sp, #104]	; 0x68
    290a:	4604      	mov	r4, r0
    290c:	f003 fe56 	bl	65bc <_localeconv_r>
    2910:	f8d0 a000 	ldr.w	sl, [r0]
    2914:	4650      	mov	r0, sl
    2916:	f001 fb9c 	bl	4052 <strlen>
    291a:	2300      	movs	r3, #0
    291c:	930e      	str	r3, [sp, #56]	; 0x38
    291e:	683b      	ldr	r3, [r7, #0]
    2920:	9009      	str	r0, [sp, #36]	; 0x24
    2922:	3307      	adds	r3, #7
    2924:	f023 0307 	bic.w	r3, r3, #7
    2928:	f103 0208 	add.w	r2, r3, #8
    292c:	f89b 8018 	ldrb.w	r8, [fp, #24]
    2930:	603a      	str	r2, [r7, #0]
    2932:	e9d3 2300 	ldrd	r2, r3, [r3]
    2936:	e9cb 2312 	strd	r2, r3, [fp, #72]	; 0x48
    293a:	e9db 0112 	ldrd	r0, r1, [fp, #72]	; 0x48
    293e:	f001 f9d5 	bl	3cec <__fpclassifyd>
    2942:	2801      	cmp	r0, #1
    2944:	e9db 0112 	ldrd	r0, r1, [fp, #72]	; 0x48
    2948:	d119      	bne.n	297e <_printf_float+0x82>
    294a:	2200      	movs	r2, #0
    294c:	2300      	movs	r3, #0
    294e:	f005 f9c9 	bl	7ce4 <__aeabi_dcmplt>
    2952:	b110      	cbz	r0, 295a <_printf_float+0x5e>
    2954:	232d      	movs	r3, #45	; 0x2d
    2956:	f88b 3043 	strb.w	r3, [fp, #67]	; 0x43
    295a:	4ba0      	ldr	r3, [pc, #640]	; (2bdc <_printf_float+0x2e0>)
    295c:	4fa0      	ldr	r7, [pc, #640]	; (2be0 <_printf_float+0x2e4>)
    295e:	f1b8 0f47 	cmp.w	r8, #71	; 0x47
    2962:	bf88      	it	hi
    2964:	461f      	movhi	r7, r3
    2966:	2303      	movs	r3, #3
    2968:	f8cb 3010 	str.w	r3, [fp, #16]
    296c:	f8db 3000 	ldr.w	r3, [fp]
    2970:	f023 0304 	bic.w	r3, r3, #4
    2974:	f8cb 3000 	str.w	r3, [fp]
    2978:	f04f 0900 	mov.w	r9, #0
    297c:	e0a1      	b.n	2ac2 <_printf_float+0x1c6>
    297e:	f001 f9b5 	bl	3cec <__fpclassifyd>
    2982:	f8db 3000 	ldr.w	r3, [fp]
    2986:	b948      	cbnz	r0, 299c <_printf_float+0xa0>
    2988:	4a96      	ldr	r2, [pc, #600]	; (2be4 <_printf_float+0x2e8>)
    298a:	4f97      	ldr	r7, [pc, #604]	; (2be8 <_printf_float+0x2ec>)
    298c:	f1b8 0f47 	cmp.w	r8, #71	; 0x47
    2990:	bf88      	it	hi
    2992:	4617      	movhi	r7, r2
    2994:	2203      	movs	r2, #3
    2996:	f8cb 2010 	str.w	r2, [fp, #16]
    299a:	e7e9      	b.n	2970 <_printf_float+0x74>
    299c:	f8db 2004 	ldr.w	r2, [fp, #4]
    29a0:	e9db 0112 	ldrd	r0, r1, [fp, #72]	; 0x48
    29a4:	1c57      	adds	r7, r2, #1
    29a6:	e9cd 010a 	strd	r0, r1, [sp, #40]	; 0x28
    29aa:	d101      	bne.n	29b0 <_printf_float+0xb4>
    29ac:	2206      	movs	r2, #6
    29ae:	e009      	b.n	29c4 <_printf_float+0xc8>
    29b0:	f1b8 0f67 	cmp.w	r8, #103	; 0x67
    29b4:	d002      	beq.n	29bc <_printf_float+0xc0>
    29b6:	f1b8 0f47 	cmp.w	r8, #71	; 0x47
    29ba:	d105      	bne.n	29c8 <_printf_float+0xcc>
    29bc:	2a00      	cmp	r2, #0
    29be:	f040 81c7 	bne.w	2d50 <_printf_float+0x454>
    29c2:	2201      	movs	r2, #1
    29c4:	f8cb 2004 	str.w	r2, [fp, #4]
    29c8:	f8db 2004 	ldr.w	r2, [fp, #4]
    29cc:	f443 6380 	orr.w	r3, r3, #1024	; 0x400
    29d0:	e88d 000c 	stmia.w	sp, {r2, r3}
    29d4:	f8cb 3000 	str.w	r3, [fp]
    29d8:	f10d 0333 	add.w	r3, sp, #51	; 0x33
    29dc:	9302      	str	r3, [sp, #8]
    29de:	ab0d      	add	r3, sp, #52	; 0x34
    29e0:	9303      	str	r3, [sp, #12]
    29e2:	ab0e      	add	r3, sp, #56	; 0x38
    29e4:	9305      	str	r3, [sp, #20]
    29e6:	2300      	movs	r3, #0
    29e8:	9306      	str	r3, [sp, #24]
    29ea:	f8cd 8010 	str.w	r8, [sp, #16]
    29ee:	e9dd 230a 	ldrd	r2, r3, [sp, #40]	; 0x28
    29f2:	4620      	mov	r0, r4
    29f4:	f7ff fef2 	bl	27dc <__cvt>
    29f8:	f008 03df 	and.w	r3, r8, #223	; 0xdf
    29fc:	2b47      	cmp	r3, #71	; 0x47
    29fe:	4607      	mov	r7, r0
    2a00:	d10a      	bne.n	2a18 <_printf_float+0x11c>
    2a02:	9b0d      	ldr	r3, [sp, #52]	; 0x34
    2a04:	1cd8      	adds	r0, r3, #3
    2a06:	db03      	blt.n	2a10 <_printf_float+0x114>
    2a08:	f8db 2004 	ldr.w	r2, [fp, #4]
    2a0c:	4293      	cmp	r3, r2
    2a0e:	dd37      	ble.n	2a80 <_printf_float+0x184>
    2a10:	f1a8 0802 	sub.w	r8, r8, #2
    2a14:	fa5f f888 	uxtb.w	r8, r8
    2a18:	f1b8 0f65 	cmp.w	r8, #101	; 0x65
    2a1c:	990d      	ldr	r1, [sp, #52]	; 0x34
    2a1e:	d815      	bhi.n	2a4c <_printf_float+0x150>
    2a20:	3901      	subs	r1, #1
    2a22:	4642      	mov	r2, r8
    2a24:	f10b 0050 	add.w	r0, fp, #80	; 0x50
    2a28:	910d      	str	r1, [sp, #52]	; 0x34
    2a2a:	f7ff ff35 	bl	2898 <__exponent>
    2a2e:	9a0e      	ldr	r2, [sp, #56]	; 0x38
    2a30:	4681      	mov	r9, r0
    2a32:	1883      	adds	r3, r0, r2
    2a34:	2a01      	cmp	r2, #1
    2a36:	f8cb 3010 	str.w	r3, [fp, #16]
    2a3a:	dc03      	bgt.n	2a44 <_printf_float+0x148>
    2a3c:	f8db 2000 	ldr.w	r2, [fp]
    2a40:	07d1      	lsls	r1, r2, #31
    2a42:	d538      	bpl.n	2ab6 <_printf_float+0x1ba>
    2a44:	3301      	adds	r3, #1
    2a46:	f8cb 3010 	str.w	r3, [fp, #16]
    2a4a:	e034      	b.n	2ab6 <_printf_float+0x1ba>
    2a4c:	f1b8 0f66 	cmp.w	r8, #102	; 0x66
    2a50:	d118      	bne.n	2a84 <_printf_float+0x188>
    2a52:	2900      	cmp	r1, #0
    2a54:	f8db 3004 	ldr.w	r3, [fp, #4]
    2a58:	dd09      	ble.n	2a6e <_printf_float+0x172>
    2a5a:	f8cb 1010 	str.w	r1, [fp, #16]
    2a5e:	b91b      	cbnz	r3, 2a68 <_printf_float+0x16c>
    2a60:	f8db 2000 	ldr.w	r2, [fp]
    2a64:	07d2      	lsls	r2, r2, #31
    2a66:	d521      	bpl.n	2aac <_printf_float+0x1b0>
    2a68:	3301      	adds	r3, #1
    2a6a:	440b      	add	r3, r1
    2a6c:	e01c      	b.n	2aa8 <_printf_float+0x1ac>
    2a6e:	b91b      	cbnz	r3, 2a78 <_printf_float+0x17c>
    2a70:	f8db 2000 	ldr.w	r2, [fp]
    2a74:	07d0      	lsls	r0, r2, #31
    2a76:	d501      	bpl.n	2a7c <_printf_float+0x180>
    2a78:	3302      	adds	r3, #2
    2a7a:	e015      	b.n	2aa8 <_printf_float+0x1ac>
    2a7c:	2301      	movs	r3, #1
    2a7e:	e013      	b.n	2aa8 <_printf_float+0x1ac>
    2a80:	f04f 0867 	mov.w	r8, #103	; 0x67
    2a84:	9b0d      	ldr	r3, [sp, #52]	; 0x34
    2a86:	9a0e      	ldr	r2, [sp, #56]	; 0x38
    2a88:	4293      	cmp	r3, r2
    2a8a:	db07      	blt.n	2a9c <_printf_float+0x1a0>
    2a8c:	f8db 2000 	ldr.w	r2, [fp]
    2a90:	f8cb 3010 	str.w	r3, [fp, #16]
    2a94:	07d1      	lsls	r1, r2, #31
    2a96:	d509      	bpl.n	2aac <_printf_float+0x1b0>
    2a98:	3301      	adds	r3, #1
    2a9a:	e005      	b.n	2aa8 <_printf_float+0x1ac>
    2a9c:	2b00      	cmp	r3, #0
    2a9e:	bfd4      	ite	le
    2aa0:	f1c3 0302 	rsble	r3, r3, #2
    2aa4:	2301      	movgt	r3, #1
    2aa6:	4413      	add	r3, r2
    2aa8:	f8cb 3010 	str.w	r3, [fp, #16]
    2aac:	9b0d      	ldr	r3, [sp, #52]	; 0x34
    2aae:	f04f 0900 	mov.w	r9, #0
    2ab2:	f8cb 3058 	str.w	r3, [fp, #88]	; 0x58
    2ab6:	f89d 3033 	ldrb.w	r3, [sp, #51]	; 0x33
    2aba:	b113      	cbz	r3, 2ac2 <_printf_float+0x1c6>
    2abc:	232d      	movs	r3, #45	; 0x2d
    2abe:	f88b 3043 	strb.w	r3, [fp, #67]	; 0x43
    2ac2:	9600      	str	r6, [sp, #0]
    2ac4:	4620      	mov	r0, r4
    2ac6:	4659      	mov	r1, fp
    2ac8:	aa0f      	add	r2, sp, #60	; 0x3c
    2aca:	462b      	mov	r3, r5
    2acc:	f000 f95c 	bl	2d88 <_printf_common>
    2ad0:	3001      	adds	r0, #1
    2ad2:	d102      	bne.n	2ada <_printf_float+0x1de>
    2ad4:	f04f 30ff 	mov.w	r0, #4294967295
    2ad8:	e152      	b.n	2d80 <_printf_float+0x484>
    2ada:	f8db 3000 	ldr.w	r3, [fp]
    2ade:	055a      	lsls	r2, r3, #21
    2ae0:	d405      	bmi.n	2aee <_printf_float+0x1f2>
    2ae2:	4620      	mov	r0, r4
    2ae4:	4629      	mov	r1, r5
    2ae6:	463a      	mov	r2, r7
    2ae8:	f8db 3010 	ldr.w	r3, [fp, #16]
    2aec:	e108      	b.n	2d00 <_printf_float+0x404>
    2aee:	f1b8 0f65 	cmp.w	r8, #101	; 0x65
    2af2:	f240 80d0 	bls.w	2c96 <_printf_float+0x39a>
    2af6:	e9db 0112 	ldrd	r0, r1, [fp, #72]	; 0x48
    2afa:	2200      	movs	r2, #0
    2afc:	2300      	movs	r3, #0
    2afe:	f005 f8e7 	bl	7cd0 <__aeabi_dcmpeq>
    2b02:	b350      	cbz	r0, 2b5a <_printf_float+0x25e>
    2b04:	4620      	mov	r0, r4
    2b06:	4629      	mov	r1, r5
    2b08:	4a38      	ldr	r2, [pc, #224]	; (2bec <_printf_float+0x2f0>)
    2b0a:	2301      	movs	r3, #1
    2b0c:	47b0      	blx	r6
    2b0e:	3001      	adds	r0, #1
    2b10:	d0e0      	beq.n	2ad4 <_printf_float+0x1d8>
    2b12:	9b0e      	ldr	r3, [sp, #56]	; 0x38
    2b14:	9a0d      	ldr	r2, [sp, #52]	; 0x34
    2b16:	429a      	cmp	r2, r3
    2b18:	db09      	blt.n	2b2e <_printf_float+0x232>
    2b1a:	f8db 3000 	ldr.w	r3, [fp]
    2b1e:	07d8      	lsls	r0, r3, #31
    2b20:	d405      	bmi.n	2b2e <_printf_float+0x232>
    2b22:	f8db 3000 	ldr.w	r3, [fp]
    2b26:	079f      	lsls	r7, r3, #30
    2b28:	f100 8110 	bmi.w	2d4c <_printf_float+0x450>
    2b2c:	e107      	b.n	2d3e <_printf_float+0x442>
    2b2e:	4620      	mov	r0, r4
    2b30:	4629      	mov	r1, r5
    2b32:	4652      	mov	r2, sl
    2b34:	9b09      	ldr	r3, [sp, #36]	; 0x24
    2b36:	47b0      	blx	r6
    2b38:	3001      	adds	r0, #1
    2b3a:	d0cb      	beq.n	2ad4 <_printf_float+0x1d8>
    2b3c:	2700      	movs	r7, #0
    2b3e:	9b0e      	ldr	r3, [sp, #56]	; 0x38
    2b40:	3b01      	subs	r3, #1
    2b42:	429f      	cmp	r7, r3
    2b44:	daed      	bge.n	2b22 <_printf_float+0x226>
    2b46:	4620      	mov	r0, r4
    2b48:	4629      	mov	r1, r5
    2b4a:	f10b 021a 	add.w	r2, fp, #26
    2b4e:	2301      	movs	r3, #1
    2b50:	47b0      	blx	r6
    2b52:	3001      	adds	r0, #1
    2b54:	d0be      	beq.n	2ad4 <_printf_float+0x1d8>
    2b56:	3701      	adds	r7, #1
    2b58:	e7f1      	b.n	2b3e <_printf_float+0x242>
    2b5a:	9b0d      	ldr	r3, [sp, #52]	; 0x34
    2b5c:	2b00      	cmp	r3, #0
    2b5e:	dc29      	bgt.n	2bb4 <_printf_float+0x2b8>
    2b60:	4620      	mov	r0, r4
    2b62:	4629      	mov	r1, r5
    2b64:	4a21      	ldr	r2, [pc, #132]	; (2bec <_printf_float+0x2f0>)
    2b66:	2301      	movs	r3, #1
    2b68:	47b0      	blx	r6
    2b6a:	3001      	adds	r0, #1
    2b6c:	d0b2      	beq.n	2ad4 <_printf_float+0x1d8>
    2b6e:	9b0d      	ldr	r3, [sp, #52]	; 0x34
    2b70:	b92b      	cbnz	r3, 2b7e <_printf_float+0x282>
    2b72:	9b0e      	ldr	r3, [sp, #56]	; 0x38
    2b74:	b91b      	cbnz	r3, 2b7e <_printf_float+0x282>
    2b76:	f8db 3000 	ldr.w	r3, [fp]
    2b7a:	07d9      	lsls	r1, r3, #31
    2b7c:	d5d1      	bpl.n	2b22 <_printf_float+0x226>
    2b7e:	4620      	mov	r0, r4
    2b80:	4629      	mov	r1, r5
    2b82:	4652      	mov	r2, sl
    2b84:	9b09      	ldr	r3, [sp, #36]	; 0x24
    2b86:	47b0      	blx	r6
    2b88:	3001      	adds	r0, #1
    2b8a:	d0a3      	beq.n	2ad4 <_printf_float+0x1d8>
    2b8c:	f04f 0800 	mov.w	r8, #0
    2b90:	9b0d      	ldr	r3, [sp, #52]	; 0x34
    2b92:	4620      	mov	r0, r4
    2b94:	425b      	negs	r3, r3
    2b96:	4598      	cmp	r8, r3
    2b98:	4629      	mov	r1, r5
    2b9a:	da08      	bge.n	2bae <_printf_float+0x2b2>
    2b9c:	f10b 021a 	add.w	r2, fp, #26
    2ba0:	2301      	movs	r3, #1
    2ba2:	47b0      	blx	r6
    2ba4:	3001      	adds	r0, #1
    2ba6:	d095      	beq.n	2ad4 <_printf_float+0x1d8>
    2ba8:	f108 0801 	add.w	r8, r8, #1
    2bac:	e7f0      	b.n	2b90 <_printf_float+0x294>
    2bae:	463a      	mov	r2, r7
    2bb0:	9b0e      	ldr	r3, [sp, #56]	; 0x38
    2bb2:	e0a5      	b.n	2d00 <_printf_float+0x404>
    2bb4:	f8db 2058 	ldr.w	r2, [fp, #88]	; 0x58
    2bb8:	9b0e      	ldr	r3, [sp, #56]	; 0x38
    2bba:	429a      	cmp	r2, r3
    2bbc:	bfa8      	it	ge
    2bbe:	461a      	movge	r2, r3
    2bc0:	2a00      	cmp	r2, #0
    2bc2:	4691      	mov	r9, r2
    2bc4:	dc02      	bgt.n	2bcc <_printf_float+0x2d0>
    2bc6:	f04f 0800 	mov.w	r8, #0
    2bca:	e01c      	b.n	2c06 <_printf_float+0x30a>
    2bcc:	4620      	mov	r0, r4
    2bce:	4629      	mov	r1, r5
    2bd0:	463a      	mov	r2, r7
    2bd2:	464b      	mov	r3, r9
    2bd4:	47b0      	blx	r6
    2bd6:	3001      	adds	r0, #1
    2bd8:	d1f5      	bne.n	2bc6 <_printf_float+0x2ca>
    2bda:	e77b      	b.n	2ad4 <_printf_float+0x1d8>
    2bdc:	000085d5 	.word	0x000085d5
    2be0:	000085d1 	.word	0x000085d1
    2be4:	000085dd 	.word	0x000085dd
    2be8:	000085d9 	.word	0x000085d9
    2bec:	0000862a 	.word	0x0000862a
    2bf0:	4620      	mov	r0, r4
    2bf2:	4629      	mov	r1, r5
    2bf4:	f10b 021a 	add.w	r2, fp, #26
    2bf8:	2301      	movs	r3, #1
    2bfa:	47b0      	blx	r6
    2bfc:	3001      	adds	r0, #1
    2bfe:	f43f af69 	beq.w	2ad4 <_printf_float+0x1d8>
    2c02:	f108 0801 	add.w	r8, r8, #1
    2c06:	f8db 3058 	ldr.w	r3, [fp, #88]	; 0x58
    2c0a:	f1b9 0f00 	cmp.w	r9, #0
    2c0e:	bfb4      	ite	lt
    2c10:	461a      	movlt	r2, r3
    2c12:	ebc9 0203 	rsbge	r2, r9, r3
    2c16:	4590      	cmp	r8, r2
    2c18:	dbea      	blt.n	2bf0 <_printf_float+0x2f4>
    2c1a:	eb07 0803 	add.w	r8, r7, r3
    2c1e:	9a0d      	ldr	r2, [sp, #52]	; 0x34
    2c20:	9b0e      	ldr	r3, [sp, #56]	; 0x38
    2c22:	429a      	cmp	r2, r3
    2c24:	db10      	blt.n	2c48 <_printf_float+0x34c>
    2c26:	f8db 3000 	ldr.w	r3, [fp]
    2c2a:	07da      	lsls	r2, r3, #31
    2c2c:	d40c      	bmi.n	2c48 <_printf_float+0x34c>
    2c2e:	9a0e      	ldr	r2, [sp, #56]	; 0x38
    2c30:	4417      	add	r7, r2
    2c32:	ebc8 0307 	rsb	r3, r8, r7
    2c36:	9f0d      	ldr	r7, [sp, #52]	; 0x34
    2c38:	1bd2      	subs	r2, r2, r7
    2c3a:	4293      	cmp	r3, r2
    2c3c:	bfa8      	it	ge
    2c3e:	4613      	movge	r3, r2
    2c40:	2b00      	cmp	r3, #0
    2c42:	461f      	mov	r7, r3
    2c44:	dc08      	bgt.n	2c58 <_printf_float+0x35c>
    2c46:	e00e      	b.n	2c66 <_printf_float+0x36a>
    2c48:	4620      	mov	r0, r4
    2c4a:	4629      	mov	r1, r5
    2c4c:	4652      	mov	r2, sl
    2c4e:	9b09      	ldr	r3, [sp, #36]	; 0x24
    2c50:	47b0      	blx	r6
    2c52:	3001      	adds	r0, #1
    2c54:	d1eb      	bne.n	2c2e <_printf_float+0x332>
    2c56:	e73d      	b.n	2ad4 <_printf_float+0x1d8>
    2c58:	4620      	mov	r0, r4
    2c5a:	4629      	mov	r1, r5
    2c5c:	4642      	mov	r2, r8
    2c5e:	47b0      	blx	r6
    2c60:	3001      	adds	r0, #1
    2c62:	f43f af37 	beq.w	2ad4 <_printf_float+0x1d8>
    2c66:	f04f 0800 	mov.w	r8, #0
    2c6a:	e00a      	b.n	2c82 <_printf_float+0x386>
    2c6c:	4620      	mov	r0, r4
    2c6e:	4629      	mov	r1, r5
    2c70:	f10b 021a 	add.w	r2, fp, #26
    2c74:	2301      	movs	r3, #1
    2c76:	47b0      	blx	r6
    2c78:	3001      	adds	r0, #1
    2c7a:	f43f af2b 	beq.w	2ad4 <_printf_float+0x1d8>
    2c7e:	f108 0801 	add.w	r8, r8, #1
    2c82:	9a0d      	ldr	r2, [sp, #52]	; 0x34
    2c84:	9b0e      	ldr	r3, [sp, #56]	; 0x38
    2c86:	2f00      	cmp	r7, #0
    2c88:	eba3 0302 	sub.w	r3, r3, r2
    2c8c:	bfa8      	it	ge
    2c8e:	1bdb      	subge	r3, r3, r7
    2c90:	4598      	cmp	r8, r3
    2c92:	dbeb      	blt.n	2c6c <_printf_float+0x370>
    2c94:	e745      	b.n	2b22 <_printf_float+0x226>
    2c96:	9a0e      	ldr	r2, [sp, #56]	; 0x38
    2c98:	2a01      	cmp	r2, #1
    2c9a:	dc01      	bgt.n	2ca0 <_printf_float+0x3a4>
    2c9c:	07db      	lsls	r3, r3, #31
    2c9e:	d536      	bpl.n	2d0e <_printf_float+0x412>
    2ca0:	4620      	mov	r0, r4
    2ca2:	4629      	mov	r1, r5
    2ca4:	463a      	mov	r2, r7
    2ca6:	2301      	movs	r3, #1
    2ca8:	47b0      	blx	r6
    2caa:	3001      	adds	r0, #1
    2cac:	f43f af12 	beq.w	2ad4 <_printf_float+0x1d8>
    2cb0:	4620      	mov	r0, r4
    2cb2:	4629      	mov	r1, r5
    2cb4:	4652      	mov	r2, sl
    2cb6:	9b09      	ldr	r3, [sp, #36]	; 0x24
    2cb8:	47b0      	blx	r6
    2cba:	3001      	adds	r0, #1
    2cbc:	f43f af0a 	beq.w	2ad4 <_printf_float+0x1d8>
    2cc0:	e9db 0112 	ldrd	r0, r1, [fp, #72]	; 0x48
    2cc4:	2200      	movs	r2, #0
    2cc6:	2300      	movs	r3, #0
    2cc8:	f005 f802 	bl	7cd0 <__aeabi_dcmpeq>
    2ccc:	b9e8      	cbnz	r0, 2d0a <_printf_float+0x40e>
    2cce:	9b0e      	ldr	r3, [sp, #56]	; 0x38
    2cd0:	4620      	mov	r0, r4
    2cd2:	4629      	mov	r1, r5
    2cd4:	1c7a      	adds	r2, r7, #1
    2cd6:	3b01      	subs	r3, #1
    2cd8:	e01d      	b.n	2d16 <_printf_float+0x41a>
    2cda:	4620      	mov	r0, r4
    2cdc:	4629      	mov	r1, r5
    2cde:	f10b 021a 	add.w	r2, fp, #26
    2ce2:	2301      	movs	r3, #1
    2ce4:	47b0      	blx	r6
    2ce6:	3001      	adds	r0, #1
    2ce8:	f43f aef4 	beq.w	2ad4 <_printf_float+0x1d8>
    2cec:	3701      	adds	r7, #1
    2cee:	9b0e      	ldr	r3, [sp, #56]	; 0x38
    2cf0:	3b01      	subs	r3, #1
    2cf2:	429f      	cmp	r7, r3
    2cf4:	dbf1      	blt.n	2cda <_printf_float+0x3de>
    2cf6:	4620      	mov	r0, r4
    2cf8:	4629      	mov	r1, r5
    2cfa:	464b      	mov	r3, r9
    2cfc:	f10b 0250 	add.w	r2, fp, #80	; 0x50
    2d00:	47b0      	blx	r6
    2d02:	3001      	adds	r0, #1
    2d04:	f47f af0d 	bne.w	2b22 <_printf_float+0x226>
    2d08:	e6e4      	b.n	2ad4 <_printf_float+0x1d8>
    2d0a:	2700      	movs	r7, #0
    2d0c:	e7ef      	b.n	2cee <_printf_float+0x3f2>
    2d0e:	4620      	mov	r0, r4
    2d10:	4629      	mov	r1, r5
    2d12:	463a      	mov	r2, r7
    2d14:	2301      	movs	r3, #1
    2d16:	47b0      	blx	r6
    2d18:	3001      	adds	r0, #1
    2d1a:	d1ec      	bne.n	2cf6 <_printf_float+0x3fa>
    2d1c:	e6da      	b.n	2ad4 <_printf_float+0x1d8>
    2d1e:	4620      	mov	r0, r4
    2d20:	4629      	mov	r1, r5
    2d22:	f10b 0219 	add.w	r2, fp, #25
    2d26:	2301      	movs	r3, #1
    2d28:	47b0      	blx	r6
    2d2a:	3001      	adds	r0, #1
    2d2c:	f43f aed2 	beq.w	2ad4 <_printf_float+0x1d8>
    2d30:	3701      	adds	r7, #1
    2d32:	f8db 300c 	ldr.w	r3, [fp, #12]
    2d36:	9a0f      	ldr	r2, [sp, #60]	; 0x3c
    2d38:	1a9b      	subs	r3, r3, r2
    2d3a:	429f      	cmp	r7, r3
    2d3c:	dbef      	blt.n	2d1e <_printf_float+0x422>
    2d3e:	f8db 000c 	ldr.w	r0, [fp, #12]
    2d42:	9b0f      	ldr	r3, [sp, #60]	; 0x3c
    2d44:	4298      	cmp	r0, r3
    2d46:	bfb8      	it	lt
    2d48:	4618      	movlt	r0, r3
    2d4a:	e019      	b.n	2d80 <_printf_float+0x484>
    2d4c:	2700      	movs	r7, #0
    2d4e:	e7f0      	b.n	2d32 <_printf_float+0x436>
    2d50:	f443 6380 	orr.w	r3, r3, #1024	; 0x400
    2d54:	e88d 000c 	stmia.w	sp, {r2, r3}
    2d58:	f8cb 3000 	str.w	r3, [fp]
    2d5c:	f10d 0333 	add.w	r3, sp, #51	; 0x33
    2d60:	9302      	str	r3, [sp, #8]
    2d62:	ab0d      	add	r3, sp, #52	; 0x34
    2d64:	9303      	str	r3, [sp, #12]
    2d66:	ab0e      	add	r3, sp, #56	; 0x38
    2d68:	9305      	str	r3, [sp, #20]
    2d6a:	2300      	movs	r3, #0
    2d6c:	9306      	str	r3, [sp, #24]
    2d6e:	f8cd 8010 	str.w	r8, [sp, #16]
    2d72:	4620      	mov	r0, r4
    2d74:	e9dd 230a 	ldrd	r2, r3, [sp, #40]	; 0x28
    2d78:	f7ff fd30 	bl	27dc <__cvt>
    2d7c:	4607      	mov	r7, r0
    2d7e:	e640      	b.n	2a02 <_printf_float+0x106>
    2d80:	b011      	add	sp, #68	; 0x44
    2d82:	e8bd 8ff0 	ldmia.w	sp!, {r4, r5, r6, r7, r8, r9, sl, fp, pc}
    2d86:	bf00      	nop

00002d88 <_printf_common>:
    2d88:	e92d 43f8 	stmdb	sp!, {r3, r4, r5, r6, r7, r8, r9, lr}
    2d8c:	4691      	mov	r9, r2
    2d8e:	461f      	mov	r7, r3
    2d90:	688a      	ldr	r2, [r1, #8]
    2d92:	690b      	ldr	r3, [r1, #16]
    2d94:	4606      	mov	r6, r0
    2d96:	4293      	cmp	r3, r2
    2d98:	bfb8      	it	lt
    2d9a:	4613      	movlt	r3, r2
    2d9c:	f8c9 3000 	str.w	r3, [r9]
    2da0:	f891 2043 	ldrb.w	r2, [r1, #67]	; 0x43
    2da4:	460c      	mov	r4, r1
    2da6:	f8dd 8020 	ldr.w	r8, [sp, #32]
    2daa:	b112      	cbz	r2, 2db2 <_printf_common+0x2a>
    2dac:	3301      	adds	r3, #1
    2dae:	f8c9 3000 	str.w	r3, [r9]
    2db2:	6823      	ldr	r3, [r4, #0]
    2db4:	0699      	lsls	r1, r3, #26
    2db6:	bf42      	ittt	mi
    2db8:	f8d9 3000 	ldrmi.w	r3, [r9]
    2dbc:	3302      	addmi	r3, #2
    2dbe:	f8c9 3000 	strmi.w	r3, [r9]
    2dc2:	6825      	ldr	r5, [r4, #0]
    2dc4:	f015 0506 	ands.w	r5, r5, #6
    2dc8:	d01c      	beq.n	2e04 <_printf_common+0x7c>
    2dca:	f894 3043 	ldrb.w	r3, [r4, #67]	; 0x43
    2dce:	6822      	ldr	r2, [r4, #0]
    2dd0:	3300      	adds	r3, #0
    2dd2:	bf18      	it	ne
    2dd4:	2301      	movne	r3, #1
    2dd6:	0692      	lsls	r2, r2, #26
    2dd8:	d51f      	bpl.n	2e1a <_printf_common+0x92>
    2dda:	18e1      	adds	r1, r4, r3
    2ddc:	2030      	movs	r0, #48	; 0x30
    2dde:	f881 0043 	strb.w	r0, [r1, #67]	; 0x43
    2de2:	1c5a      	adds	r2, r3, #1
    2de4:	f894 1045 	ldrb.w	r1, [r4, #69]	; 0x45
    2de8:	4422      	add	r2, r4
    2dea:	3302      	adds	r3, #2
    2dec:	f882 1043 	strb.w	r1, [r2, #67]	; 0x43
    2df0:	e013      	b.n	2e1a <_printf_common+0x92>
    2df2:	4630      	mov	r0, r6
    2df4:	4639      	mov	r1, r7
    2df6:	f104 0219 	add.w	r2, r4, #25
    2dfa:	2301      	movs	r3, #1
    2dfc:	47c0      	blx	r8
    2dfe:	3001      	adds	r0, #1
    2e00:	d007      	beq.n	2e12 <_printf_common+0x8a>
    2e02:	3501      	adds	r5, #1
    2e04:	68e3      	ldr	r3, [r4, #12]
    2e06:	f8d9 2000 	ldr.w	r2, [r9]
    2e0a:	1a9b      	subs	r3, r3, r2
    2e0c:	429d      	cmp	r5, r3
    2e0e:	dbf0      	blt.n	2df2 <_printf_common+0x6a>
    2e10:	e7db      	b.n	2dca <_printf_common+0x42>
    2e12:	f04f 30ff 	mov.w	r0, #4294967295
    2e16:	e8bd 83f8 	ldmia.w	sp!, {r3, r4, r5, r6, r7, r8, r9, pc}
    2e1a:	4630      	mov	r0, r6
    2e1c:	4639      	mov	r1, r7
    2e1e:	f104 0243 	add.w	r2, r4, #67	; 0x43
    2e22:	47c0      	blx	r8
    2e24:	3001      	adds	r0, #1
    2e26:	d0f4      	beq.n	2e12 <_printf_common+0x8a>
    2e28:	6822      	ldr	r2, [r4, #0]
    2e2a:	f8d9 5000 	ldr.w	r5, [r9]
    2e2e:	68e3      	ldr	r3, [r4, #12]
    2e30:	f002 0206 	and.w	r2, r2, #6
    2e34:	2a04      	cmp	r2, #4
    2e36:	bf08      	it	eq
    2e38:	1b5d      	subeq	r5, r3, r5
    2e3a:	6922      	ldr	r2, [r4, #16]
    2e3c:	68a3      	ldr	r3, [r4, #8]
    2e3e:	bf0c      	ite	eq
    2e40:	ea25 75e5 	biceq.w	r5, r5, r5, asr #31
    2e44:	2500      	movne	r5, #0
    2e46:	4293      	cmp	r3, r2
    2e48:	bfc4      	itt	gt
    2e4a:	1a9b      	subgt	r3, r3, r2
    2e4c:	18ed      	addgt	r5, r5, r3
    2e4e:	f04f 0900 	mov.w	r9, #0
    2e52:	45a9      	cmp	r9, r5
    2e54:	da0a      	bge.n	2e6c <_printf_common+0xe4>
    2e56:	4630      	mov	r0, r6
    2e58:	4639      	mov	r1, r7
    2e5a:	f104 021a 	add.w	r2, r4, #26
    2e5e:	2301      	movs	r3, #1
    2e60:	47c0      	blx	r8
    2e62:	3001      	adds	r0, #1
    2e64:	d0d5      	beq.n	2e12 <_printf_common+0x8a>
    2e66:	f109 0901 	add.w	r9, r9, #1
    2e6a:	e7f2      	b.n	2e52 <_printf_common+0xca>
    2e6c:	2000      	movs	r0, #0
    2e6e:	e8bd 83f8 	ldmia.w	sp!, {r3, r4, r5, r6, r7, r8, r9, pc}
	...

00002e74 <_printf_i>:
    2e74:	e92d 41ff 	stmdb	sp!, {r0, r1, r2, r3, r4, r5, r6, r7, r8, lr}
    2e78:	460c      	mov	r4, r1
    2e7a:	4617      	mov	r7, r2
    2e7c:	7e22      	ldrb	r2, [r4, #24]
    2e7e:	4698      	mov	r8, r3
    2e80:	2a6e      	cmp	r2, #110	; 0x6e
    2e82:	4606      	mov	r6, r0
    2e84:	9b0a      	ldr	r3, [sp, #40]	; 0x28
    2e86:	f101 0143 	add.w	r1, r1, #67	; 0x43
    2e8a:	f000 80b0 	beq.w	2fee <_printf_i+0x17a>
    2e8e:	d812      	bhi.n	2eb6 <_printf_i+0x42>
    2e90:	2a63      	cmp	r2, #99	; 0x63
    2e92:	d023      	beq.n	2edc <_printf_i+0x68>
    2e94:	d80a      	bhi.n	2eac <_printf_i+0x38>
    2e96:	2a00      	cmp	r2, #0
    2e98:	f000 80bd 	beq.w	3016 <_printf_i+0x1a2>
    2e9c:	2a58      	cmp	r2, #88	; 0x58
    2e9e:	f040 80cc 	bne.w	303a <_printf_i+0x1c6>
    2ea2:	f884 2045 	strb.w	r2, [r4, #69]	; 0x45
    2ea6:	f8df e204 	ldr.w	lr, [pc, #516]	; 30ac <_printf_i+0x238>
    2eaa:	e057      	b.n	2f5c <_printf_i+0xe8>
    2eac:	2a64      	cmp	r2, #100	; 0x64
    2eae:	d01e      	beq.n	2eee <_printf_i+0x7a>
    2eb0:	2a69      	cmp	r2, #105	; 0x69
    2eb2:	d01c      	beq.n	2eee <_printf_i+0x7a>
    2eb4:	e0c1      	b.n	303a <_printf_i+0x1c6>
    2eb6:	2a73      	cmp	r2, #115	; 0x73
    2eb8:	f000 80b1 	beq.w	301e <_printf_i+0x1aa>
    2ebc:	d809      	bhi.n	2ed2 <_printf_i+0x5e>
    2ebe:	2a6f      	cmp	r2, #111	; 0x6f
    2ec0:	d02e      	beq.n	2f20 <_printf_i+0xac>
    2ec2:	2a70      	cmp	r2, #112	; 0x70
    2ec4:	f040 80b9 	bne.w	303a <_printf_i+0x1c6>
    2ec8:	6822      	ldr	r2, [r4, #0]
    2eca:	f042 0220 	orr.w	r2, r2, #32
    2ece:	6022      	str	r2, [r4, #0]
    2ed0:	e03f      	b.n	2f52 <_printf_i+0xde>
    2ed2:	2a75      	cmp	r2, #117	; 0x75
    2ed4:	d024      	beq.n	2f20 <_printf_i+0xac>
    2ed6:	2a78      	cmp	r2, #120	; 0x78
    2ed8:	d03b      	beq.n	2f52 <_printf_i+0xde>
    2eda:	e0ae      	b.n	303a <_printf_i+0x1c6>
    2edc:	681a      	ldr	r2, [r3, #0]
    2ede:	f104 0542 	add.w	r5, r4, #66	; 0x42
    2ee2:	1d11      	adds	r1, r2, #4
    2ee4:	6019      	str	r1, [r3, #0]
    2ee6:	6813      	ldr	r3, [r2, #0]
    2ee8:	f884 3042 	strb.w	r3, [r4, #66]	; 0x42
    2eec:	e0a9      	b.n	3042 <_printf_i+0x1ce>
    2eee:	6820      	ldr	r0, [r4, #0]
    2ef0:	681a      	ldr	r2, [r3, #0]
    2ef2:	f010 0f80 	tst.w	r0, #128	; 0x80
    2ef6:	d002      	beq.n	2efe <_printf_i+0x8a>
    2ef8:	1d10      	adds	r0, r2, #4
    2efa:	6018      	str	r0, [r3, #0]
    2efc:	e008      	b.n	2f10 <_printf_i+0x9c>
    2efe:	f010 0f40 	tst.w	r0, #64	; 0x40
    2f02:	f102 0004 	add.w	r0, r2, #4
    2f06:	6018      	str	r0, [r3, #0]
    2f08:	d002      	beq.n	2f10 <_printf_i+0x9c>
    2f0a:	f9b2 3000 	ldrsh.w	r3, [r2]
    2f0e:	e000      	b.n	2f12 <_printf_i+0x9e>
    2f10:	6813      	ldr	r3, [r2, #0]
    2f12:	2b00      	cmp	r3, #0
    2f14:	da3e      	bge.n	2f94 <_printf_i+0x120>
    2f16:	222d      	movs	r2, #45	; 0x2d
    2f18:	425b      	negs	r3, r3
    2f1a:	f884 2043 	strb.w	r2, [r4, #67]	; 0x43
    2f1e:	e039      	b.n	2f94 <_printf_i+0x120>
    2f20:	6820      	ldr	r0, [r4, #0]
    2f22:	681a      	ldr	r2, [r3, #0]
    2f24:	f010 0f80 	tst.w	r0, #128	; 0x80
    2f28:	d002      	beq.n	2f30 <_printf_i+0xbc>
    2f2a:	1d10      	adds	r0, r2, #4
    2f2c:	6018      	str	r0, [r3, #0]
    2f2e:	e007      	b.n	2f40 <_printf_i+0xcc>
    2f30:	f010 0f40 	tst.w	r0, #64	; 0x40
    2f34:	f102 0004 	add.w	r0, r2, #4
    2f38:	6018      	str	r0, [r3, #0]
    2f3a:	d001      	beq.n	2f40 <_printf_i+0xcc>
    2f3c:	8813      	ldrh	r3, [r2, #0]
    2f3e:	e000      	b.n	2f42 <_printf_i+0xce>
    2f40:	6813      	ldr	r3, [r2, #0]
    2f42:	7e22      	ldrb	r2, [r4, #24]
    2f44:	f8df e164 	ldr.w	lr, [pc, #356]	; 30ac <_printf_i+0x238>
    2f48:	2a6f      	cmp	r2, #111	; 0x6f
    2f4a:	bf0c      	ite	eq
    2f4c:	2208      	moveq	r2, #8
    2f4e:	220a      	movne	r2, #10
    2f50:	e01c      	b.n	2f8c <_printf_i+0x118>
    2f52:	2278      	movs	r2, #120	; 0x78
    2f54:	f8df e158 	ldr.w	lr, [pc, #344]	; 30b0 <_printf_i+0x23c>
    2f58:	f884 2045 	strb.w	r2, [r4, #69]	; 0x45
    2f5c:	6822      	ldr	r2, [r4, #0]
    2f5e:	6818      	ldr	r0, [r3, #0]
    2f60:	f012 0f80 	tst.w	r2, #128	; 0x80
    2f64:	f100 0504 	add.w	r5, r0, #4
    2f68:	601d      	str	r5, [r3, #0]
    2f6a:	d103      	bne.n	2f74 <_printf_i+0x100>
    2f6c:	0655      	lsls	r5, r2, #25
    2f6e:	d501      	bpl.n	2f74 <_printf_i+0x100>
    2f70:	8803      	ldrh	r3, [r0, #0]
    2f72:	e000      	b.n	2f76 <_printf_i+0x102>
    2f74:	6803      	ldr	r3, [r0, #0]
    2f76:	07d0      	lsls	r0, r2, #31
    2f78:	bf44      	itt	mi
    2f7a:	f042 0220 	orrmi.w	r2, r2, #32
    2f7e:	6022      	strmi	r2, [r4, #0]
    2f80:	b91b      	cbnz	r3, 2f8a <_printf_i+0x116>
    2f82:	6822      	ldr	r2, [r4, #0]
    2f84:	f022 0220 	bic.w	r2, r2, #32
    2f88:	6022      	str	r2, [r4, #0]
    2f8a:	2210      	movs	r2, #16
    2f8c:	2000      	movs	r0, #0
    2f8e:	f884 0043 	strb.w	r0, [r4, #67]	; 0x43
    2f92:	e002      	b.n	2f9a <_printf_i+0x126>
    2f94:	f8df e114 	ldr.w	lr, [pc, #276]	; 30ac <_printf_i+0x238>
    2f98:	220a      	movs	r2, #10
    2f9a:	6865      	ldr	r5, [r4, #4]
    2f9c:	2d00      	cmp	r5, #0
    2f9e:	bfa8      	it	ge
    2fa0:	6820      	ldrge	r0, [r4, #0]
    2fa2:	60a5      	str	r5, [r4, #8]
    2fa4:	bfa4      	itt	ge
    2fa6:	f020 0004 	bicge.w	r0, r0, #4
    2faa:	6020      	strge	r0, [r4, #0]
    2fac:	b903      	cbnz	r3, 2fb0 <_printf_i+0x13c>
    2fae:	b165      	cbz	r5, 2fca <_printf_i+0x156>
    2fb0:	460d      	mov	r5, r1
    2fb2:	fbb3 f0f2 	udiv	r0, r3, r2
    2fb6:	fb02 3310 	mls	r3, r2, r0, r3
    2fba:	f81e 3003 	ldrb.w	r3, [lr, r3]
    2fbe:	f805 3d01 	strb.w	r3, [r5, #-1]!
    2fc2:	4603      	mov	r3, r0
    2fc4:	2800      	cmp	r0, #0
    2fc6:	d1f4      	bne.n	2fb2 <_printf_i+0x13e>
    2fc8:	e000      	b.n	2fcc <_printf_i+0x158>
    2fca:	460d      	mov	r5, r1
    2fcc:	2a08      	cmp	r2, #8
    2fce:	d10b      	bne.n	2fe8 <_printf_i+0x174>
    2fd0:	6823      	ldr	r3, [r4, #0]
    2fd2:	07da      	lsls	r2, r3, #31
    2fd4:	d508      	bpl.n	2fe8 <_printf_i+0x174>
    2fd6:	6923      	ldr	r3, [r4, #16]
    2fd8:	6862      	ldr	r2, [r4, #4]
    2fda:	429a      	cmp	r2, r3
    2fdc:	bfde      	ittt	le
    2fde:	2330      	movle	r3, #48	; 0x30
    2fe0:	f805 3c01 	strble.w	r3, [r5, #-1]
    2fe4:	f105 35ff 	addle.w	r5, r5, #4294967295
    2fe8:	1b49      	subs	r1, r1, r5
    2fea:	6121      	str	r1, [r4, #16]
    2fec:	e02e      	b.n	304c <_printf_i+0x1d8>
    2fee:	6825      	ldr	r5, [r4, #0]
    2ff0:	681a      	ldr	r2, [r3, #0]
    2ff2:	f015 0f80 	tst.w	r5, #128	; 0x80
    2ff6:	6960      	ldr	r0, [r4, #20]
    2ff8:	d003      	beq.n	3002 <_printf_i+0x18e>
    2ffa:	1d15      	adds	r5, r2, #4
    2ffc:	601d      	str	r5, [r3, #0]
    2ffe:	6813      	ldr	r3, [r2, #0]
    3000:	e008      	b.n	3014 <_printf_i+0x1a0>
    3002:	f015 0f40 	tst.w	r5, #64	; 0x40
    3006:	f102 0504 	add.w	r5, r2, #4
    300a:	601d      	str	r5, [r3, #0]
    300c:	6813      	ldr	r3, [r2, #0]
    300e:	d001      	beq.n	3014 <_printf_i+0x1a0>
    3010:	8018      	strh	r0, [r3, #0]
    3012:	e000      	b.n	3016 <_printf_i+0x1a2>
    3014:	6018      	str	r0, [r3, #0]
    3016:	2300      	movs	r3, #0
    3018:	6123      	str	r3, [r4, #16]
    301a:	460d      	mov	r5, r1
    301c:	e016      	b.n	304c <_printf_i+0x1d8>
    301e:	681a      	ldr	r2, [r3, #0]
    3020:	1d11      	adds	r1, r2, #4
    3022:	6019      	str	r1, [r3, #0]
    3024:	6815      	ldr	r5, [r2, #0]
    3026:	2100      	movs	r1, #0
    3028:	4628      	mov	r0, r5
    302a:	6862      	ldr	r2, [r4, #4]
    302c:	f7ff f9dc 	bl	23e8 <memchr>
    3030:	b108      	cbz	r0, 3036 <_printf_i+0x1c2>
    3032:	1b40      	subs	r0, r0, r5
    3034:	6060      	str	r0, [r4, #4]
    3036:	6863      	ldr	r3, [r4, #4]
    3038:	e004      	b.n	3044 <_printf_i+0x1d0>
    303a:	f104 0542 	add.w	r5, r4, #66	; 0x42
    303e:	f884 2042 	strb.w	r2, [r4, #66]	; 0x42
    3042:	2301      	movs	r3, #1
    3044:	6123      	str	r3, [r4, #16]
    3046:	2300      	movs	r3, #0
    3048:	f884 3043 	strb.w	r3, [r4, #67]	; 0x43
    304c:	f8cd 8000 	str.w	r8, [sp]
    3050:	4630      	mov	r0, r6
    3052:	4621      	mov	r1, r4
    3054:	aa03      	add	r2, sp, #12
    3056:	463b      	mov	r3, r7
    3058:	f7ff fe96 	bl	2d88 <_printf_common>
    305c:	3001      	adds	r0, #1
    305e:	d102      	bne.n	3066 <_printf_i+0x1f2>
    3060:	f04f 30ff 	mov.w	r0, #4294967295
    3064:	e01f      	b.n	30a6 <_printf_i+0x232>
    3066:	4630      	mov	r0, r6
    3068:	4639      	mov	r1, r7
    306a:	462a      	mov	r2, r5
    306c:	6923      	ldr	r3, [r4, #16]
    306e:	47c0      	blx	r8
    3070:	3001      	adds	r0, #1
    3072:	d0f5      	beq.n	3060 <_printf_i+0x1ec>
    3074:	6823      	ldr	r3, [r4, #0]
    3076:	079b      	lsls	r3, r3, #30
    3078:	d405      	bmi.n	3086 <_printf_i+0x212>
    307a:	68e0      	ldr	r0, [r4, #12]
    307c:	9b03      	ldr	r3, [sp, #12]
    307e:	4298      	cmp	r0, r3
    3080:	bfb8      	it	lt
    3082:	4618      	movlt	r0, r3
    3084:	e00f      	b.n	30a6 <_printf_i+0x232>
    3086:	2500      	movs	r5, #0
    3088:	68e3      	ldr	r3, [r4, #12]
    308a:	9a03      	ldr	r2, [sp, #12]
    308c:	1a9b      	subs	r3, r3, r2
    308e:	429d      	cmp	r5, r3
    3090:	daf3      	bge.n	307a <_printf_i+0x206>
    3092:	4630      	mov	r0, r6
    3094:	4639      	mov	r1, r7
    3096:	f104 0219 	add.w	r2, r4, #25
    309a:	2301      	movs	r3, #1
    309c:	47c0      	blx	r8
    309e:	3001      	adds	r0, #1
    30a0:	d0de      	beq.n	3060 <_printf_i+0x1ec>
    30a2:	3501      	adds	r5, #1
    30a4:	e7f0      	b.n	3088 <_printf_i+0x214>
    30a6:	b004      	add	sp, #16
    30a8:	e8bd 81f0 	ldmia.w	sp!, {r4, r5, r6, r7, r8, pc}
    30ac:	000085e1 	.word	0x000085e1
    30b0:	000085f2 	.word	0x000085f2

000030b4 <__svfiscanf_r>:
    30b4:	e92d 47f0 	stmdb	sp!, {r4, r5, r6, r7, r8, r9, sl, lr}
    30b8:	4607      	mov	r7, r0
    30ba:	460c      	mov	r4, r1
    30bc:	4690      	mov	r8, r2
    30be:	f5ad 7d24 	sub.w	sp, sp, #656	; 0x290
    30c2:	9301      	str	r3, [sp, #4]
    30c4:	2300      	movs	r3, #0
    30c6:	9346      	str	r3, [sp, #280]	; 0x118
    30c8:	9347      	str	r3, [sp, #284]	; 0x11c
    30ca:	4b9c      	ldr	r3, [pc, #624]	; (333c <__svfiscanf_r+0x288>)
    30cc:	f10d 0a0c 	add.w	sl, sp, #12
    30d0:	93a2      	str	r3, [sp, #648]	; 0x288
    30d2:	4b9b      	ldr	r3, [pc, #620]	; (3340 <__svfiscanf_r+0x28c>)
    30d4:	f8cd a120 	str.w	sl, [sp, #288]	; 0x120
    30d8:	93a3      	str	r3, [sp, #652]	; 0x28c
    30da:	f898 5000 	ldrb.w	r5, [r8]
    30de:	2d00      	cmp	r5, #0
    30e0:	f000 8124 	beq.w	332c <__svfiscanf_r+0x278>
    30e4:	4997      	ldr	r1, [pc, #604]	; (3344 <__svfiscanf_r+0x290>)
    30e6:	680b      	ldr	r3, [r1, #0]
    30e8:	4689      	mov	r9, r1
    30ea:	442b      	add	r3, r5
    30ec:	785b      	ldrb	r3, [r3, #1]
    30ee:	f003 0308 	and.w	r3, r3, #8
    30f2:	f003 02ff 	and.w	r2, r3, #255	; 0xff
    30f6:	b1eb      	cbz	r3, 3134 <__svfiscanf_r+0x80>
    30f8:	6863      	ldr	r3, [r4, #4]
    30fa:	2b00      	cmp	r3, #0
    30fc:	dd10      	ble.n	3120 <__svfiscanf_r+0x6c>
    30fe:	6823      	ldr	r3, [r4, #0]
    3100:	f8d9 1000 	ldr.w	r1, [r9]
    3104:	781a      	ldrb	r2, [r3, #0]
    3106:	440a      	add	r2, r1
    3108:	7852      	ldrb	r2, [r2, #1]
    310a:	0715      	lsls	r5, r2, #28
    310c:	d50e      	bpl.n	312c <__svfiscanf_r+0x78>
    310e:	9a47      	ldr	r2, [sp, #284]	; 0x11c
    3110:	3301      	adds	r3, #1
    3112:	3201      	adds	r2, #1
    3114:	9247      	str	r2, [sp, #284]	; 0x11c
    3116:	6862      	ldr	r2, [r4, #4]
    3118:	6023      	str	r3, [r4, #0]
    311a:	3a01      	subs	r2, #1
    311c:	6062      	str	r2, [r4, #4]
    311e:	e7eb      	b.n	30f8 <__svfiscanf_r+0x44>
    3120:	9ba3      	ldr	r3, [sp, #652]	; 0x28c
    3122:	4638      	mov	r0, r7
    3124:	4621      	mov	r1, r4
    3126:	4798      	blx	r3
    3128:	2800      	cmp	r0, #0
    312a:	d0e8      	beq.n	30fe <__svfiscanf_r+0x4a>
    312c:	f108 0601 	add.w	r6, r8, #1
    3130:	46b0      	mov	r8, r6
    3132:	e7d2      	b.n	30da <__svfiscanf_r+0x26>
    3134:	2d25      	cmp	r5, #37	; 0x25
    3136:	f108 0601 	add.w	r6, r8, #1
    313a:	d14f      	bne.n	31dc <__svfiscanf_r+0x128>
    313c:	9245      	str	r2, [sp, #276]	; 0x114
    313e:	9243      	str	r2, [sp, #268]	; 0x10c
    3140:	f898 3001 	ldrb.w	r3, [r8, #1]
    3144:	2b2a      	cmp	r3, #42	; 0x2a
    3146:	d103      	bne.n	3150 <__svfiscanf_r+0x9c>
    3148:	2310      	movs	r3, #16
    314a:	9343      	str	r3, [sp, #268]	; 0x10c
    314c:	f108 0602 	add.w	r6, r8, #2
    3150:	7831      	ldrb	r1, [r6, #0]
    3152:	4635      	mov	r5, r6
    3154:	f1a1 0330 	sub.w	r3, r1, #48	; 0x30
    3158:	2b09      	cmp	r3, #9
    315a:	f106 0601 	add.w	r6, r6, #1
    315e:	d806      	bhi.n	316e <__svfiscanf_r+0xba>
    3160:	9b45      	ldr	r3, [sp, #276]	; 0x114
    3162:	220a      	movs	r2, #10
    3164:	fb02 1303 	mla	r3, r2, r3, r1
    3168:	3b30      	subs	r3, #48	; 0x30
    316a:	9345      	str	r3, [sp, #276]	; 0x114
    316c:	e7f0      	b.n	3150 <__svfiscanf_r+0x9c>
    316e:	f8df 81dc 	ldr.w	r8, [pc, #476]	; 334c <__svfiscanf_r+0x298>
    3172:	2203      	movs	r2, #3
    3174:	4640      	mov	r0, r8
    3176:	f7ff f937 	bl	23e8 <memchr>
    317a:	b140      	cbz	r0, 318e <__svfiscanf_r+0xda>
    317c:	4635      	mov	r5, r6
    317e:	2301      	movs	r3, #1
    3180:	ebc8 0000 	rsb	r0, r8, r0
    3184:	fa03 f200 	lsl.w	r2, r3, r0
    3188:	9b43      	ldr	r3, [sp, #268]	; 0x10c
    318a:	4313      	orrs	r3, r2
    318c:	9343      	str	r3, [sp, #268]	; 0x10c
    318e:	1c6e      	adds	r6, r5, #1
    3190:	782d      	ldrb	r5, [r5, #0]
    3192:	2d67      	cmp	r5, #103	; 0x67
    3194:	d80f      	bhi.n	31b6 <__svfiscanf_r+0x102>
    3196:	2d65      	cmp	r5, #101	; 0x65
    3198:	d278      	bcs.n	328c <__svfiscanf_r+0x1d8>
    319a:	2d5b      	cmp	r5, #91	; 0x5b
    319c:	d054      	beq.n	3248 <__svfiscanf_r+0x194>
    319e:	d805      	bhi.n	31ac <__svfiscanf_r+0xf8>
    31a0:	2d00      	cmp	r5, #0
    31a2:	f000 80c5 	beq.w	3330 <__svfiscanf_r+0x27c>
    31a6:	2d25      	cmp	r5, #37	; 0x25
    31a8:	d018      	beq.n	31dc <__svfiscanf_r+0x128>
    31aa:	e071      	b.n	3290 <__svfiscanf_r+0x1dc>
    31ac:	2d63      	cmp	r5, #99	; 0x63
    31ae:	d057      	beq.n	3260 <__svfiscanf_r+0x1ac>
    31b0:	2d64      	cmp	r5, #100	; 0x64
    31b2:	d03f      	beq.n	3234 <__svfiscanf_r+0x180>
    31b4:	e06c      	b.n	3290 <__svfiscanf_r+0x1dc>
    31b6:	2d70      	cmp	r5, #112	; 0x70
    31b8:	d032      	beq.n	3220 <__svfiscanf_r+0x16c>
    31ba:	d807      	bhi.n	31cc <__svfiscanf_r+0x118>
    31bc:	2d6e      	cmp	r5, #110	; 0x6e
    31be:	d055      	beq.n	326c <__svfiscanf_r+0x1b8>
    31c0:	d83a      	bhi.n	3238 <__svfiscanf_r+0x184>
    31c2:	2d69      	cmp	r5, #105	; 0x69
    31c4:	d164      	bne.n	3290 <__svfiscanf_r+0x1dc>
    31c6:	2300      	movs	r3, #0
    31c8:	9344      	str	r3, [sp, #272]	; 0x110
    31ca:	e03b      	b.n	3244 <__svfiscanf_r+0x190>
    31cc:	2d75      	cmp	r5, #117	; 0x75
    31ce:	d031      	beq.n	3234 <__svfiscanf_r+0x180>
    31d0:	2d78      	cmp	r5, #120	; 0x78
    31d2:	d029      	beq.n	3228 <__svfiscanf_r+0x174>
    31d4:	2d73      	cmp	r5, #115	; 0x73
    31d6:	d15b      	bne.n	3290 <__svfiscanf_r+0x1dc>
    31d8:	2302      	movs	r3, #2
    31da:	e03f      	b.n	325c <__svfiscanf_r+0x1a8>
    31dc:	6863      	ldr	r3, [r4, #4]
    31de:	2b00      	cmp	r3, #0
    31e0:	dd0d      	ble.n	31fe <__svfiscanf_r+0x14a>
    31e2:	6823      	ldr	r3, [r4, #0]
    31e4:	781a      	ldrb	r2, [r3, #0]
    31e6:	42aa      	cmp	r2, r5
    31e8:	f040 80a0 	bne.w	332c <__svfiscanf_r+0x278>
    31ec:	3301      	adds	r3, #1
    31ee:	6862      	ldr	r2, [r4, #4]
    31f0:	6023      	str	r3, [r4, #0]
    31f2:	9b47      	ldr	r3, [sp, #284]	; 0x11c
    31f4:	3a01      	subs	r2, #1
    31f6:	3301      	adds	r3, #1
    31f8:	6062      	str	r2, [r4, #4]
    31fa:	9347      	str	r3, [sp, #284]	; 0x11c
    31fc:	e798      	b.n	3130 <__svfiscanf_r+0x7c>
    31fe:	9ba3      	ldr	r3, [sp, #652]	; 0x28c
    3200:	4638      	mov	r0, r7
    3202:	4621      	mov	r1, r4
    3204:	4798      	blx	r3
    3206:	2800      	cmp	r0, #0
    3208:	d0eb      	beq.n	31e2 <__svfiscanf_r+0x12e>
    320a:	9846      	ldr	r0, [sp, #280]	; 0x118
    320c:	2800      	cmp	r0, #0
    320e:	f000 808f 	beq.w	3330 <__svfiscanf_r+0x27c>
    3212:	89a3      	ldrh	r3, [r4, #12]
    3214:	f013 0f40 	tst.w	r3, #64	; 0x40
    3218:	bf18      	it	ne
    321a:	f04f 30ff 	movne.w	r0, #4294967295
    321e:	e089      	b.n	3334 <__svfiscanf_r+0x280>
    3220:	9b43      	ldr	r3, [sp, #268]	; 0x10c
    3222:	f043 0320 	orr.w	r3, r3, #32
    3226:	9343      	str	r3, [sp, #268]	; 0x10c
    3228:	9b43      	ldr	r3, [sp, #268]	; 0x10c
    322a:	f443 7300 	orr.w	r3, r3, #512	; 0x200
    322e:	9343      	str	r3, [sp, #268]	; 0x10c
    3230:	2310      	movs	r3, #16
    3232:	e002      	b.n	323a <__svfiscanf_r+0x186>
    3234:	230a      	movs	r3, #10
    3236:	e000      	b.n	323a <__svfiscanf_r+0x186>
    3238:	2308      	movs	r3, #8
    323a:	2d6e      	cmp	r5, #110	; 0x6e
    323c:	9344      	str	r3, [sp, #272]	; 0x110
    323e:	dd01      	ble.n	3244 <__svfiscanf_r+0x190>
    3240:	2304      	movs	r3, #4
    3242:	e00b      	b.n	325c <__svfiscanf_r+0x1a8>
    3244:	2303      	movs	r3, #3
    3246:	e009      	b.n	325c <__svfiscanf_r+0x1a8>
    3248:	4631      	mov	r1, r6
    324a:	4650      	mov	r0, sl
    324c:	f000 fd9e 	bl	3d8c <__sccl>
    3250:	4606      	mov	r6, r0
    3252:	9b43      	ldr	r3, [sp, #268]	; 0x10c
    3254:	f043 0340 	orr.w	r3, r3, #64	; 0x40
    3258:	9343      	str	r3, [sp, #268]	; 0x10c
    325a:	2301      	movs	r3, #1
    325c:	9349      	str	r3, [sp, #292]	; 0x124
    325e:	e01b      	b.n	3298 <__svfiscanf_r+0x1e4>
    3260:	9b43      	ldr	r3, [sp, #268]	; 0x10c
    3262:	f043 0340 	orr.w	r3, r3, #64	; 0x40
    3266:	9343      	str	r3, [sp, #268]	; 0x10c
    3268:	2300      	movs	r3, #0
    326a:	e7f7      	b.n	325c <__svfiscanf_r+0x1a8>
    326c:	9a43      	ldr	r2, [sp, #268]	; 0x10c
    326e:	06d0      	lsls	r0, r2, #27
    3270:	f53f af5e 	bmi.w	3130 <__svfiscanf_r+0x7c>
    3274:	f012 0f01 	tst.w	r2, #1
    3278:	9a01      	ldr	r2, [sp, #4]
    327a:	9b47      	ldr	r3, [sp, #284]	; 0x11c
    327c:	f102 0104 	add.w	r1, r2, #4
    3280:	9101      	str	r1, [sp, #4]
    3282:	6812      	ldr	r2, [r2, #0]
    3284:	bf14      	ite	ne
    3286:	8013      	strhne	r3, [r2, #0]
    3288:	6013      	streq	r3, [r2, #0]
    328a:	e751      	b.n	3130 <__svfiscanf_r+0x7c>
    328c:	2305      	movs	r3, #5
    328e:	e7e5      	b.n	325c <__svfiscanf_r+0x1a8>
    3290:	2303      	movs	r3, #3
    3292:	9349      	str	r3, [sp, #292]	; 0x124
    3294:	230a      	movs	r3, #10
    3296:	9344      	str	r3, [sp, #272]	; 0x110
    3298:	6863      	ldr	r3, [r4, #4]
    329a:	2b00      	cmp	r3, #0
    329c:	dd03      	ble.n	32a6 <__svfiscanf_r+0x1f2>
    329e:	9b43      	ldr	r3, [sp, #268]	; 0x10c
    32a0:	0659      	lsls	r1, r3, #25
    32a2:	d511      	bpl.n	32c8 <__svfiscanf_r+0x214>
    32a4:	e018      	b.n	32d8 <__svfiscanf_r+0x224>
    32a6:	9ba3      	ldr	r3, [sp, #652]	; 0x28c
    32a8:	4638      	mov	r0, r7
    32aa:	4621      	mov	r1, r4
    32ac:	4798      	blx	r3
    32ae:	2800      	cmp	r0, #0
    32b0:	d0f5      	beq.n	329e <__svfiscanf_r+0x1ea>
    32b2:	e7aa      	b.n	320a <__svfiscanf_r+0x156>
    32b4:	9a47      	ldr	r2, [sp, #284]	; 0x11c
    32b6:	3201      	adds	r2, #1
    32b8:	9247      	str	r2, [sp, #284]	; 0x11c
    32ba:	6862      	ldr	r2, [r4, #4]
    32bc:	3a01      	subs	r2, #1
    32be:	2a00      	cmp	r2, #0
    32c0:	6062      	str	r2, [r4, #4]
    32c2:	dd13      	ble.n	32ec <__svfiscanf_r+0x238>
    32c4:	3301      	adds	r3, #1
    32c6:	6023      	str	r3, [r4, #0]
    32c8:	6823      	ldr	r3, [r4, #0]
    32ca:	f8d9 1000 	ldr.w	r1, [r9]
    32ce:	781a      	ldrb	r2, [r3, #0]
    32d0:	440a      	add	r2, r1
    32d2:	7852      	ldrb	r2, [r2, #1]
    32d4:	0712      	lsls	r2, r2, #28
    32d6:	d4ed      	bmi.n	32b4 <__svfiscanf_r+0x200>
    32d8:	9b49      	ldr	r3, [sp, #292]	; 0x124
    32da:	2b02      	cmp	r3, #2
    32dc:	dc0d      	bgt.n	32fa <__svfiscanf_r+0x246>
    32de:	4638      	mov	r0, r7
    32e0:	a943      	add	r1, sp, #268	; 0x10c
    32e2:	4622      	mov	r2, r4
    32e4:	ab01      	add	r3, sp, #4
    32e6:	f000 fa41 	bl	376c <_scanf_chars>
    32ea:	e019      	b.n	3320 <__svfiscanf_r+0x26c>
    32ec:	9ba3      	ldr	r3, [sp, #652]	; 0x28c
    32ee:	4638      	mov	r0, r7
    32f0:	4621      	mov	r1, r4
    32f2:	4798      	blx	r3
    32f4:	2800      	cmp	r0, #0
    32f6:	d0e7      	beq.n	32c8 <__svfiscanf_r+0x214>
    32f8:	e787      	b.n	320a <__svfiscanf_r+0x156>
    32fa:	2b04      	cmp	r3, #4
    32fc:	dc06      	bgt.n	330c <__svfiscanf_r+0x258>
    32fe:	4638      	mov	r0, r7
    3300:	a943      	add	r1, sp, #268	; 0x10c
    3302:	4622      	mov	r2, r4
    3304:	ab01      	add	r3, sp, #4
    3306:	f000 fa8f 	bl	3828 <_scanf_i>
    330a:	e009      	b.n	3320 <__svfiscanf_r+0x26c>
    330c:	4b0e      	ldr	r3, [pc, #56]	; (3348 <__svfiscanf_r+0x294>)
    330e:	2b00      	cmp	r3, #0
    3310:	f43f af0e 	beq.w	3130 <__svfiscanf_r+0x7c>
    3314:	4638      	mov	r0, r7
    3316:	a943      	add	r1, sp, #268	; 0x10c
    3318:	4622      	mov	r2, r4
    331a:	ab01      	add	r3, sp, #4
    331c:	f000 f840 	bl	33a0 <_scanf_float>
    3320:	2801      	cmp	r0, #1
    3322:	d003      	beq.n	332c <__svfiscanf_r+0x278>
    3324:	2802      	cmp	r0, #2
    3326:	f47f af03 	bne.w	3130 <__svfiscanf_r+0x7c>
    332a:	e76e      	b.n	320a <__svfiscanf_r+0x156>
    332c:	9846      	ldr	r0, [sp, #280]	; 0x118
    332e:	e001      	b.n	3334 <__svfiscanf_r+0x280>
    3330:	f04f 30ff 	mov.w	r0, #4294967295
    3334:	f50d 7d24 	add.w	sp, sp, #656	; 0x290
    3338:	e8bd 87f0 	ldmia.w	sp!, {r4, r5, r6, r7, r8, r9, sl, pc}
    333c:	00004fb9 	.word	0x00004fb9
    3340:	00003b89 	.word	0x00003b89
    3344:	10000138 	.word	0x10000138
    3348:	000033a1 	.word	0x000033a1
    334c:	000085c6 	.word	0x000085c6

00003350 <_vfiscanf_r>:
    3350:	e92d 41f0 	stmdb	sp!, {r4, r5, r6, r7, r8, lr}
    3354:	460c      	mov	r4, r1
    3356:	4617      	mov	r7, r2
    3358:	461e      	mov	r6, r3
    335a:	4605      	mov	r5, r0
    335c:	b118      	cbz	r0, 3366 <_vfiscanf_r+0x16>
    335e:	6983      	ldr	r3, [r0, #24]
    3360:	b90b      	cbnz	r3, 3366 <_vfiscanf_r+0x16>
    3362:	f7fe fe01 	bl	1f68 <__sinit>
    3366:	4b0b      	ldr	r3, [pc, #44]	; (3394 <_vfiscanf_r+0x44>)
    3368:	429c      	cmp	r4, r3
    336a:	d101      	bne.n	3370 <_vfiscanf_r+0x20>
    336c:	686c      	ldr	r4, [r5, #4]
    336e:	e008      	b.n	3382 <_vfiscanf_r+0x32>
    3370:	4b09      	ldr	r3, [pc, #36]	; (3398 <_vfiscanf_r+0x48>)
    3372:	429c      	cmp	r4, r3
    3374:	d101      	bne.n	337a <_vfiscanf_r+0x2a>
    3376:	68ac      	ldr	r4, [r5, #8]
    3378:	e003      	b.n	3382 <_vfiscanf_r+0x32>
    337a:	4b08      	ldr	r3, [pc, #32]	; (339c <_vfiscanf_r+0x4c>)
    337c:	429c      	cmp	r4, r3
    337e:	bf08      	it	eq
    3380:	68ec      	ldreq	r4, [r5, #12]
    3382:	4628      	mov	r0, r5
    3384:	4621      	mov	r1, r4
    3386:	463a      	mov	r2, r7
    3388:	4633      	mov	r3, r6
    338a:	e8bd 41f0 	ldmia.w	sp!, {r4, r5, r6, r7, r8, lr}
    338e:	f7ff be91 	b.w	30b4 <__svfiscanf_r>
    3392:	bf00      	nop
    3394:	00008558 	.word	0x00008558
    3398:	00008578 	.word	0x00008578
    339c:	00008598 	.word	0x00008598

000033a0 <_scanf_float>:
    33a0:	e92d 4ff0 	stmdb	sp!, {r4, r5, r6, r7, r8, r9, sl, fp, lr}
    33a4:	4699      	mov	r9, r3
    33a6:	688b      	ldr	r3, [r1, #8]
    33a8:	4615      	mov	r5, r2
    33aa:	1e5a      	subs	r2, r3, #1
    33ac:	f5b2 7fae 	cmp.w	r2, #348	; 0x15c
    33b0:	bf82      	ittt	hi
    33b2:	f46f 72ae 	mvnhi.w	r2, #348	; 0x15c
    33b6:	eb03 0c02 	addhi.w	ip, r3, r2
    33ba:	f240 135d 	movwhi	r3, #349	; 0x15d
    33be:	460f      	mov	r7, r1
    33c0:	bf88      	it	hi
    33c2:	608b      	strhi	r3, [r1, #8]
    33c4:	680b      	ldr	r3, [r1, #0]
    33c6:	f04f 0b00 	mov.w	fp, #0
    33ca:	f443 63f0 	orr.w	r3, r3, #1920	; 0x780
    33ce:	f847 3b1c 	str.w	r3, [r7], #28
    33d2:	4606      	mov	r6, r0
    33d4:	460c      	mov	r4, r1
    33d6:	46b8      	mov	r8, r7
    33d8:	465a      	mov	r2, fp
    33da:	46da      	mov	sl, fp
    33dc:	b087      	sub	sp, #28
    33de:	bf98      	it	ls
    33e0:	f04f 0c00 	movls.w	ip, #0
    33e4:	f8cd b00c 	str.w	fp, [sp, #12]
    33e8:	f8cd b008 	str.w	fp, [sp, #8]
    33ec:	f8cd b004 	str.w	fp, [sp, #4]
    33f0:	68a1      	ldr	r1, [r4, #8]
    33f2:	2900      	cmp	r1, #0
    33f4:	f000 80ec 	beq.w	35d0 <_scanf_float+0x230>
    33f8:	682b      	ldr	r3, [r5, #0]
    33fa:	781b      	ldrb	r3, [r3, #0]
    33fc:	2b49      	cmp	r3, #73	; 0x49
    33fe:	d070      	beq.n	34e2 <_scanf_float+0x142>
    3400:	d816      	bhi.n	3430 <_scanf_float+0x90>
    3402:	2b39      	cmp	r3, #57	; 0x39
    3404:	d80d      	bhi.n	3422 <_scanf_float+0x82>
    3406:	2b31      	cmp	r3, #49	; 0x31
    3408:	d240      	bcs.n	348c <_scanf_float+0xec>
    340a:	2b2d      	cmp	r3, #45	; 0x2d
    340c:	d046      	beq.n	349c <_scanf_float+0xfc>
    340e:	d802      	bhi.n	3416 <_scanf_float+0x76>
    3410:	2b2b      	cmp	r3, #43	; 0x2b
    3412:	d043      	beq.n	349c <_scanf_float+0xfc>
    3414:	e0dc      	b.n	35d0 <_scanf_float+0x230>
    3416:	2b2e      	cmp	r3, #46	; 0x2e
    3418:	f000 8092 	beq.w	3540 <_scanf_float+0x1a0>
    341c:	2b30      	cmp	r3, #48	; 0x30
    341e:	d023      	beq.n	3468 <_scanf_float+0xc8>
    3420:	e0d6      	b.n	35d0 <_scanf_float+0x230>
    3422:	2b45      	cmp	r3, #69	; 0x45
    3424:	f000 8095 	beq.w	3552 <_scanf_float+0x1b2>
    3428:	2b46      	cmp	r3, #70	; 0x46
    342a:	d077      	beq.n	351c <_scanf_float+0x17c>
    342c:	2b41      	cmp	r3, #65	; 0x41
    342e:	e00c      	b.n	344a <_scanf_float+0xaa>
    3430:	2b65      	cmp	r3, #101	; 0x65
    3432:	f000 808e 	beq.w	3552 <_scanf_float+0x1b2>
    3436:	d80a      	bhi.n	344e <_scanf_float+0xae>
    3438:	2b54      	cmp	r3, #84	; 0x54
    343a:	d075      	beq.n	3528 <_scanf_float+0x188>
    343c:	d802      	bhi.n	3444 <_scanf_float+0xa4>
    343e:	2b4e      	cmp	r3, #78	; 0x4e
    3440:	d034      	beq.n	34ac <_scanf_float+0x10c>
    3442:	e0c5      	b.n	35d0 <_scanf_float+0x230>
    3444:	2b59      	cmp	r3, #89	; 0x59
    3446:	d075      	beq.n	3534 <_scanf_float+0x194>
    3448:	2b61      	cmp	r3, #97	; 0x61
    344a:	d046      	beq.n	34da <_scanf_float+0x13a>
    344c:	e0c0      	b.n	35d0 <_scanf_float+0x230>
    344e:	2b6e      	cmp	r3, #110	; 0x6e
    3450:	d02c      	beq.n	34ac <_scanf_float+0x10c>
    3452:	d804      	bhi.n	345e <_scanf_float+0xbe>
    3454:	2b66      	cmp	r3, #102	; 0x66
    3456:	d061      	beq.n	351c <_scanf_float+0x17c>
    3458:	2b69      	cmp	r3, #105	; 0x69
    345a:	d042      	beq.n	34e2 <_scanf_float+0x142>
    345c:	e0b8      	b.n	35d0 <_scanf_float+0x230>
    345e:	2b74      	cmp	r3, #116	; 0x74
    3460:	d062      	beq.n	3528 <_scanf_float+0x188>
    3462:	2b79      	cmp	r3, #121	; 0x79
    3464:	d066      	beq.n	3534 <_scanf_float+0x194>
    3466:	e0b3      	b.n	35d0 <_scanf_float+0x230>
    3468:	6820      	ldr	r0, [r4, #0]
    346a:	f410 7f80 	tst.w	r0, #256	; 0x100
    346e:	d00d      	beq.n	348c <_scanf_float+0xec>
    3470:	f020 0080 	bic.w	r0, r0, #128	; 0x80
    3474:	6020      	str	r0, [r4, #0]
    3476:	f10a 0a01 	add.w	sl, sl, #1
    347a:	f1bc 0f00 	cmp.w	ip, #0
    347e:	f000 808a 	beq.w	3596 <_scanf_float+0x1f6>
    3482:	3101      	adds	r1, #1
    3484:	f10c 3cff 	add.w	ip, ip, #4294967295
    3488:	60a1      	str	r1, [r4, #8]
    348a:	e084      	b.n	3596 <_scanf_float+0x1f6>
    348c:	eb12 0f0b 	cmn.w	r2, fp
    3490:	f040 809e 	bne.w	35d0 <_scanf_float+0x230>
    3494:	6821      	ldr	r1, [r4, #0]
    3496:	f421 71c0 	bic.w	r1, r1, #384	; 0x180
    349a:	e005      	b.n	34a8 <_scanf_float+0x108>
    349c:	6821      	ldr	r1, [r4, #0]
    349e:	0608      	lsls	r0, r1, #24
    34a0:	f140 8096 	bpl.w	35d0 <_scanf_float+0x230>
    34a4:	f021 0180 	bic.w	r1, r1, #128	; 0x80
    34a8:	6021      	str	r1, [r4, #0]
    34aa:	e070      	b.n	358e <_scanf_float+0x1ee>
    34ac:	b96a      	cbnz	r2, 34ca <_scanf_float+0x12a>
    34ae:	f1ba 0f00 	cmp.w	sl, #0
    34b2:	d10c      	bne.n	34ce <_scanf_float+0x12e>
    34b4:	6821      	ldr	r1, [r4, #0]
    34b6:	f401 60e0 	and.w	r0, r1, #1792	; 0x700
    34ba:	f5b0 6fe0 	cmp.w	r0, #1792	; 0x700
    34be:	d106      	bne.n	34ce <_scanf_float+0x12e>
    34c0:	f421 61f0 	bic.w	r1, r1, #1920	; 0x780
    34c4:	6021      	str	r1, [r4, #0]
    34c6:	2201      	movs	r2, #1
    34c8:	e061      	b.n	358e <_scanf_float+0x1ee>
    34ca:	2a02      	cmp	r2, #2
    34cc:	d05e      	beq.n	358c <_scanf_float+0x1ec>
    34ce:	f1bb 0f01 	cmp.w	fp, #1
    34d2:	d01e      	beq.n	3512 <_scanf_float+0x172>
    34d4:	f1bb 0f04 	cmp.w	fp, #4
    34d8:	e01a      	b.n	3510 <_scanf_float+0x170>
    34da:	2a01      	cmp	r2, #1
    34dc:	d178      	bne.n	35d0 <_scanf_float+0x230>
    34de:	2202      	movs	r2, #2
    34e0:	e055      	b.n	358e <_scanf_float+0x1ee>
    34e2:	f1bb 0f00 	cmp.w	fp, #0
    34e6:	d10e      	bne.n	3506 <_scanf_float+0x166>
    34e8:	f1ba 0f00 	cmp.w	sl, #0
    34ec:	d173      	bne.n	35d6 <_scanf_float+0x236>
    34ee:	6821      	ldr	r1, [r4, #0]
    34f0:	f401 60e0 	and.w	r0, r1, #1792	; 0x700
    34f4:	f5b0 6fe0 	cmp.w	r0, #1792	; 0x700
    34f8:	d171      	bne.n	35de <_scanf_float+0x23e>
    34fa:	f421 61f0 	bic.w	r1, r1, #1920	; 0x780
    34fe:	6021      	str	r1, [r4, #0]
    3500:	f04f 0b01 	mov.w	fp, #1
    3504:	e043      	b.n	358e <_scanf_float+0x1ee>
    3506:	f1bb 0f03 	cmp.w	fp, #3
    350a:	d002      	beq.n	3512 <_scanf_float+0x172>
    350c:	f1bb 0f05 	cmp.w	fp, #5
    3510:	d15e      	bne.n	35d0 <_scanf_float+0x230>
    3512:	f10b 0b01 	add.w	fp, fp, #1
    3516:	fa5f fb8b 	uxtb.w	fp, fp
    351a:	e038      	b.n	358e <_scanf_float+0x1ee>
    351c:	f1bb 0f02 	cmp.w	fp, #2
    3520:	d156      	bne.n	35d0 <_scanf_float+0x230>
    3522:	f04f 0b03 	mov.w	fp, #3
    3526:	e032      	b.n	358e <_scanf_float+0x1ee>
    3528:	f1bb 0f06 	cmp.w	fp, #6
    352c:	d150      	bne.n	35d0 <_scanf_float+0x230>
    352e:	f04f 0b07 	mov.w	fp, #7
    3532:	e02c      	b.n	358e <_scanf_float+0x1ee>
    3534:	f1bb 0f07 	cmp.w	fp, #7
    3538:	d14a      	bne.n	35d0 <_scanf_float+0x230>
    353a:	f04f 0b08 	mov.w	fp, #8
    353e:	e026      	b.n	358e <_scanf_float+0x1ee>
    3540:	6821      	ldr	r1, [r4, #0]
    3542:	0588      	lsls	r0, r1, #22
    3544:	d544      	bpl.n	35d0 <_scanf_float+0x230>
    3546:	f421 7120 	bic.w	r1, r1, #640	; 0x280
    354a:	6021      	str	r1, [r4, #0]
    354c:	f8cd a004 	str.w	sl, [sp, #4]
    3550:	e01d      	b.n	358e <_scanf_float+0x1ee>
    3552:	6821      	ldr	r1, [r4, #0]
    3554:	f401 60a0 	and.w	r0, r1, #1280	; 0x500
    3558:	f5b0 6f80 	cmp.w	r0, #1024	; 0x400
    355c:	d004      	beq.n	3568 <_scanf_float+0x1c8>
    355e:	0548      	lsls	r0, r1, #21
    3560:	d536      	bpl.n	35d0 <_scanf_float+0x230>
    3562:	f1ba 0f00 	cmp.w	sl, #0
    3566:	d03a      	beq.n	35de <_scanf_float+0x23e>
    3568:	0588      	lsls	r0, r1, #22
    356a:	bf58      	it	pl
    356c:	9801      	ldrpl	r0, [sp, #4]
    356e:	f421 61f0 	bic.w	r1, r1, #1920	; 0x780
    3572:	bf58      	it	pl
    3574:	ebc0 000a 	rsbpl	r0, r0, sl
    3578:	f441 71c0 	orr.w	r1, r1, #384	; 0x180
    357c:	bf5c      	itt	pl
    357e:	9002      	strpl	r0, [sp, #8]
    3580:	f8cd 800c 	strpl.w	r8, [sp, #12]
    3584:	6021      	str	r1, [r4, #0]
    3586:	f04f 0a00 	mov.w	sl, #0
    358a:	e000      	b.n	358e <_scanf_float+0x1ee>
    358c:	2203      	movs	r2, #3
    358e:	f888 3000 	strb.w	r3, [r8]
    3592:	f108 0801 	add.w	r8, r8, #1
    3596:	68a3      	ldr	r3, [r4, #8]
    3598:	3b01      	subs	r3, #1
    359a:	60a3      	str	r3, [r4, #8]
    359c:	6923      	ldr	r3, [r4, #16]
    359e:	3301      	adds	r3, #1
    35a0:	6123      	str	r3, [r4, #16]
    35a2:	686b      	ldr	r3, [r5, #4]
    35a4:	3b01      	subs	r3, #1
    35a6:	2b00      	cmp	r3, #0
    35a8:	606b      	str	r3, [r5, #4]
    35aa:	dd03      	ble.n	35b4 <_scanf_float+0x214>
    35ac:	682b      	ldr	r3, [r5, #0]
    35ae:	3301      	adds	r3, #1
    35b0:	602b      	str	r3, [r5, #0]
    35b2:	e71d      	b.n	33f0 <_scanf_float+0x50>
    35b4:	f8d4 3180 	ldr.w	r3, [r4, #384]	; 0x180
    35b8:	4630      	mov	r0, r6
    35ba:	4629      	mov	r1, r5
    35bc:	9205      	str	r2, [sp, #20]
    35be:	f8cd c010 	str.w	ip, [sp, #16]
    35c2:	4798      	blx	r3
    35c4:	f8dd c010 	ldr.w	ip, [sp, #16]
    35c8:	9a05      	ldr	r2, [sp, #20]
    35ca:	2800      	cmp	r0, #0
    35cc:	f43f af10 	beq.w	33f0 <_scanf_float+0x50>
    35d0:	f1ba 0f00 	cmp.w	sl, #0
    35d4:	d003      	beq.n	35de <_scanf_float+0x23e>
    35d6:	6823      	ldr	r3, [r4, #0]
    35d8:	f423 7380 	bic.w	r3, r3, #256	; 0x100
    35dc:	6023      	str	r3, [r4, #0]
    35de:	3a01      	subs	r2, #1
    35e0:	2a01      	cmp	r2, #1
    35e2:	d80e      	bhi.n	3602 <_scanf_float+0x262>
    35e4:	45b8      	cmp	r8, r7
    35e6:	d90a      	bls.n	35fe <_scanf_float+0x25e>
    35e8:	f8d4 317c 	ldr.w	r3, [r4, #380]	; 0x17c
    35ec:	4630      	mov	r0, r6
    35ee:	f818 1d01 	ldrb.w	r1, [r8, #-1]!
    35f2:	462a      	mov	r2, r5
    35f4:	4798      	blx	r3
    35f6:	6923      	ldr	r3, [r4, #16]
    35f8:	3b01      	subs	r3, #1
    35fa:	6123      	str	r3, [r4, #16]
    35fc:	e7f2      	b.n	35e4 <_scanf_float+0x244>
    35fe:	2501      	movs	r5, #1
    3600:	e0ae      	b.n	3760 <_scanf_float+0x3c0>
    3602:	f10b 33ff 	add.w	r3, fp, #4294967295
    3606:	2b06      	cmp	r3, #6
    3608:	d822      	bhi.n	3650 <_scanf_float+0x2b0>
    360a:	f1bb 0f02 	cmp.w	fp, #2
    360e:	d912      	bls.n	3636 <_scanf_float+0x296>
    3610:	f1ab 0b03 	sub.w	fp, fp, #3
    3614:	fa5f fb8b 	uxtb.w	fp, fp
    3618:	ebcb 0b08 	rsb	fp, fp, r8
    361c:	45d8      	cmp	r8, fp
    361e:	d017      	beq.n	3650 <_scanf_float+0x2b0>
    3620:	f8d4 317c 	ldr.w	r3, [r4, #380]	; 0x17c
    3624:	4630      	mov	r0, r6
    3626:	f818 1d01 	ldrb.w	r1, [r8, #-1]!
    362a:	462a      	mov	r2, r5
    362c:	4798      	blx	r3
    362e:	6923      	ldr	r3, [r4, #16]
    3630:	3b01      	subs	r3, #1
    3632:	6123      	str	r3, [r4, #16]
    3634:	e7f2      	b.n	361c <_scanf_float+0x27c>
    3636:	45b8      	cmp	r8, r7
    3638:	d9e1      	bls.n	35fe <_scanf_float+0x25e>
    363a:	f8d4 317c 	ldr.w	r3, [r4, #380]	; 0x17c
    363e:	4630      	mov	r0, r6
    3640:	f818 1d01 	ldrb.w	r1, [r8, #-1]!
    3644:	462a      	mov	r2, r5
    3646:	4798      	blx	r3
    3648:	6923      	ldr	r3, [r4, #16]
    364a:	3b01      	subs	r3, #1
    364c:	6123      	str	r3, [r4, #16]
    364e:	e7f2      	b.n	3636 <_scanf_float+0x296>
    3650:	6823      	ldr	r3, [r4, #0]
    3652:	05da      	lsls	r2, r3, #23
    3654:	d52c      	bpl.n	36b0 <_scanf_float+0x310>
    3656:	055b      	lsls	r3, r3, #21
    3658:	d50c      	bpl.n	3674 <_scanf_float+0x2d4>
    365a:	45b8      	cmp	r8, r7
    365c:	d9cf      	bls.n	35fe <_scanf_float+0x25e>
    365e:	f8d4 317c 	ldr.w	r3, [r4, #380]	; 0x17c
    3662:	4630      	mov	r0, r6
    3664:	f818 1d01 	ldrb.w	r1, [r8, #-1]!
    3668:	462a      	mov	r2, r5
    366a:	4798      	blx	r3
    366c:	6923      	ldr	r3, [r4, #16]
    366e:	3b01      	subs	r3, #1
    3670:	6123      	str	r3, [r4, #16]
    3672:	e7f2      	b.n	365a <_scanf_float+0x2ba>
    3674:	f818 1c01 	ldrb.w	r1, [r8, #-1]
    3678:	6923      	ldr	r3, [r4, #16]
    367a:	2965      	cmp	r1, #101	; 0x65
    367c:	f103 33ff 	add.w	r3, r3, #4294967295
    3680:	f108 3bff 	add.w	fp, r8, #4294967295
    3684:	6123      	str	r3, [r4, #16]
    3686:	d00d      	beq.n	36a4 <_scanf_float+0x304>
    3688:	2945      	cmp	r1, #69	; 0x45
    368a:	d00b      	beq.n	36a4 <_scanf_float+0x304>
    368c:	f8d4 317c 	ldr.w	r3, [r4, #380]	; 0x17c
    3690:	4630      	mov	r0, r6
    3692:	462a      	mov	r2, r5
    3694:	4798      	blx	r3
    3696:	6923      	ldr	r3, [r4, #16]
    3698:	f818 1c02 	ldrb.w	r1, [r8, #-2]
    369c:	3b01      	subs	r3, #1
    369e:	f1a8 0b02 	sub.w	fp, r8, #2
    36a2:	6123      	str	r3, [r4, #16]
    36a4:	f8d4 317c 	ldr.w	r3, [r4, #380]	; 0x17c
    36a8:	4630      	mov	r0, r6
    36aa:	462a      	mov	r2, r5
    36ac:	4798      	blx	r3
    36ae:	46d8      	mov	r8, fp
    36b0:	6825      	ldr	r5, [r4, #0]
    36b2:	f015 0510 	ands.w	r5, r5, #16
    36b6:	d152      	bne.n	375e <_scanf_float+0x3be>
    36b8:	f888 5000 	strb.w	r5, [r8]
    36bc:	6823      	ldr	r3, [r4, #0]
    36be:	f403 63c0 	and.w	r3, r3, #1536	; 0x600
    36c2:	f5b3 6f80 	cmp.w	r3, #1024	; 0x400
    36c6:	d105      	bne.n	36d4 <_scanf_float+0x334>
    36c8:	9b01      	ldr	r3, [sp, #4]
    36ca:	ebc3 030a 	rsb	r3, r3, sl
    36ce:	425a      	negs	r2, r3
    36d0:	b96b      	cbnz	r3, 36ee <_scanf_float+0x34e>
    36d2:	e016      	b.n	3702 <_scanf_float+0x362>
    36d4:	9b02      	ldr	r3, [sp, #8]
    36d6:	b1a3      	cbz	r3, 3702 <_scanf_float+0x362>
    36d8:	9b03      	ldr	r3, [sp, #12]
    36da:	462a      	mov	r2, r5
    36dc:	1c59      	adds	r1, r3, #1
    36de:	4630      	mov	r0, r6
    36e0:	230a      	movs	r3, #10
    36e2:	f001 fb2d 	bl	4d40 <_strtol_r>
    36e6:	9b02      	ldr	r3, [sp, #8]
    36e8:	f8dd 800c 	ldr.w	r8, [sp, #12]
    36ec:	1ac2      	subs	r2, r0, r3
    36ee:	f204 136f 	addw	r3, r4, #367	; 0x16f
    36f2:	4598      	cmp	r8, r3
    36f4:	bf28      	it	cs
    36f6:	f504 78b7 	addcs.w	r8, r4, #366	; 0x16e
    36fa:	4640      	mov	r0, r8
    36fc:	491a      	ldr	r1, [pc, #104]	; (3768 <_scanf_float+0x3c8>)
    36fe:	f000 fc0b 	bl	3f18 <siprintf>
    3702:	4630      	mov	r0, r6
    3704:	4639      	mov	r1, r7
    3706:	2200      	movs	r2, #0
    3708:	f000 fcfa 	bl	4100 <_strtod_r>
    370c:	6822      	ldr	r2, [r4, #0]
    370e:	4606      	mov	r6, r0
    3710:	f012 0f02 	tst.w	r2, #2
    3714:	460f      	mov	r7, r1
    3716:	f8d9 3000 	ldr.w	r3, [r9]
    371a:	d003      	beq.n	3724 <_scanf_float+0x384>
    371c:	1d1a      	adds	r2, r3, #4
    371e:	f8c9 2000 	str.w	r2, [r9]
    3722:	e006      	b.n	3732 <_scanf_float+0x392>
    3724:	f012 0f04 	tst.w	r2, #4
    3728:	f103 0204 	add.w	r2, r3, #4
    372c:	f8c9 2000 	str.w	r2, [r9]
    3730:	d003      	beq.n	373a <_scanf_float+0x39a>
    3732:	681b      	ldr	r3, [r3, #0]
    3734:	e9c3 6700 	strd	r6, r7, [r3]
    3738:	e00d      	b.n	3756 <_scanf_float+0x3b6>
    373a:	f8d3 8000 	ldr.w	r8, [r3]
    373e:	f000 fad5 	bl	3cec <__fpclassifyd>
    3742:	b910      	cbnz	r0, 374a <_scanf_float+0x3aa>
    3744:	f000 fbe4 	bl	3f10 <nanf>
    3748:	e003      	b.n	3752 <_scanf_float+0x3b2>
    374a:	4630      	mov	r0, r6
    374c:	4639      	mov	r1, r7
    374e:	f004 fb39 	bl	7dc4 <__aeabi_d2f>
    3752:	f8c8 0000 	str.w	r0, [r8]
    3756:	68e3      	ldr	r3, [r4, #12]
    3758:	3301      	adds	r3, #1
    375a:	60e3      	str	r3, [r4, #12]
    375c:	e000      	b.n	3760 <_scanf_float+0x3c0>
    375e:	2500      	movs	r5, #0
    3760:	4628      	mov	r0, r5
    3762:	b007      	add	sp, #28
    3764:	e8bd 8ff0 	ldmia.w	sp!, {r4, r5, r6, r7, r8, r9, sl, fp, pc}
    3768:	00008603 	.word	0x00008603

0000376c <_scanf_chars>:
    376c:	e92d 41f0 	stmdb	sp!, {r4, r5, r6, r7, r8, lr}
    3770:	4615      	mov	r5, r2
    3772:	688a      	ldr	r2, [r1, #8]
    3774:	4680      	mov	r8, r0
    3776:	460c      	mov	r4, r1
    3778:	b932      	cbnz	r2, 3788 <_scanf_chars+0x1c>
    377a:	698a      	ldr	r2, [r1, #24]
    377c:	2a00      	cmp	r2, #0
    377e:	bf0c      	ite	eq
    3780:	2201      	moveq	r2, #1
    3782:	f04f 32ff 	movne.w	r2, #4294967295
    3786:	608a      	str	r2, [r1, #8]
    3788:	6822      	ldr	r2, [r4, #0]
    378a:	2600      	movs	r6, #0
    378c:	06d1      	lsls	r1, r2, #27
    378e:	bf5f      	itttt	pl
    3790:	681a      	ldrpl	r2, [r3, #0]
    3792:	1d11      	addpl	r1, r2, #4
    3794:	6019      	strpl	r1, [r3, #0]
    3796:	6817      	ldrpl	r7, [r2, #0]
    3798:	69a0      	ldr	r0, [r4, #24]
    379a:	b9f8      	cbnz	r0, 37dc <_scanf_chars+0x70>
    379c:	6823      	ldr	r3, [r4, #0]
    379e:	3601      	adds	r6, #1
    37a0:	06da      	lsls	r2, r3, #27
    37a2:	bf5e      	ittt	pl
    37a4:	682b      	ldrpl	r3, [r5, #0]
    37a6:	781b      	ldrbpl	r3, [r3, #0]
    37a8:	703b      	strbpl	r3, [r7, #0]
    37aa:	682a      	ldr	r2, [r5, #0]
    37ac:	686b      	ldr	r3, [r5, #4]
    37ae:	f102 0201 	add.w	r2, r2, #1
    37b2:	602a      	str	r2, [r5, #0]
    37b4:	68a2      	ldr	r2, [r4, #8]
    37b6:	f103 33ff 	add.w	r3, r3, #4294967295
    37ba:	f102 32ff 	add.w	r2, r2, #4294967295
    37be:	606b      	str	r3, [r5, #4]
    37c0:	bf58      	it	pl
    37c2:	3701      	addpl	r7, #1
    37c4:	60a2      	str	r2, [r4, #8]
    37c6:	b1ea      	cbz	r2, 3804 <_scanf_chars+0x98>
    37c8:	2b00      	cmp	r3, #0
    37ca:	dce5      	bgt.n	3798 <_scanf_chars+0x2c>
    37cc:	f8d4 3180 	ldr.w	r3, [r4, #384]	; 0x180
    37d0:	4640      	mov	r0, r8
    37d2:	4629      	mov	r1, r5
    37d4:	4798      	blx	r3
    37d6:	2800      	cmp	r0, #0
    37d8:	d0de      	beq.n	3798 <_scanf_chars+0x2c>
    37da:	e013      	b.n	3804 <_scanf_chars+0x98>
    37dc:	2801      	cmp	r0, #1
    37de:	d107      	bne.n	37f0 <_scanf_chars+0x84>
    37e0:	682b      	ldr	r3, [r5, #0]
    37e2:	6962      	ldr	r2, [r4, #20]
    37e4:	781b      	ldrb	r3, [r3, #0]
    37e6:	5cd3      	ldrb	r3, [r2, r3]
    37e8:	2b00      	cmp	r3, #0
    37ea:	d1d7      	bne.n	379c <_scanf_chars+0x30>
    37ec:	b1c6      	cbz	r6, 3820 <_scanf_chars+0xb4>
    37ee:	e009      	b.n	3804 <_scanf_chars+0x98>
    37f0:	2802      	cmp	r0, #2
    37f2:	d107      	bne.n	3804 <_scanf_chars+0x98>
    37f4:	682b      	ldr	r3, [r5, #0]
    37f6:	4a0b      	ldr	r2, [pc, #44]	; (3824 <_scanf_chars+0xb8>)
    37f8:	781b      	ldrb	r3, [r3, #0]
    37fa:	6812      	ldr	r2, [r2, #0]
    37fc:	4413      	add	r3, r2
    37fe:	785b      	ldrb	r3, [r3, #1]
    3800:	071b      	lsls	r3, r3, #28
    3802:	d5cb      	bpl.n	379c <_scanf_chars+0x30>
    3804:	6823      	ldr	r3, [r4, #0]
    3806:	f013 0310 	ands.w	r3, r3, #16
    380a:	d105      	bne.n	3818 <_scanf_chars+0xac>
    380c:	68e2      	ldr	r2, [r4, #12]
    380e:	3201      	adds	r2, #1
    3810:	60e2      	str	r2, [r4, #12]
    3812:	69a2      	ldr	r2, [r4, #24]
    3814:	b102      	cbz	r2, 3818 <_scanf_chars+0xac>
    3816:	703b      	strb	r3, [r7, #0]
    3818:	6923      	ldr	r3, [r4, #16]
    381a:	2000      	movs	r0, #0
    381c:	441e      	add	r6, r3
    381e:	6126      	str	r6, [r4, #16]
    3820:	e8bd 81f0 	ldmia.w	sp!, {r4, r5, r6, r7, r8, pc}
    3824:	10000138 	.word	0x10000138

00003828 <_scanf_i>:
    3828:	e92d 4ff0 	stmdb	sp!, {r4, r5, r6, r7, r8, r9, sl, fp, lr}
    382c:	460c      	mov	r4, r1
    382e:	469a      	mov	sl, r3
    3830:	4b72      	ldr	r3, [pc, #456]	; (39fc <_scanf_i+0x1d4>)
    3832:	b087      	sub	sp, #28
    3834:	4683      	mov	fp, r0
    3836:	4616      	mov	r6, r2
    3838:	e893 0007 	ldmia.w	r3, {r0, r1, r2}
    383c:	ab03      	add	r3, sp, #12
    383e:	e883 0007 	stmia.w	r3, {r0, r1, r2}
    3842:	4b6f      	ldr	r3, [pc, #444]	; (3a00 <_scanf_i+0x1d8>)
    3844:	69a1      	ldr	r1, [r4, #24]
    3846:	4a6f      	ldr	r2, [pc, #444]	; (3a04 <_scanf_i+0x1dc>)
    3848:	f104 091c 	add.w	r9, r4, #28
    384c:	2903      	cmp	r1, #3
    384e:	bf18      	it	ne
    3850:	461a      	movne	r2, r3
    3852:	68a3      	ldr	r3, [r4, #8]
    3854:	9200      	str	r2, [sp, #0]
    3856:	1e5a      	subs	r2, r3, #1
    3858:	f5b2 7fae 	cmp.w	r2, #348	; 0x15c
    385c:	bf82      	ittt	hi
    385e:	f46f 75ae 	mvnhi.w	r5, #348	; 0x15c
    3862:	eb03 0805 	addhi.w	r8, r3, r5
    3866:	f240 135d 	movwhi	r3, #349	; 0x15d
    386a:	464f      	mov	r7, r9
    386c:	bf88      	it	hi
    386e:	60a3      	strhi	r3, [r4, #8]
    3870:	6823      	ldr	r3, [r4, #0]
    3872:	bf98      	it	ls
    3874:	f04f 0800 	movls.w	r8, #0
    3878:	f443 6350 	orr.w	r3, r3, #3328	; 0xd00
    387c:	6023      	str	r3, [r4, #0]
    387e:	2300      	movs	r3, #0
    3880:	6832      	ldr	r2, [r6, #0]
    3882:	a903      	add	r1, sp, #12
    3884:	f851 0023 	ldr.w	r0, [r1, r3, lsl #2]
    3888:	7811      	ldrb	r1, [r2, #0]
    388a:	2202      	movs	r2, #2
    388c:	9301      	str	r3, [sp, #4]
    388e:	f7fe fdab 	bl	23e8 <memchr>
    3892:	9b01      	ldr	r3, [sp, #4]
    3894:	2800      	cmp	r0, #0
    3896:	d035      	beq.n	3904 <_scanf_i+0xdc>
    3898:	2b01      	cmp	r3, #1
    389a:	d10b      	bne.n	38b4 <_scanf_i+0x8c>
    389c:	6862      	ldr	r2, [r4, #4]
    389e:	b92a      	cbnz	r2, 38ac <_scanf_i+0x84>
    38a0:	2208      	movs	r2, #8
    38a2:	6062      	str	r2, [r4, #4]
    38a4:	6822      	ldr	r2, [r4, #0]
    38a6:	f442 7200 	orr.w	r2, r2, #512	; 0x200
    38aa:	6022      	str	r2, [r4, #0]
    38ac:	6822      	ldr	r2, [r4, #0]
    38ae:	f422 62a0 	bic.w	r2, r2, #1280	; 0x500
    38b2:	e00b      	b.n	38cc <_scanf_i+0xa4>
    38b4:	2b02      	cmp	r3, #2
    38b6:	d10a      	bne.n	38ce <_scanf_i+0xa6>
    38b8:	6822      	ldr	r2, [r4, #0]
    38ba:	f402 61c0 	and.w	r1, r2, #1536	; 0x600
    38be:	f5b1 7f00 	cmp.w	r1, #512	; 0x200
    38c2:	d11f      	bne.n	3904 <_scanf_i+0xdc>
    38c4:	2110      	movs	r1, #16
    38c6:	6061      	str	r1, [r4, #4]
    38c8:	f442 7280 	orr.w	r2, r2, #256	; 0x100
    38cc:	6022      	str	r2, [r4, #0]
    38ce:	68a2      	ldr	r2, [r4, #8]
    38d0:	1e51      	subs	r1, r2, #1
    38d2:	60a1      	str	r1, [r4, #8]
    38d4:	b1b2      	cbz	r2, 3904 <_scanf_i+0xdc>
    38d6:	6832      	ldr	r2, [r6, #0]
    38d8:	1c7d      	adds	r5, r7, #1
    38da:	1c51      	adds	r1, r2, #1
    38dc:	6031      	str	r1, [r6, #0]
    38de:	7812      	ldrb	r2, [r2, #0]
    38e0:	703a      	strb	r2, [r7, #0]
    38e2:	6872      	ldr	r2, [r6, #4]
    38e4:	3a01      	subs	r2, #1
    38e6:	2a00      	cmp	r2, #0
    38e8:	6072      	str	r2, [r6, #4]
    38ea:	dc0a      	bgt.n	3902 <_scanf_i+0xda>
    38ec:	f8d4 2180 	ldr.w	r2, [r4, #384]	; 0x180
    38f0:	4658      	mov	r0, fp
    38f2:	4631      	mov	r1, r6
    38f4:	9301      	str	r3, [sp, #4]
    38f6:	4790      	blx	r2
    38f8:	2800      	cmp	r0, #0
    38fa:	d141      	bne.n	3980 <_scanf_i+0x158>
    38fc:	462f      	mov	r7, r5
    38fe:	9b01      	ldr	r3, [sp, #4]
    3900:	e000      	b.n	3904 <_scanf_i+0xdc>
    3902:	462f      	mov	r7, r5
    3904:	3301      	adds	r3, #1
    3906:	2b03      	cmp	r3, #3
    3908:	d1ba      	bne.n	3880 <_scanf_i+0x58>
    390a:	6863      	ldr	r3, [r4, #4]
    390c:	b90b      	cbnz	r3, 3912 <_scanf_i+0xea>
    390e:	230a      	movs	r3, #10
    3910:	6063      	str	r3, [r4, #4]
    3912:	6863      	ldr	r3, [r4, #4]
    3914:	493c      	ldr	r1, [pc, #240]	; (3a08 <_scanf_i+0x1e0>)
    3916:	6960      	ldr	r0, [r4, #20]
    3918:	1ac9      	subs	r1, r1, r3
    391a:	f000 fa37 	bl	3d8c <__sccl>
    391e:	463d      	mov	r5, r7
    3920:	2700      	movs	r7, #0
    3922:	68a3      	ldr	r3, [r4, #8]
    3924:	b36b      	cbz	r3, 3982 <_scanf_i+0x15a>
    3926:	6831      	ldr	r1, [r6, #0]
    3928:	6960      	ldr	r0, [r4, #20]
    392a:	780a      	ldrb	r2, [r1, #0]
    392c:	5c80      	ldrb	r0, [r0, r2]
    392e:	b340      	cbz	r0, 3982 <_scanf_i+0x15a>
    3930:	2a30      	cmp	r2, #48	; 0x30
    3932:	6822      	ldr	r2, [r4, #0]
    3934:	d10a      	bne.n	394c <_scanf_i+0x124>
    3936:	0510      	lsls	r0, r2, #20
    3938:	d508      	bpl.n	394c <_scanf_i+0x124>
    393a:	3701      	adds	r7, #1
    393c:	f1b8 0f00 	cmp.w	r8, #0
    3940:	d00b      	beq.n	395a <_scanf_i+0x132>
    3942:	3301      	adds	r3, #1
    3944:	f108 38ff 	add.w	r8, r8, #4294967295
    3948:	60a3      	str	r3, [r4, #8]
    394a:	e006      	b.n	395a <_scanf_i+0x132>
    394c:	f422 6210 	bic.w	r2, r2, #2304	; 0x900
    3950:	6022      	str	r2, [r4, #0]
    3952:	780b      	ldrb	r3, [r1, #0]
    3954:	3501      	adds	r5, #1
    3956:	f805 3c01 	strb.w	r3, [r5, #-1]
    395a:	6873      	ldr	r3, [r6, #4]
    395c:	3b01      	subs	r3, #1
    395e:	2b00      	cmp	r3, #0
    3960:	6073      	str	r3, [r6, #4]
    3962:	dd03      	ble.n	396c <_scanf_i+0x144>
    3964:	6833      	ldr	r3, [r6, #0]
    3966:	3301      	adds	r3, #1
    3968:	6033      	str	r3, [r6, #0]
    396a:	e005      	b.n	3978 <_scanf_i+0x150>
    396c:	f8d4 3180 	ldr.w	r3, [r4, #384]	; 0x180
    3970:	4658      	mov	r0, fp
    3972:	4631      	mov	r1, r6
    3974:	4798      	blx	r3
    3976:	b920      	cbnz	r0, 3982 <_scanf_i+0x15a>
    3978:	68a3      	ldr	r3, [r4, #8]
    397a:	3b01      	subs	r3, #1
    397c:	60a3      	str	r3, [r4, #8]
    397e:	e7d0      	b.n	3922 <_scanf_i+0xfa>
    3980:	2700      	movs	r7, #0
    3982:	6823      	ldr	r3, [r4, #0]
    3984:	05d9      	lsls	r1, r3, #23
    3986:	d50d      	bpl.n	39a4 <_scanf_i+0x17c>
    3988:	454d      	cmp	r5, r9
    398a:	d909      	bls.n	39a0 <_scanf_i+0x178>
    398c:	f815 1c01 	ldrb.w	r1, [r5, #-1]
    3990:	f105 38ff 	add.w	r8, r5, #4294967295
    3994:	f8d4 317c 	ldr.w	r3, [r4, #380]	; 0x17c
    3998:	4658      	mov	r0, fp
    399a:	4632      	mov	r2, r6
    399c:	4798      	blx	r3
    399e:	4645      	mov	r5, r8
    39a0:	454d      	cmp	r5, r9
    39a2:	d027      	beq.n	39f4 <_scanf_i+0x1cc>
    39a4:	6822      	ldr	r2, [r4, #0]
    39a6:	f012 0210 	ands.w	r2, r2, #16
    39aa:	d11b      	bne.n	39e4 <_scanf_i+0x1bc>
    39ac:	702a      	strb	r2, [r5, #0]
    39ae:	6863      	ldr	r3, [r4, #4]
    39b0:	4658      	mov	r0, fp
    39b2:	4649      	mov	r1, r9
    39b4:	9e00      	ldr	r6, [sp, #0]
    39b6:	47b0      	blx	r6
    39b8:	6822      	ldr	r2, [r4, #0]
    39ba:	f8da 3000 	ldr.w	r3, [sl]
    39be:	f012 0f20 	tst.w	r2, #32
    39c2:	d107      	bne.n	39d4 <_scanf_i+0x1ac>
    39c4:	07d2      	lsls	r2, r2, #31
    39c6:	d505      	bpl.n	39d4 <_scanf_i+0x1ac>
    39c8:	1d1a      	adds	r2, r3, #4
    39ca:	f8ca 2000 	str.w	r2, [sl]
    39ce:	681b      	ldr	r3, [r3, #0]
    39d0:	8018      	strh	r0, [r3, #0]
    39d2:	e004      	b.n	39de <_scanf_i+0x1b6>
    39d4:	1d1a      	adds	r2, r3, #4
    39d6:	f8ca 2000 	str.w	r2, [sl]
    39da:	681b      	ldr	r3, [r3, #0]
    39dc:	6018      	str	r0, [r3, #0]
    39de:	68e3      	ldr	r3, [r4, #12]
    39e0:	3301      	adds	r3, #1
    39e2:	60e3      	str	r3, [r4, #12]
    39e4:	ebc9 0505 	rsb	r5, r9, r5
    39e8:	443d      	add	r5, r7
    39ea:	6927      	ldr	r7, [r4, #16]
    39ec:	2000      	movs	r0, #0
    39ee:	443d      	add	r5, r7
    39f0:	6125      	str	r5, [r4, #16]
    39f2:	e000      	b.n	39f6 <_scanf_i+0x1ce>
    39f4:	2001      	movs	r0, #1
    39f6:	b007      	add	sp, #28
    39f8:	e8bd 8ff0 	ldmia.w	sp!, {r4, r5, r6, r7, r8, r9, sl, fp, pc}
    39fc:	00008608 	.word	0x00008608
    3a00:	00004e4d 	.word	0x00004e4d
    3a04:	00004d41 	.word	0x00004d41
    3a08:	00008624 	.word	0x00008624

00003a0c <_open_r>:
    3a0c:	b538      	push	{r3, r4, r5, lr}
    3a0e:	4c07      	ldr	r4, [pc, #28]	; (3a2c <_open_r+0x20>)
    3a10:	4605      	mov	r5, r0
    3a12:	2000      	movs	r0, #0
    3a14:	6020      	str	r0, [r4, #0]
    3a16:	4608      	mov	r0, r1
    3a18:	4611      	mov	r1, r2
    3a1a:	461a      	mov	r2, r3
    3a1c:	f7fc fe82 	bl	724 <_open>
    3a20:	1c43      	adds	r3, r0, #1
    3a22:	d102      	bne.n	3a2a <_open_r+0x1e>
    3a24:	6823      	ldr	r3, [r4, #0]
    3a26:	b103      	cbz	r3, 3a2a <_open_r+0x1e>
    3a28:	602b      	str	r3, [r5, #0]
    3a2a:	bd38      	pop	{r3, r4, r5, pc}
    3a2c:	10000484 	.word	0x10000484

00003a30 <_putc_r>:
    3a30:	b570      	push	{r4, r5, r6, lr}
    3a32:	460e      	mov	r6, r1
    3a34:	4614      	mov	r4, r2
    3a36:	4605      	mov	r5, r0
    3a38:	b118      	cbz	r0, 3a42 <_putc_r+0x12>
    3a3a:	6983      	ldr	r3, [r0, #24]
    3a3c:	b90b      	cbnz	r3, 3a42 <_putc_r+0x12>
    3a3e:	f7fe fa93 	bl	1f68 <__sinit>
    3a42:	4b16      	ldr	r3, [pc, #88]	; (3a9c <_putc_r+0x6c>)
    3a44:	429c      	cmp	r4, r3
    3a46:	d101      	bne.n	3a4c <_putc_r+0x1c>
    3a48:	686c      	ldr	r4, [r5, #4]
    3a4a:	e008      	b.n	3a5e <_putc_r+0x2e>
    3a4c:	4b14      	ldr	r3, [pc, #80]	; (3aa0 <_putc_r+0x70>)
    3a4e:	429c      	cmp	r4, r3
    3a50:	d101      	bne.n	3a56 <_putc_r+0x26>
    3a52:	68ac      	ldr	r4, [r5, #8]
    3a54:	e003      	b.n	3a5e <_putc_r+0x2e>
    3a56:	4b13      	ldr	r3, [pc, #76]	; (3aa4 <_putc_r+0x74>)
    3a58:	429c      	cmp	r4, r3
    3a5a:	bf08      	it	eq
    3a5c:	68ec      	ldreq	r4, [r5, #12]
    3a5e:	68a3      	ldr	r3, [r4, #8]
    3a60:	3b01      	subs	r3, #1
    3a62:	2b00      	cmp	r3, #0
    3a64:	60a3      	str	r3, [r4, #8]
    3a66:	da11      	bge.n	3a8c <_putc_r+0x5c>
    3a68:	69a2      	ldr	r2, [r4, #24]
    3a6a:	4293      	cmp	r3, r2
    3a6c:	db07      	blt.n	3a7e <_putc_r+0x4e>
    3a6e:	6823      	ldr	r3, [r4, #0]
    3a70:	701e      	strb	r6, [r3, #0]
    3a72:	6823      	ldr	r3, [r4, #0]
    3a74:	7819      	ldrb	r1, [r3, #0]
    3a76:	290a      	cmp	r1, #10
    3a78:	d10b      	bne.n	3a92 <_putc_r+0x62>
    3a7a:	4628      	mov	r0, r5
    3a7c:	e001      	b.n	3a82 <_putc_r+0x52>
    3a7e:	4628      	mov	r0, r5
    3a80:	4631      	mov	r1, r6
    3a82:	4622      	mov	r2, r4
    3a84:	e8bd 4070 	ldmia.w	sp!, {r4, r5, r6, lr}
    3a88:	f001 bb08 	b.w	509c <__swbuf_r>
    3a8c:	6823      	ldr	r3, [r4, #0]
    3a8e:	701e      	strb	r6, [r3, #0]
    3a90:	6823      	ldr	r3, [r4, #0]
    3a92:	1c5a      	adds	r2, r3, #1
    3a94:	6022      	str	r2, [r4, #0]
    3a96:	7818      	ldrb	r0, [r3, #0]
    3a98:	bd70      	pop	{r4, r5, r6, pc}
    3a9a:	bf00      	nop
    3a9c:	00008558 	.word	0x00008558
    3aa0:	00008578 	.word	0x00008578
    3aa4:	00008598 	.word	0x00008598

00003aa8 <_puts_r>:
    3aa8:	b570      	push	{r4, r5, r6, lr}
    3aaa:	460e      	mov	r6, r1
    3aac:	4605      	mov	r5, r0
    3aae:	b118      	cbz	r0, 3ab8 <_puts_r+0x10>
    3ab0:	6983      	ldr	r3, [r0, #24]
    3ab2:	b90b      	cbnz	r3, 3ab8 <_puts_r+0x10>
    3ab4:	f7fe fa58 	bl	1f68 <__sinit>
    3ab8:	68ac      	ldr	r4, [r5, #8]
    3aba:	89a3      	ldrh	r3, [r4, #12]
    3abc:	0719      	lsls	r1, r3, #28
    3abe:	d501      	bpl.n	3ac4 <_puts_r+0x1c>
    3ac0:	6923      	ldr	r3, [r4, #16]
    3ac2:	b983      	cbnz	r3, 3ae6 <_puts_r+0x3e>
    3ac4:	4628      	mov	r0, r5
    3ac6:	4621      	mov	r1, r4
    3ac8:	f001 fb4e 	bl	5168 <__swsetup_r>
    3acc:	b158      	cbz	r0, 3ae6 <_puts_r+0x3e>
    3ace:	f04f 30ff 	mov.w	r0, #4294967295
    3ad2:	bd70      	pop	{r4, r5, r6, pc}
    3ad4:	2b00      	cmp	r3, #0
    3ad6:	db0e      	blt.n	3af6 <_puts_r+0x4e>
    3ad8:	6823      	ldr	r3, [r4, #0]
    3ada:	f816 2c01 	ldrb.w	r2, [r6, #-1]
    3ade:	701a      	strb	r2, [r3, #0]
    3ae0:	6823      	ldr	r3, [r4, #0]
    3ae2:	3301      	adds	r3, #1
    3ae4:	6023      	str	r3, [r4, #0]
    3ae6:	68a3      	ldr	r3, [r4, #8]
    3ae8:	f816 2b01 	ldrb.w	r2, [r6], #1
    3aec:	3b01      	subs	r3, #1
    3aee:	60a3      	str	r3, [r4, #8]
    3af0:	2a00      	cmp	r2, #0
    3af2:	d1ef      	bne.n	3ad4 <_puts_r+0x2c>
    3af4:	e016      	b.n	3b24 <_puts_r+0x7c>
    3af6:	69a2      	ldr	r2, [r4, #24]
    3af8:	4293      	cmp	r3, r2
    3afa:	db09      	blt.n	3b10 <_puts_r+0x68>
    3afc:	6823      	ldr	r3, [r4, #0]
    3afe:	f816 2c01 	ldrb.w	r2, [r6, #-1]
    3b02:	701a      	strb	r2, [r3, #0]
    3b04:	6823      	ldr	r3, [r4, #0]
    3b06:	7819      	ldrb	r1, [r3, #0]
    3b08:	290a      	cmp	r1, #10
    3b0a:	d1ea      	bne.n	3ae2 <_puts_r+0x3a>
    3b0c:	4628      	mov	r0, r5
    3b0e:	e002      	b.n	3b16 <_puts_r+0x6e>
    3b10:	4628      	mov	r0, r5
    3b12:	f816 1c01 	ldrb.w	r1, [r6, #-1]
    3b16:	4622      	mov	r2, r4
    3b18:	f001 fac0 	bl	509c <__swbuf_r>
    3b1c:	1c42      	adds	r2, r0, #1
    3b1e:	4250      	negs	r0, r2
    3b20:	4150      	adcs	r0, r2
    3b22:	e7d3      	b.n	3acc <_puts_r+0x24>
    3b24:	2b00      	cmp	r3, #0
    3b26:	da15      	bge.n	3b54 <_puts_r+0xac>
    3b28:	69a2      	ldr	r2, [r4, #24]
    3b2a:	4293      	cmp	r3, r2
    3b2c:	db08      	blt.n	3b40 <_puts_r+0x98>
    3b2e:	6823      	ldr	r3, [r4, #0]
    3b30:	220a      	movs	r2, #10
    3b32:	701a      	strb	r2, [r3, #0]
    3b34:	6823      	ldr	r3, [r4, #0]
    3b36:	7819      	ldrb	r1, [r3, #0]
    3b38:	4291      	cmp	r1, r2
    3b3a:	d10f      	bne.n	3b5c <_puts_r+0xb4>
    3b3c:	4628      	mov	r0, r5
    3b3e:	e001      	b.n	3b44 <_puts_r+0x9c>
    3b40:	4628      	mov	r0, r5
    3b42:	210a      	movs	r1, #10
    3b44:	4622      	mov	r2, r4
    3b46:	f001 faa9 	bl	509c <__swbuf_r>
    3b4a:	1c43      	adds	r3, r0, #1
    3b4c:	4258      	negs	r0, r3
    3b4e:	4158      	adcs	r0, r3
    3b50:	b130      	cbz	r0, 3b60 <_puts_r+0xb8>
    3b52:	e7bc      	b.n	3ace <_puts_r+0x26>
    3b54:	6823      	ldr	r3, [r4, #0]
    3b56:	220a      	movs	r2, #10
    3b58:	701a      	strb	r2, [r3, #0]
    3b5a:	6823      	ldr	r3, [r4, #0]
    3b5c:	3301      	adds	r3, #1
    3b5e:	6023      	str	r3, [r4, #0]
    3b60:	200a      	movs	r0, #10
    3b62:	bd70      	pop	{r4, r5, r6, pc}

00003b64 <puts>:
    3b64:	4b02      	ldr	r3, [pc, #8]	; (3b70 <puts+0xc>)
    3b66:	4601      	mov	r1, r0
    3b68:	6818      	ldr	r0, [r3, #0]
    3b6a:	f7ff bf9d 	b.w	3aa8 <_puts_r>
    3b6e:	bf00      	nop
    3b70:	10000134 	.word	0x10000134

00003b74 <lflush>:
    3b74:	8983      	ldrh	r3, [r0, #12]
    3b76:	f003 0309 	and.w	r3, r3, #9
    3b7a:	2b09      	cmp	r3, #9
    3b7c:	d101      	bne.n	3b82 <lflush+0xe>
    3b7e:	f7fe b96d 	b.w	1e5c <fflush>
    3b82:	2000      	movs	r0, #0
    3b84:	4770      	bx	lr
	...

00003b88 <__srefill_r>:
    3b88:	b5f8      	push	{r3, r4, r5, r6, r7, lr}
    3b8a:	460c      	mov	r4, r1
    3b8c:	4605      	mov	r5, r0
    3b8e:	b118      	cbz	r0, 3b98 <__srefill_r+0x10>
    3b90:	6983      	ldr	r3, [r0, #24]
    3b92:	b90b      	cbnz	r3, 3b98 <__srefill_r+0x10>
    3b94:	f7fe f9e8 	bl	1f68 <__sinit>
    3b98:	4b39      	ldr	r3, [pc, #228]	; (3c80 <__srefill_r+0xf8>)
    3b9a:	429c      	cmp	r4, r3
    3b9c:	d101      	bne.n	3ba2 <__srefill_r+0x1a>
    3b9e:	686c      	ldr	r4, [r5, #4]
    3ba0:	e008      	b.n	3bb4 <__srefill_r+0x2c>
    3ba2:	4b38      	ldr	r3, [pc, #224]	; (3c84 <__srefill_r+0xfc>)
    3ba4:	429c      	cmp	r4, r3
    3ba6:	d101      	bne.n	3bac <__srefill_r+0x24>
    3ba8:	68ac      	ldr	r4, [r5, #8]
    3baa:	e003      	b.n	3bb4 <__srefill_r+0x2c>
    3bac:	4b36      	ldr	r3, [pc, #216]	; (3c88 <__srefill_r+0x100>)
    3bae:	429c      	cmp	r4, r3
    3bb0:	bf08      	it	eq
    3bb2:	68ec      	ldreq	r4, [r5, #12]
    3bb4:	89a2      	ldrh	r2, [r4, #12]
    3bb6:	2300      	movs	r3, #0
    3bb8:	6063      	str	r3, [r4, #4]
    3bba:	b293      	uxth	r3, r2
    3bbc:	069e      	lsls	r6, r3, #26
    3bbe:	d45a      	bmi.n	3c76 <__srefill_r+0xee>
    3bc0:	0758      	lsls	r0, r3, #29
    3bc2:	d41a      	bmi.n	3bfa <__srefill_r+0x72>
    3bc4:	06d9      	lsls	r1, r3, #27
    3bc6:	d405      	bmi.n	3bd4 <__srefill_r+0x4c>
    3bc8:	2309      	movs	r3, #9
    3bca:	f042 0240 	orr.w	r2, r2, #64	; 0x40
    3bce:	602b      	str	r3, [r5, #0]
    3bd0:	81a2      	strh	r2, [r4, #12]
    3bd2:	e050      	b.n	3c76 <__srefill_r+0xee>
    3bd4:	071a      	lsls	r2, r3, #28
    3bd6:	d50b      	bpl.n	3bf0 <__srefill_r+0x68>
    3bd8:	4628      	mov	r0, r5
    3bda:	4621      	mov	r1, r4
    3bdc:	f7fe f914 	bl	1e08 <_fflush_r>
    3be0:	2800      	cmp	r0, #0
    3be2:	d148      	bne.n	3c76 <__srefill_r+0xee>
    3be4:	89a3      	ldrh	r3, [r4, #12]
    3be6:	60a0      	str	r0, [r4, #8]
    3be8:	f023 0308 	bic.w	r3, r3, #8
    3bec:	81a3      	strh	r3, [r4, #12]
    3bee:	61a0      	str	r0, [r4, #24]
    3bf0:	89a3      	ldrh	r3, [r4, #12]
    3bf2:	f043 0304 	orr.w	r3, r3, #4
    3bf6:	81a3      	strh	r3, [r4, #12]
    3bf8:	e010      	b.n	3c1c <__srefill_r+0x94>
    3bfa:	6b61      	ldr	r1, [r4, #52]	; 0x34
    3bfc:	b171      	cbz	r1, 3c1c <__srefill_r+0x94>
    3bfe:	f104 0344 	add.w	r3, r4, #68	; 0x44
    3c02:	4299      	cmp	r1, r3
    3c04:	d002      	beq.n	3c0c <__srefill_r+0x84>
    3c06:	4628      	mov	r0, r5
    3c08:	f7fe fc10 	bl	242c <_free_r>
    3c0c:	6c23      	ldr	r3, [r4, #64]	; 0x40
    3c0e:	2000      	movs	r0, #0
    3c10:	6360      	str	r0, [r4, #52]	; 0x34
    3c12:	6063      	str	r3, [r4, #4]
    3c14:	b113      	cbz	r3, 3c1c <__srefill_r+0x94>
    3c16:	6be3      	ldr	r3, [r4, #60]	; 0x3c
    3c18:	6023      	str	r3, [r4, #0]
    3c1a:	bdf8      	pop	{r3, r4, r5, r6, r7, pc}
    3c1c:	6923      	ldr	r3, [r4, #16]
    3c1e:	b91b      	cbnz	r3, 3c28 <__srefill_r+0xa0>
    3c20:	4628      	mov	r0, r5
    3c22:	4621      	mov	r1, r4
    3c24:	f7fe fb84 	bl	2330 <__smakebuf_r>
    3c28:	89a7      	ldrh	r7, [r4, #12]
    3c2a:	b2be      	uxth	r6, r7
    3c2c:	07b3      	lsls	r3, r6, #30
    3c2e:	d00f      	beq.n	3c50 <__srefill_r+0xc8>
    3c30:	2301      	movs	r3, #1
    3c32:	81a3      	strh	r3, [r4, #12]
    3c34:	4b15      	ldr	r3, [pc, #84]	; (3c8c <__srefill_r+0x104>)
    3c36:	4916      	ldr	r1, [pc, #88]	; (3c90 <__srefill_r+0x108>)
    3c38:	6818      	ldr	r0, [r3, #0]
    3c3a:	f006 0609 	and.w	r6, r6, #9
    3c3e:	f7fe fb17 	bl	2270 <_fwalk>
    3c42:	2e09      	cmp	r6, #9
    3c44:	81a7      	strh	r7, [r4, #12]
    3c46:	d103      	bne.n	3c50 <__srefill_r+0xc8>
    3c48:	4628      	mov	r0, r5
    3c4a:	4621      	mov	r1, r4
    3c4c:	f7fe f858 	bl	1d00 <__sflush_r>
    3c50:	6922      	ldr	r2, [r4, #16]
    3c52:	6a66      	ldr	r6, [r4, #36]	; 0x24
    3c54:	6022      	str	r2, [r4, #0]
    3c56:	4628      	mov	r0, r5
    3c58:	6a21      	ldr	r1, [r4, #32]
    3c5a:	6963      	ldr	r3, [r4, #20]
    3c5c:	47b0      	blx	r6
    3c5e:	2800      	cmp	r0, #0
    3c60:	6060      	str	r0, [r4, #4]
    3c62:	dc0b      	bgt.n	3c7c <__srefill_r+0xf4>
    3c64:	89a3      	ldrh	r3, [r4, #12]
    3c66:	bf17      	itett	ne
    3c68:	2200      	movne	r2, #0
    3c6a:	f043 0320 	orreq.w	r3, r3, #32
    3c6e:	f043 0340 	orrne.w	r3, r3, #64	; 0x40
    3c72:	6062      	strne	r2, [r4, #4]
    3c74:	81a3      	strh	r3, [r4, #12]
    3c76:	f04f 30ff 	mov.w	r0, #4294967295
    3c7a:	bdf8      	pop	{r3, r4, r5, r6, r7, pc}
    3c7c:	2000      	movs	r0, #0
    3c7e:	bdf8      	pop	{r3, r4, r5, r6, r7, pc}
    3c80:	00008558 	.word	0x00008558
    3c84:	00008578 	.word	0x00008578
    3c88:	00008598 	.word	0x00008598
    3c8c:	000085bc 	.word	0x000085bc
    3c90:	00003b75 	.word	0x00003b75

00003c94 <__srget_r>:
    3c94:	b538      	push	{r3, r4, r5, lr}
    3c96:	460c      	mov	r4, r1
    3c98:	4605      	mov	r5, r0
    3c9a:	b118      	cbz	r0, 3ca4 <__srget_r+0x10>
    3c9c:	6983      	ldr	r3, [r0, #24]
    3c9e:	b90b      	cbnz	r3, 3ca4 <__srget_r+0x10>
    3ca0:	f7fe f962 	bl	1f68 <__sinit>
    3ca4:	4b0e      	ldr	r3, [pc, #56]	; (3ce0 <__srget_r+0x4c>)
    3ca6:	429c      	cmp	r4, r3
    3ca8:	d101      	bne.n	3cae <__srget_r+0x1a>
    3caa:	686c      	ldr	r4, [r5, #4]
    3cac:	e008      	b.n	3cc0 <__srget_r+0x2c>
    3cae:	4b0d      	ldr	r3, [pc, #52]	; (3ce4 <__srget_r+0x50>)
    3cb0:	429c      	cmp	r4, r3
    3cb2:	d101      	bne.n	3cb8 <__srget_r+0x24>
    3cb4:	68ac      	ldr	r4, [r5, #8]
    3cb6:	e003      	b.n	3cc0 <__srget_r+0x2c>
    3cb8:	4b0b      	ldr	r3, [pc, #44]	; (3ce8 <__srget_r+0x54>)
    3cba:	429c      	cmp	r4, r3
    3cbc:	bf08      	it	eq
    3cbe:	68ec      	ldreq	r4, [r5, #12]
    3cc0:	4628      	mov	r0, r5
    3cc2:	4621      	mov	r1, r4
    3cc4:	f7ff ff60 	bl	3b88 <__srefill_r>
    3cc8:	b938      	cbnz	r0, 3cda <__srget_r+0x46>
    3cca:	6863      	ldr	r3, [r4, #4]
    3ccc:	3b01      	subs	r3, #1
    3cce:	6063      	str	r3, [r4, #4]
    3cd0:	6823      	ldr	r3, [r4, #0]
    3cd2:	1c5a      	adds	r2, r3, #1
    3cd4:	6022      	str	r2, [r4, #0]
    3cd6:	7818      	ldrb	r0, [r3, #0]
    3cd8:	bd38      	pop	{r3, r4, r5, pc}
    3cda:	f04f 30ff 	mov.w	r0, #4294967295
    3cde:	bd38      	pop	{r3, r4, r5, pc}
    3ce0:	00008558 	.word	0x00008558
    3ce4:	00008578 	.word	0x00008578
    3ce8:	00008598 	.word	0x00008598

00003cec <__fpclassifyd>:
    3cec:	f031 4300 	bics.w	r3, r1, #2147483648	; 0x80000000
    3cf0:	b510      	push	{r4, lr}
    3cf2:	d01b      	beq.n	3d2c <__fpclassifyd+0x40>
    3cf4:	4a0f      	ldr	r2, [pc, #60]	; (3d34 <__fpclassifyd+0x48>)
    3cf6:	f5a1 1480 	sub.w	r4, r1, #1048576	; 0x100000
    3cfa:	4294      	cmp	r4, r2
    3cfc:	d910      	bls.n	3d20 <__fpclassifyd+0x34>
    3cfe:	f101 41ff 	add.w	r1, r1, #2139095040	; 0x7f800000
    3d02:	4a0c      	ldr	r2, [pc, #48]	; (3d34 <__fpclassifyd+0x48>)
    3d04:	f501 01e0 	add.w	r1, r1, #7340032	; 0x700000
    3d08:	4291      	cmp	r1, r2
    3d0a:	d909      	bls.n	3d20 <__fpclassifyd+0x34>
    3d0c:	f5b3 1f80 	cmp.w	r3, #1048576	; 0x100000
    3d10:	d308      	bcc.n	3d24 <__fpclassifyd+0x38>
    3d12:	4a09      	ldr	r2, [pc, #36]	; (3d38 <__fpclassifyd+0x4c>)
    3d14:	4293      	cmp	r3, r2
    3d16:	d107      	bne.n	3d28 <__fpclassifyd+0x3c>
    3d18:	fab0 f080 	clz	r0, r0
    3d1c:	0940      	lsrs	r0, r0, #5
    3d1e:	bd10      	pop	{r4, pc}
    3d20:	2004      	movs	r0, #4
    3d22:	bd10      	pop	{r4, pc}
    3d24:	2003      	movs	r0, #3
    3d26:	bd10      	pop	{r4, pc}
    3d28:	2000      	movs	r0, #0
    3d2a:	bd10      	pop	{r4, pc}
    3d2c:	2800      	cmp	r0, #0
    3d2e:	d1e6      	bne.n	3cfe <__fpclassifyd+0x12>
    3d30:	2002      	movs	r0, #2
    3d32:	bd10      	pop	{r4, pc}
    3d34:	7fdfffff 	.word	0x7fdfffff
    3d38:	7ff00000 	.word	0x7ff00000

00003d3c <_sbrk_r>:
    3d3c:	b538      	push	{r3, r4, r5, lr}
    3d3e:	4c06      	ldr	r4, [pc, #24]	; (3d58 <_sbrk_r+0x1c>)
    3d40:	2300      	movs	r3, #0
    3d42:	4605      	mov	r5, r0
    3d44:	4608      	mov	r0, r1
    3d46:	6023      	str	r3, [r4, #0]
    3d48:	f7fc fe16 	bl	978 <_sbrk>
    3d4c:	1c43      	adds	r3, r0, #1
    3d4e:	d102      	bne.n	3d56 <_sbrk_r+0x1a>
    3d50:	6823      	ldr	r3, [r4, #0]
    3d52:	b103      	cbz	r3, 3d56 <_sbrk_r+0x1a>
    3d54:	602b      	str	r3, [r5, #0]
    3d56:	bd38      	pop	{r3, r4, r5, pc}
    3d58:	10000484 	.word	0x10000484

00003d5c <iscanf>:
    3d5c:	b40f      	push	{r0, r1, r2, r3}
    3d5e:	4b0a      	ldr	r3, [pc, #40]	; (3d88 <iscanf+0x2c>)
    3d60:	b513      	push	{r0, r1, r4, lr}
    3d62:	681c      	ldr	r4, [r3, #0]
    3d64:	b124      	cbz	r4, 3d70 <iscanf+0x14>
    3d66:	69a3      	ldr	r3, [r4, #24]
    3d68:	b913      	cbnz	r3, 3d70 <iscanf+0x14>
    3d6a:	4620      	mov	r0, r4
    3d6c:	f7fe f8fc 	bl	1f68 <__sinit>
    3d70:	ab05      	add	r3, sp, #20
    3d72:	4620      	mov	r0, r4
    3d74:	6861      	ldr	r1, [r4, #4]
    3d76:	9a04      	ldr	r2, [sp, #16]
    3d78:	9301      	str	r3, [sp, #4]
    3d7a:	f7ff fae9 	bl	3350 <_vfiscanf_r>
    3d7e:	b002      	add	sp, #8
    3d80:	e8bd 4010 	ldmia.w	sp!, {r4, lr}
    3d84:	b004      	add	sp, #16
    3d86:	4770      	bx	lr
    3d88:	10000134 	.word	0x10000134

00003d8c <__sccl>:
    3d8c:	b5f0      	push	{r4, r5, r6, r7, lr}
    3d8e:	780a      	ldrb	r2, [r1, #0]
    3d90:	1e44      	subs	r4, r0, #1
    3d92:	2a5e      	cmp	r2, #94	; 0x5e
    3d94:	bf13      	iteet	ne
    3d96:	1c4b      	addne	r3, r1, #1
    3d98:	1c8b      	addeq	r3, r1, #2
    3d9a:	784a      	ldrbeq	r2, [r1, #1]
    3d9c:	2100      	movne	r1, #0
    3d9e:	bf08      	it	eq
    3da0:	2101      	moveq	r1, #1
    3da2:	f100 05ff 	add.w	r5, r0, #255	; 0xff
    3da6:	f804 1f01 	strb.w	r1, [r4, #1]!
    3daa:	42ac      	cmp	r4, r5
    3dac:	d1fb      	bne.n	3da6 <__sccl+0x1a>
    3dae:	b90a      	cbnz	r2, 3db4 <__sccl+0x28>
    3db0:	1e58      	subs	r0, r3, #1
    3db2:	bdf0      	pop	{r4, r5, r6, r7, pc}
    3db4:	f1c1 0401 	rsb	r4, r1, #1
    3db8:	b2e7      	uxtb	r7, r4
    3dba:	5487      	strb	r7, [r0, r2]
    3dbc:	7819      	ldrb	r1, [r3, #0]
    3dbe:	1c5e      	adds	r6, r3, #1
    3dc0:	292d      	cmp	r1, #45	; 0x2d
    3dc2:	d005      	beq.n	3dd0 <__sccl+0x44>
    3dc4:	295d      	cmp	r1, #93	; 0x5d
    3dc6:	d00e      	beq.n	3de6 <__sccl+0x5a>
    3dc8:	b179      	cbz	r1, 3dea <__sccl+0x5e>
    3dca:	460a      	mov	r2, r1
    3dcc:	4633      	mov	r3, r6
    3dce:	e7f3      	b.n	3db8 <__sccl+0x2c>
    3dd0:	785d      	ldrb	r5, [r3, #1]
    3dd2:	2d5d      	cmp	r5, #93	; 0x5d
    3dd4:	d0f9      	beq.n	3dca <__sccl+0x3e>
    3dd6:	4295      	cmp	r5, r2
    3dd8:	dbf7      	blt.n	3dca <__sccl+0x3e>
    3dda:	3302      	adds	r3, #2
    3ddc:	3201      	adds	r2, #1
    3dde:	42aa      	cmp	r2, r5
    3de0:	5487      	strb	r7, [r0, r2]
    3de2:	dbfb      	blt.n	3ddc <__sccl+0x50>
    3de4:	e7ea      	b.n	3dbc <__sccl+0x30>
    3de6:	4630      	mov	r0, r6
    3de8:	bdf0      	pop	{r4, r5, r6, r7, pc}
    3dea:	4618      	mov	r0, r3
    3dec:	bdf0      	pop	{r4, r5, r6, r7, pc}

00003dee <setbuf>:
    3dee:	2900      	cmp	r1, #0
    3df0:	bf0c      	ite	eq
    3df2:	2202      	moveq	r2, #2
    3df4:	2200      	movne	r2, #0
    3df6:	f44f 6380 	mov.w	r3, #1024	; 0x400
    3dfa:	f000 b801 	b.w	3e00 <setvbuf>
	...

00003e00 <setvbuf>:
    3e00:	e92d 41f0 	stmdb	sp!, {r4, r5, r6, r7, r8, lr}
    3e04:	461d      	mov	r5, r3
    3e06:	4b3d      	ldr	r3, [pc, #244]	; (3efc <setvbuf+0xfc>)
    3e08:	4604      	mov	r4, r0
    3e0a:	681e      	ldr	r6, [r3, #0]
    3e0c:	460f      	mov	r7, r1
    3e0e:	4690      	mov	r8, r2
    3e10:	b126      	cbz	r6, 3e1c <setvbuf+0x1c>
    3e12:	69b3      	ldr	r3, [r6, #24]
    3e14:	b913      	cbnz	r3, 3e1c <setvbuf+0x1c>
    3e16:	4630      	mov	r0, r6
    3e18:	f7fe f8a6 	bl	1f68 <__sinit>
    3e1c:	4b38      	ldr	r3, [pc, #224]	; (3f00 <setvbuf+0x100>)
    3e1e:	429c      	cmp	r4, r3
    3e20:	d101      	bne.n	3e26 <setvbuf+0x26>
    3e22:	6874      	ldr	r4, [r6, #4]
    3e24:	e008      	b.n	3e38 <setvbuf+0x38>
    3e26:	4b37      	ldr	r3, [pc, #220]	; (3f04 <setvbuf+0x104>)
    3e28:	429c      	cmp	r4, r3
    3e2a:	d101      	bne.n	3e30 <setvbuf+0x30>
    3e2c:	68b4      	ldr	r4, [r6, #8]
    3e2e:	e003      	b.n	3e38 <setvbuf+0x38>
    3e30:	4b35      	ldr	r3, [pc, #212]	; (3f08 <setvbuf+0x108>)
    3e32:	429c      	cmp	r4, r3
    3e34:	bf08      	it	eq
    3e36:	68f4      	ldreq	r4, [r6, #12]
    3e38:	f1b8 0f02 	cmp.w	r8, #2
    3e3c:	d85a      	bhi.n	3ef4 <setvbuf+0xf4>
    3e3e:	2d00      	cmp	r5, #0
    3e40:	db58      	blt.n	3ef4 <setvbuf+0xf4>
    3e42:	4630      	mov	r0, r6
    3e44:	4621      	mov	r1, r4
    3e46:	f7fd ffdf 	bl	1e08 <_fflush_r>
    3e4a:	2300      	movs	r3, #0
    3e4c:	6063      	str	r3, [r4, #4]
    3e4e:	61a3      	str	r3, [r4, #24]
    3e50:	89a3      	ldrh	r3, [r4, #12]
    3e52:	061b      	lsls	r3, r3, #24
    3e54:	d503      	bpl.n	3e5e <setvbuf+0x5e>
    3e56:	4630      	mov	r0, r6
    3e58:	6921      	ldr	r1, [r4, #16]
    3e5a:	f7fe fae7 	bl	242c <_free_r>
    3e5e:	89a3      	ldrh	r3, [r4, #12]
    3e60:	f1b8 0f02 	cmp.w	r8, #2
    3e64:	f023 0383 	bic.w	r3, r3, #131	; 0x83
    3e68:	81a3      	strh	r3, [r4, #12]
    3e6a:	d012      	beq.n	3e92 <setvbuf+0x92>
    3e6c:	bb37      	cbnz	r7, 3ebc <setvbuf+0xbc>
    3e6e:	2d00      	cmp	r5, #0
    3e70:	bf08      	it	eq
    3e72:	f44f 6580 	moveq.w	r5, #1024	; 0x400
    3e76:	4628      	mov	r0, r5
    3e78:	f7fe faa6 	bl	23c8 <malloc>
    3e7c:	4607      	mov	r7, r0
    3e7e:	b9c8      	cbnz	r0, 3eb4 <setvbuf+0xb4>
    3e80:	f44f 6080 	mov.w	r0, #1024	; 0x400
    3e84:	f7fe faa0 	bl	23c8 <malloc>
    3e88:	4607      	mov	r7, r0
    3e8a:	b988      	cbnz	r0, 3eb0 <setvbuf+0xb0>
    3e8c:	f04f 30ff 	mov.w	r0, #4294967295
    3e90:	e000      	b.n	3e94 <setvbuf+0x94>
    3e92:	2000      	movs	r0, #0
    3e94:	89a3      	ldrh	r3, [r4, #12]
    3e96:	f043 0302 	orr.w	r3, r3, #2
    3e9a:	81a3      	strh	r3, [r4, #12]
    3e9c:	2300      	movs	r3, #0
    3e9e:	60a3      	str	r3, [r4, #8]
    3ea0:	f104 0347 	add.w	r3, r4, #71	; 0x47
    3ea4:	6023      	str	r3, [r4, #0]
    3ea6:	6123      	str	r3, [r4, #16]
    3ea8:	2301      	movs	r3, #1
    3eaa:	6163      	str	r3, [r4, #20]
    3eac:	e8bd 81f0 	ldmia.w	sp!, {r4, r5, r6, r7, r8, pc}
    3eb0:	f44f 6580 	mov.w	r5, #1024	; 0x400
    3eb4:	89a3      	ldrh	r3, [r4, #12]
    3eb6:	f043 0380 	orr.w	r3, r3, #128	; 0x80
    3eba:	81a3      	strh	r3, [r4, #12]
    3ebc:	f1b8 0f01 	cmp.w	r8, #1
    3ec0:	bf01      	itttt	eq
    3ec2:	89a3      	ldrheq	r3, [r4, #12]
    3ec4:	f043 0301 	orreq.w	r3, r3, #1
    3ec8:	81a3      	strheq	r3, [r4, #12]
    3eca:	426b      	negeq	r3, r5
    3ecc:	bf08      	it	eq
    3ece:	61a3      	streq	r3, [r4, #24]
    3ed0:	4b0e      	ldr	r3, [pc, #56]	; (3f0c <setvbuf+0x10c>)
    3ed2:	62b3      	str	r3, [r6, #40]	; 0x28
    3ed4:	89a3      	ldrh	r3, [r4, #12]
    3ed6:	6027      	str	r7, [r4, #0]
    3ed8:	f003 0008 	and.w	r0, r3, #8
    3edc:	b280      	uxth	r0, r0
    3ede:	6127      	str	r7, [r4, #16]
    3ee0:	6165      	str	r5, [r4, #20]
    3ee2:	b148      	cbz	r0, 3ef8 <setvbuf+0xf8>
    3ee4:	f013 0f03 	tst.w	r3, #3
    3ee8:	bf18      	it	ne
    3eea:	2500      	movne	r5, #0
    3eec:	60a5      	str	r5, [r4, #8]
    3eee:	2000      	movs	r0, #0
    3ef0:	e8bd 81f0 	ldmia.w	sp!, {r4, r5, r6, r7, r8, pc}
    3ef4:	f04f 30ff 	mov.w	r0, #4294967295
    3ef8:	e8bd 81f0 	ldmia.w	sp!, {r4, r5, r6, r7, r8, pc}
    3efc:	10000134 	.word	0x10000134
    3f00:	00008558 	.word	0x00008558
    3f04:	00008578 	.word	0x00008578
    3f08:	00008598 	.word	0x00008598
    3f0c:	00001ee9 	.word	0x00001ee9

00003f10 <nanf>:
    3f10:	4800      	ldr	r0, [pc, #0]	; (3f14 <nanf+0x4>)
    3f12:	4770      	bx	lr
    3f14:	7fc00000 	.word	0x7fc00000

00003f18 <siprintf>:
    3f18:	b40e      	push	{r1, r2, r3}
    3f1a:	b500      	push	{lr}
    3f1c:	f44f 7102 	mov.w	r1, #520	; 0x208
    3f20:	b09c      	sub	sp, #112	; 0x70
    3f22:	f8ad 1014 	strh.w	r1, [sp, #20]
    3f26:	f06f 4100 	mvn.w	r1, #2147483648	; 0x80000000
    3f2a:	9104      	str	r1, [sp, #16]
    3f2c:	9107      	str	r1, [sp, #28]
    3f2e:	f64f 71ff 	movw	r1, #65535	; 0xffff
    3f32:	ab1d      	add	r3, sp, #116	; 0x74
    3f34:	f8ad 1016 	strh.w	r1, [sp, #22]
    3f38:	4908      	ldr	r1, [pc, #32]	; (3f5c <siprintf+0x44>)
    3f3a:	f853 2b04 	ldr.w	r2, [r3], #4
    3f3e:	9002      	str	r0, [sp, #8]
    3f40:	9006      	str	r0, [sp, #24]
    3f42:	6808      	ldr	r0, [r1, #0]
    3f44:	a902      	add	r1, sp, #8
    3f46:	9301      	str	r3, [sp, #4]
    3f48:	f002 ffec 	bl	6f24 <_svfiprintf_r>
    3f4c:	9b02      	ldr	r3, [sp, #8]
    3f4e:	2200      	movs	r2, #0
    3f50:	701a      	strb	r2, [r3, #0]
    3f52:	b01c      	add	sp, #112	; 0x70
    3f54:	f85d eb04 	ldr.w	lr, [sp], #4
    3f58:	b003      	add	sp, #12
    3f5a:	4770      	bx	lr
    3f5c:	10000134 	.word	0x10000134

00003f60 <siscanf>:
    3f60:	b40e      	push	{r1, r2, r3}
    3f62:	b530      	push	{r4, r5, lr}
    3f64:	b09c      	sub	sp, #112	; 0x70
    3f66:	ac1f      	add	r4, sp, #124	; 0x7c
    3f68:	f44f 7201 	mov.w	r2, #516	; 0x204
    3f6c:	f854 5b04 	ldr.w	r5, [r4], #4
    3f70:	f8ad 2014 	strh.w	r2, [sp, #20]
    3f74:	9002      	str	r0, [sp, #8]
    3f76:	9006      	str	r0, [sp, #24]
    3f78:	f000 f86b 	bl	4052 <strlen>
    3f7c:	4b0b      	ldr	r3, [pc, #44]	; (3fac <siscanf+0x4c>)
    3f7e:	9003      	str	r0, [sp, #12]
    3f80:	930b      	str	r3, [sp, #44]	; 0x2c
    3f82:	2300      	movs	r3, #0
    3f84:	930f      	str	r3, [sp, #60]	; 0x3c
    3f86:	9314      	str	r3, [sp, #80]	; 0x50
    3f88:	f64f 73ff 	movw	r3, #65535	; 0xffff
    3f8c:	f8ad 3016 	strh.w	r3, [sp, #22]
    3f90:	4b07      	ldr	r3, [pc, #28]	; (3fb0 <siscanf+0x50>)
    3f92:	9007      	str	r0, [sp, #28]
    3f94:	a902      	add	r1, sp, #8
    3f96:	6818      	ldr	r0, [r3, #0]
    3f98:	462a      	mov	r2, r5
    3f9a:	4623      	mov	r3, r4
    3f9c:	9401      	str	r4, [sp, #4]
    3f9e:	f003 f90d 	bl	71bc <__ssvfiscanf_r>
    3fa2:	b01c      	add	sp, #112	; 0x70
    3fa4:	e8bd 4030 	ldmia.w	sp!, {r4, r5, lr}
    3fa8:	b003      	add	sp, #12
    3faa:	4770      	bx	lr
    3fac:	00003fd7 	.word	0x00003fd7
    3fb0:	10000134 	.word	0x10000134

00003fb4 <__sread>:
    3fb4:	b510      	push	{r4, lr}
    3fb6:	460c      	mov	r4, r1
    3fb8:	f9b1 100e 	ldrsh.w	r1, [r1, #14]
    3fbc:	f003 fa4c 	bl	7458 <_read_r>
    3fc0:	2800      	cmp	r0, #0
    3fc2:	bfab      	itete	ge
    3fc4:	6d63      	ldrge	r3, [r4, #84]	; 0x54
    3fc6:	89a3      	ldrhlt	r3, [r4, #12]
    3fc8:	181b      	addge	r3, r3, r0
    3fca:	f423 5380 	biclt.w	r3, r3, #4096	; 0x1000
    3fce:	bfac      	ite	ge
    3fd0:	6563      	strge	r3, [r4, #84]	; 0x54
    3fd2:	81a3      	strhlt	r3, [r4, #12]
    3fd4:	bd10      	pop	{r4, pc}

00003fd6 <__seofread>:
    3fd6:	2000      	movs	r0, #0
    3fd8:	4770      	bx	lr

00003fda <__swrite>:
    3fda:	e92d 41f0 	stmdb	sp!, {r4, r5, r6, r7, r8, lr}
    3fde:	461d      	mov	r5, r3
    3fe0:	898b      	ldrh	r3, [r1, #12]
    3fe2:	4607      	mov	r7, r0
    3fe4:	05db      	lsls	r3, r3, #23
    3fe6:	460c      	mov	r4, r1
    3fe8:	4616      	mov	r6, r2
    3fea:	d505      	bpl.n	3ff8 <__swrite+0x1e>
    3fec:	f9b1 100e 	ldrsh.w	r1, [r1, #14]
    3ff0:	2200      	movs	r2, #0
    3ff2:	2302      	movs	r3, #2
    3ff4:	f002 fae6 	bl	65c4 <_lseek_r>
    3ff8:	89a3      	ldrh	r3, [r4, #12]
    3ffa:	4638      	mov	r0, r7
    3ffc:	f423 5380 	bic.w	r3, r3, #4096	; 0x1000
    4000:	81a3      	strh	r3, [r4, #12]
    4002:	f9b4 100e 	ldrsh.w	r1, [r4, #14]
    4006:	4632      	mov	r2, r6
    4008:	462b      	mov	r3, r5
    400a:	e8bd 41f0 	ldmia.w	sp!, {r4, r5, r6, r7, r8, lr}
    400e:	f001 b899 	b.w	5144 <_write_r>

00004012 <__sseek>:
    4012:	b510      	push	{r4, lr}
    4014:	460c      	mov	r4, r1
    4016:	f9b1 100e 	ldrsh.w	r1, [r1, #14]
    401a:	f002 fad3 	bl	65c4 <_lseek_r>
    401e:	1c43      	adds	r3, r0, #1
    4020:	89a3      	ldrh	r3, [r4, #12]
    4022:	bf15      	itete	ne
    4024:	6560      	strne	r0, [r4, #84]	; 0x54
    4026:	f423 5380 	biceq.w	r3, r3, #4096	; 0x1000
    402a:	f443 5380 	orrne.w	r3, r3, #4096	; 0x1000
    402e:	81a3      	strheq	r3, [r4, #12]
    4030:	bf18      	it	ne
    4032:	81a3      	strhne	r3, [r4, #12]
    4034:	bd10      	pop	{r4, pc}

00004036 <__sclose>:
    4036:	f9b1 100e 	ldrsh.w	r1, [r1, #14]
    403a:	f001 b901 	b.w	5240 <_close_r>

0000403e <strcmp>:
    403e:	f810 2b01 	ldrb.w	r2, [r0], #1
    4042:	f811 3b01 	ldrb.w	r3, [r1], #1
    4046:	2a01      	cmp	r2, #1
    4048:	bf28      	it	cs
    404a:	429a      	cmpcs	r2, r3
    404c:	d0f7      	beq.n	403e <strcmp>
    404e:	1ad0      	subs	r0, r2, r3
    4050:	4770      	bx	lr

00004052 <strlen>:
    4052:	4603      	mov	r3, r0
    4054:	f813 2b01 	ldrb.w	r2, [r3], #1
    4058:	2a00      	cmp	r2, #0
    405a:	d1fb      	bne.n	4054 <strlen+0x2>
    405c:	1a18      	subs	r0, r3, r0
    405e:	3801      	subs	r0, #1
    4060:	4770      	bx	lr

00004062 <strncmp>:
    4062:	b570      	push	{r4, r5, r6, lr}
    4064:	b1a2      	cbz	r2, 4090 <strncmp+0x2e>
    4066:	1e45      	subs	r5, r0, #1
    4068:	3901      	subs	r1, #1
    406a:	786b      	ldrb	r3, [r5, #1]
    406c:	f811 4f01 	ldrb.w	r4, [r1, #1]!
    4070:	1c6e      	adds	r6, r5, #1
    4072:	42a3      	cmp	r3, r4
    4074:	d106      	bne.n	4084 <strncmp+0x22>
    4076:	f06f 0401 	mvn.w	r4, #1
    407a:	1b64      	subs	r4, r4, r5
    407c:	4414      	add	r4, r2
    407e:	42e0      	cmn	r0, r4
    4080:	d102      	bne.n	4088 <strncmp+0x26>
    4082:	461c      	mov	r4, r3
    4084:	1b18      	subs	r0, r3, r4
    4086:	bd70      	pop	{r4, r5, r6, pc}
    4088:	4635      	mov	r5, r6
    408a:	2b00      	cmp	r3, #0
    408c:	d1ed      	bne.n	406a <strncmp+0x8>
    408e:	e7f8      	b.n	4082 <strncmp+0x20>
    4090:	4610      	mov	r0, r2
    4092:	bd70      	pop	{r4, r5, r6, pc}

00004094 <match>:
    4094:	b530      	push	{r4, r5, lr}
    4096:	6803      	ldr	r3, [r0, #0]
    4098:	f811 4b01 	ldrb.w	r4, [r1], #1
    409c:	3301      	adds	r3, #1
    409e:	b14c      	cbz	r4, 40b4 <match+0x20>
    40a0:	781a      	ldrb	r2, [r3, #0]
    40a2:	f1a2 0541 	sub.w	r5, r2, #65	; 0x41
    40a6:	2d19      	cmp	r5, #25
    40a8:	bf98      	it	ls
    40aa:	3220      	addls	r2, #32
    40ac:	42a2      	cmp	r2, r4
    40ae:	d0f3      	beq.n	4098 <match+0x4>
    40b0:	2000      	movs	r0, #0
    40b2:	bd30      	pop	{r4, r5, pc}
    40b4:	6003      	str	r3, [r0, #0]
    40b6:	2001      	movs	r0, #1
    40b8:	bd30      	pop	{r4, r5, pc}

000040ba <sulp>:
    40ba:	e92d 41f0 	stmdb	sp!, {r4, r5, r6, r7, r8, lr}
    40be:	460f      	mov	r7, r1
    40c0:	4690      	mov	r8, r2
    40c2:	f002 fd79 	bl	6bb8 <__ulp>
    40c6:	4604      	mov	r4, r0
    40c8:	460d      	mov	r5, r1
    40ca:	f1b8 0f00 	cmp.w	r8, #0
    40ce:	d011      	beq.n	40f4 <sulp+0x3a>
    40d0:	f3c7 530a 	ubfx	r3, r7, #20, #11
    40d4:	f1c3 036b 	rsb	r3, r3, #107	; 0x6b
    40d8:	2b00      	cmp	r3, #0
    40da:	dd0b      	ble.n	40f4 <sulp+0x3a>
    40dc:	051b      	lsls	r3, r3, #20
    40de:	f103 557f 	add.w	r5, r3, #1069547520	; 0x3fc00000
    40e2:	2400      	movs	r4, #0
    40e4:	f505 1540 	add.w	r5, r5, #3145728	; 0x300000
    40e8:	4622      	mov	r2, r4
    40ea:	462b      	mov	r3, r5
    40ec:	f003 fb88 	bl	7800 <__aeabi_dmul>
    40f0:	e8bd 81f0 	ldmia.w	sp!, {r4, r5, r6, r7, r8, pc}
    40f4:	4620      	mov	r0, r4
    40f6:	4629      	mov	r1, r5
    40f8:	e8bd 81f0 	ldmia.w	sp!, {r4, r5, r6, r7, r8, pc}
    40fc:	0000      	movs	r0, r0
	...

00004100 <_strtod_r>:
    4100:	e92d 4ff0 	stmdb	sp!, {r4, r5, r6, r7, r8, r9, sl, fp, lr}
    4104:	2300      	movs	r3, #0
    4106:	b09f      	sub	sp, #124	; 0x7c
    4108:	931a      	str	r3, [sp, #104]	; 0x68
    410a:	4682      	mov	sl, r0
    410c:	460b      	mov	r3, r1
    410e:	9103      	str	r1, [sp, #12]
    4110:	9215      	str	r2, [sp, #84]	; 0x54
    4112:	f04f 0800 	mov.w	r8, #0
    4116:	f04f 0900 	mov.w	r9, #0
    411a:	9319      	str	r3, [sp, #100]	; 0x64
    411c:	9b19      	ldr	r3, [sp, #100]	; 0x64
    411e:	781a      	ldrb	r2, [r3, #0]
    4120:	2a0d      	cmp	r2, #13
    4122:	d805      	bhi.n	4130 <_strtod_r+0x30>
    4124:	2a09      	cmp	r2, #9
    4126:	d213      	bcs.n	4150 <_strtod_r+0x50>
    4128:	2a00      	cmp	r2, #0
    412a:	f000 81b7 	beq.w	449c <_strtod_r+0x39c>
    412e:	e011      	b.n	4154 <_strtod_r+0x54>
    4130:	2a2b      	cmp	r2, #43	; 0x2b
    4132:	d006      	beq.n	4142 <_strtod_r+0x42>
    4134:	2a2d      	cmp	r2, #45	; 0x2d
    4136:	d002      	beq.n	413e <_strtod_r+0x3e>
    4138:	2a20      	cmp	r2, #32
    413a:	d10b      	bne.n	4154 <_strtod_r+0x54>
    413c:	e008      	b.n	4150 <_strtod_r+0x50>
    413e:	2201      	movs	r2, #1
    4140:	e000      	b.n	4144 <_strtod_r+0x44>
    4142:	2200      	movs	r2, #0
    4144:	9209      	str	r2, [sp, #36]	; 0x24
    4146:	1c5a      	adds	r2, r3, #1
    4148:	9219      	str	r2, [sp, #100]	; 0x64
    414a:	785b      	ldrb	r3, [r3, #1]
    414c:	b923      	cbnz	r3, 4158 <_strtod_r+0x58>
    414e:	e1a5      	b.n	449c <_strtod_r+0x39c>
    4150:	3301      	adds	r3, #1
    4152:	e7e2      	b.n	411a <_strtod_r+0x1a>
    4154:	2300      	movs	r3, #0
    4156:	9309      	str	r3, [sp, #36]	; 0x24
    4158:	9c19      	ldr	r4, [sp, #100]	; 0x64
    415a:	7823      	ldrb	r3, [r4, #0]
    415c:	2b30      	cmp	r3, #48	; 0x30
    415e:	d15c      	bne.n	421a <_strtod_r+0x11a>
    4160:	7863      	ldrb	r3, [r4, #1]
    4162:	2b58      	cmp	r3, #88	; 0x58
    4164:	d001      	beq.n	416a <_strtod_r+0x6a>
    4166:	2b78      	cmp	r3, #120	; 0x78
    4168:	d14c      	bne.n	4204 <_strtod_r+0x104>
    416a:	ab1a      	add	r3, sp, #104	; 0x68
    416c:	9300      	str	r3, [sp, #0]
    416e:	9b09      	ldr	r3, [sp, #36]	; 0x24
    4170:	4650      	mov	r0, sl
    4172:	9301      	str	r3, [sp, #4]
    4174:	a919      	add	r1, sp, #100	; 0x64
    4176:	4aae      	ldr	r2, [pc, #696]	; (4430 <_strtod_r+0x330>)
    4178:	ab1b      	add	r3, sp, #108	; 0x6c
    417a:	f001 ff4e 	bl	601a <__gethex>
    417e:	f010 0607 	ands.w	r6, r0, #7
    4182:	4605      	mov	r5, r0
    4184:	f000 85a5 	beq.w	4cd2 <_strtod_r+0xbd2>
    4188:	2e06      	cmp	r6, #6
    418a:	d105      	bne.n	4198 <_strtod_r+0x98>
    418c:	3401      	adds	r4, #1
    418e:	2300      	movs	r3, #0
    4190:	9419      	str	r4, [sp, #100]	; 0x64
    4192:	9309      	str	r3, [sp, #36]	; 0x24
    4194:	f000 bd9d 	b.w	4cd2 <_strtod_r+0xbd2>
    4198:	9a1a      	ldr	r2, [sp, #104]	; 0x68
    419a:	b13a      	cbz	r2, 41ac <_strtod_r+0xac>
    419c:	a81c      	add	r0, sp, #112	; 0x70
    419e:	2135      	movs	r1, #53	; 0x35
    41a0:	f002 fdf7 	bl	6d92 <__copybits>
    41a4:	4650      	mov	r0, sl
    41a6:	991a      	ldr	r1, [sp, #104]	; 0x68
    41a8:	f002 fa6e 	bl	6688 <_Bfree>
    41ac:	9a1b      	ldr	r2, [sp, #108]	; 0x6c
    41ae:	2e06      	cmp	r6, #6
    41b0:	d821      	bhi.n	41f6 <_strtod_r+0xf6>
    41b2:	e8df f006 	tbb	[pc, r6]
    41b6:	0d04      	.short	0x0d04
    41b8:	0d1c1708 	.word	0x0d1c1708
    41bc:	04          	.byte	0x04
    41bd:	00          	.byte	0x00
    41be:	f04f 0900 	mov.w	r9, #0
    41c2:	46c8      	mov	r8, r9
    41c4:	e017      	b.n	41f6 <_strtod_r+0xf6>
    41c6:	f8dd 8070 	ldr.w	r8, [sp, #112]	; 0x70
    41ca:	f8dd 9074 	ldr.w	r9, [sp, #116]	; 0x74
    41ce:	e012      	b.n	41f6 <_strtod_r+0xf6>
    41d0:	9b1d      	ldr	r3, [sp, #116]	; 0x74
    41d2:	f202 4233 	addw	r2, r2, #1075	; 0x433
    41d6:	f423 1380 	bic.w	r3, r3, #1048576	; 0x100000
    41da:	f8dd 8070 	ldr.w	r8, [sp, #112]	; 0x70
    41de:	ea43 5902 	orr.w	r9, r3, r2, lsl #20
    41e2:	e008      	b.n	41f6 <_strtod_r+0xf6>
    41e4:	f8df 924c 	ldr.w	r9, [pc, #588]	; 4434 <_strtod_r+0x334>
    41e8:	f04f 0800 	mov.w	r8, #0
    41ec:	e003      	b.n	41f6 <_strtod_r+0xf6>
    41ee:	f06f 4900 	mvn.w	r9, #2147483648	; 0x80000000
    41f2:	f04f 38ff 	mov.w	r8, #4294967295
    41f6:	0729      	lsls	r1, r5, #28
    41f8:	f140 856b 	bpl.w	4cd2 <_strtod_r+0xbd2>
    41fc:	f049 4900 	orr.w	r9, r9, #2147483648	; 0x80000000
    4200:	f000 bd67 	b.w	4cd2 <_strtod_r+0xbd2>
    4204:	9b19      	ldr	r3, [sp, #100]	; 0x64
    4206:	1c5a      	adds	r2, r3, #1
    4208:	9219      	str	r2, [sp, #100]	; 0x64
    420a:	785b      	ldrb	r3, [r3, #1]
    420c:	2b30      	cmp	r3, #48	; 0x30
    420e:	d0f9      	beq.n	4204 <_strtod_r+0x104>
    4210:	2b00      	cmp	r3, #0
    4212:	f000 855e 	beq.w	4cd2 <_strtod_r+0xbd2>
    4216:	2301      	movs	r3, #1
    4218:	e000      	b.n	421c <_strtod_r+0x11c>
    421a:	2300      	movs	r3, #0
    421c:	2600      	movs	r6, #0
    421e:	46b3      	mov	fp, r6
    4220:	4635      	mov	r5, r6
    4222:	9304      	str	r3, [sp, #16]
    4224:	9b19      	ldr	r3, [sp, #100]	; 0x64
    4226:	9307      	str	r3, [sp, #28]
    4228:	9c19      	ldr	r4, [sp, #100]	; 0x64
    422a:	7827      	ldrb	r7, [r4, #0]
    422c:	f1a7 0330 	sub.w	r3, r7, #48	; 0x30
    4230:	b2da      	uxtb	r2, r3
    4232:	2a09      	cmp	r2, #9
    4234:	d80c      	bhi.n	4250 <_strtod_r+0x150>
    4236:	2d08      	cmp	r5, #8
    4238:	f04f 020a 	mov.w	r2, #10
    423c:	f104 0401 	add.w	r4, r4, #1
    4240:	bfd4      	ite	le
    4242:	fb02 3b0b 	mlale	fp, r2, fp, r3
    4246:	fb02 3606 	mlagt	r6, r2, r6, r3
    424a:	3501      	adds	r5, #1
    424c:	9419      	str	r4, [sp, #100]	; 0x64
    424e:	e7eb      	b.n	4228 <_strtod_r+0x128>
    4250:	4650      	mov	r0, sl
    4252:	f002 f9b3 	bl	65bc <_localeconv_r>
    4256:	6801      	ldr	r1, [r0, #0]
    4258:	4650      	mov	r0, sl
    425a:	9105      	str	r1, [sp, #20]
    425c:	f002 f9ae 	bl	65bc <_localeconv_r>
    4260:	6800      	ldr	r0, [r0, #0]
    4262:	f7ff fef6 	bl	4052 <strlen>
    4266:	9905      	ldr	r1, [sp, #20]
    4268:	4602      	mov	r2, r0
    426a:	4620      	mov	r0, r4
    426c:	f7ff fef9 	bl	4062 <strncmp>
    4270:	b128      	cbz	r0, 427e <_strtod_r+0x17e>
    4272:	2000      	movs	r0, #0
    4274:	463b      	mov	r3, r7
    4276:	462c      	mov	r4, r5
    4278:	4602      	mov	r2, r0
    427a:	4607      	mov	r7, r0
    427c:	e057      	b.n	432e <_strtod_r+0x22e>
    427e:	9005      	str	r0, [sp, #20]
    4280:	4650      	mov	r0, sl
    4282:	f002 f99b 	bl	65bc <_localeconv_r>
    4286:	6800      	ldr	r0, [r0, #0]
    4288:	f7ff fee3 	bl	4052 <strlen>
    428c:	9b19      	ldr	r3, [sp, #100]	; 0x64
    428e:	9905      	ldr	r1, [sp, #20]
    4290:	181a      	adds	r2, r3, r0
    4292:	9219      	str	r2, [sp, #100]	; 0x64
    4294:	5c1b      	ldrb	r3, [r3, r0]
    4296:	2d00      	cmp	r5, #0
    4298:	d141      	bne.n	431e <_strtod_r+0x21e>
    429a:	4628      	mov	r0, r5
    429c:	2b30      	cmp	r3, #48	; 0x30
    429e:	d105      	bne.n	42ac <_strtod_r+0x1ac>
    42a0:	9b19      	ldr	r3, [sp, #100]	; 0x64
    42a2:	3001      	adds	r0, #1
    42a4:	1c5a      	adds	r2, r3, #1
    42a6:	9219      	str	r2, [sp, #100]	; 0x64
    42a8:	785b      	ldrb	r3, [r3, #1]
    42aa:	e7f7      	b.n	429c <_strtod_r+0x19c>
    42ac:	f1a3 0231 	sub.w	r2, r3, #49	; 0x31
    42b0:	2a08      	cmp	r2, #8
    42b2:	d842      	bhi.n	433a <_strtod_r+0x23a>
    42b4:	9a19      	ldr	r2, [sp, #100]	; 0x64
    42b6:	9207      	str	r2, [sp, #28]
    42b8:	4602      	mov	r2, r0
    42ba:	2000      	movs	r0, #0
    42bc:	4604      	mov	r4, r0
    42be:	3b30      	subs	r3, #48	; 0x30
    42c0:	f100 0101 	add.w	r1, r0, #1
    42c4:	d025      	beq.n	4312 <_strtod_r+0x212>
    42c6:	440a      	add	r2, r1
    42c8:	4621      	mov	r1, r4
    42ca:	1907      	adds	r7, r0, r4
    42cc:	42b9      	cmp	r1, r7
    42ce:	d011      	beq.n	42f4 <_strtod_r+0x1f4>
    42d0:	3101      	adds	r1, #1
    42d2:	f101 3eff 	add.w	lr, r1, #4294967295
    42d6:	f1be 0f08 	cmp.w	lr, #8
    42da:	dc04      	bgt.n	42e6 <_strtod_r+0x1e6>
    42dc:	f04f 0e0a 	mov.w	lr, #10
    42e0:	fb0e fb0b 	mul.w	fp, lr, fp
    42e4:	e7f2      	b.n	42cc <_strtod_r+0x1cc>
    42e6:	2910      	cmp	r1, #16
    42e8:	bfdc      	itt	le
    42ea:	f04f 0e0a 	movle.w	lr, #10
    42ee:	fb0e f606 	mulle.w	r6, lr, r6
    42f2:	e7eb      	b.n	42cc <_strtod_r+0x1cc>
    42f4:	4420      	add	r0, r4
    42f6:	2808      	cmp	r0, #8
    42f8:	f100 0401 	add.w	r4, r0, #1
    42fc:	dc03      	bgt.n	4306 <_strtod_r+0x206>
    42fe:	210a      	movs	r1, #10
    4300:	fb01 3b0b 	mla	fp, r1, fp, r3
    4304:	e004      	b.n	4310 <_strtod_r+0x210>
    4306:	2c10      	cmp	r4, #16
    4308:	bfdc      	itt	le
    430a:	210a      	movle	r1, #10
    430c:	fb01 3606 	mlale	r6, r1, r6, r3
    4310:	2100      	movs	r1, #0
    4312:	9b19      	ldr	r3, [sp, #100]	; 0x64
    4314:	1c58      	adds	r0, r3, #1
    4316:	9019      	str	r0, [sp, #100]	; 0x64
    4318:	785b      	ldrb	r3, [r3, #1]
    431a:	4608      	mov	r0, r1
    431c:	e002      	b.n	4324 <_strtod_r+0x224>
    431e:	462c      	mov	r4, r5
    4320:	4608      	mov	r0, r1
    4322:	460a      	mov	r2, r1
    4324:	f1a3 0130 	sub.w	r1, r3, #48	; 0x30
    4328:	2909      	cmp	r1, #9
    432a:	d9c8      	bls.n	42be <_strtod_r+0x1be>
    432c:	2701      	movs	r7, #1
    432e:	2b65      	cmp	r3, #101	; 0x65
    4330:	d001      	beq.n	4336 <_strtod_r+0x236>
    4332:	2b45      	cmp	r3, #69	; 0x45
    4334:	d164      	bne.n	4400 <_strtod_r+0x300>
    4336:	b96c      	cbnz	r4, 4354 <_strtod_r+0x254>
    4338:	e004      	b.n	4344 <_strtod_r+0x244>
    433a:	2b65      	cmp	r3, #101	; 0x65
    433c:	f040 84d7 	bne.w	4cee <_strtod_r+0xbee>
    4340:	2200      	movs	r2, #0
    4342:	2701      	movs	r7, #1
    4344:	b928      	cbnz	r0, 4352 <_strtod_r+0x252>
    4346:	9b04      	ldr	r3, [sp, #16]
    4348:	2b00      	cmp	r3, #0
    434a:	f000 80a7 	beq.w	449c <_strtod_r+0x39c>
    434e:	4604      	mov	r4, r0
    4350:	e000      	b.n	4354 <_strtod_r+0x254>
    4352:	2400      	movs	r4, #0
    4354:	9b19      	ldr	r3, [sp, #100]	; 0x64
    4356:	9303      	str	r3, [sp, #12]
    4358:	3301      	adds	r3, #1
    435a:	9319      	str	r3, [sp, #100]	; 0x64
    435c:	9b03      	ldr	r3, [sp, #12]
    435e:	785b      	ldrb	r3, [r3, #1]
    4360:	2b2b      	cmp	r3, #43	; 0x2b
    4362:	d007      	beq.n	4374 <_strtod_r+0x274>
    4364:	2b2d      	cmp	r3, #45	; 0x2d
    4366:	d002      	beq.n	436e <_strtod_r+0x26e>
    4368:	f04f 0c00 	mov.w	ip, #0
    436c:	e009      	b.n	4382 <_strtod_r+0x282>
    436e:	f04f 0c01 	mov.w	ip, #1
    4372:	e001      	b.n	4378 <_strtod_r+0x278>
    4374:	f04f 0c00 	mov.w	ip, #0
    4378:	9b03      	ldr	r3, [sp, #12]
    437a:	3302      	adds	r3, #2
    437c:	9319      	str	r3, [sp, #100]	; 0x64
    437e:	9b03      	ldr	r3, [sp, #12]
    4380:	789b      	ldrb	r3, [r3, #2]
    4382:	f1a3 0130 	sub.w	r1, r3, #48	; 0x30
    4386:	2909      	cmp	r1, #9
    4388:	d838      	bhi.n	43fc <_strtod_r+0x2fc>
    438a:	4619      	mov	r1, r3
    438c:	2930      	cmp	r1, #48	; 0x30
    438e:	d104      	bne.n	439a <_strtod_r+0x29a>
    4390:	9b19      	ldr	r3, [sp, #100]	; 0x64
    4392:	1c59      	adds	r1, r3, #1
    4394:	9119      	str	r1, [sp, #100]	; 0x64
    4396:	7859      	ldrb	r1, [r3, #1]
    4398:	e7f8      	b.n	438c <_strtod_r+0x28c>
    439a:	f1a1 0e31 	sub.w	lr, r1, #49	; 0x31
    439e:	f1be 0f08 	cmp.w	lr, #8
    43a2:	460b      	mov	r3, r1
    43a4:	d82c      	bhi.n	4400 <_strtod_r+0x300>
    43a6:	f1a1 0330 	sub.w	r3, r1, #48	; 0x30
    43aa:	9305      	str	r3, [sp, #20]
    43ac:	9b19      	ldr	r3, [sp, #100]	; 0x64
    43ae:	9306      	str	r3, [sp, #24]
    43b0:	9b19      	ldr	r3, [sp, #100]	; 0x64
    43b2:	f103 0e01 	add.w	lr, r3, #1
    43b6:	f8cd e064 	str.w	lr, [sp, #100]	; 0x64
    43ba:	785b      	ldrb	r3, [r3, #1]
    43bc:	f1a3 0130 	sub.w	r1, r3, #48	; 0x30
    43c0:	2909      	cmp	r1, #9
    43c2:	d808      	bhi.n	43d6 <_strtod_r+0x2d6>
    43c4:	9905      	ldr	r1, [sp, #20]
    43c6:	f04f 0e0a 	mov.w	lr, #10
    43ca:	fb0e 3101 	mla	r1, lr, r1, r3
    43ce:	f1a1 0330 	sub.w	r3, r1, #48	; 0x30
    43d2:	9305      	str	r3, [sp, #20]
    43d4:	e7ec      	b.n	43b0 <_strtod_r+0x2b0>
    43d6:	9906      	ldr	r1, [sp, #24]
    43d8:	ebc1 0e0e 	rsb	lr, r1, lr
    43dc:	f1be 0f08 	cmp.w	lr, #8
    43e0:	f644 6e1f 	movw	lr, #19999	; 0x4e1f
    43e4:	dc04      	bgt.n	43f0 <_strtod_r+0x2f0>
    43e6:	9905      	ldr	r1, [sp, #20]
    43e8:	4571      	cmp	r1, lr
    43ea:	bfa8      	it	ge
    43ec:	4671      	movge	r1, lr
    43ee:	e000      	b.n	43f2 <_strtod_r+0x2f2>
    43f0:	4671      	mov	r1, lr
    43f2:	f1bc 0f00 	cmp.w	ip, #0
    43f6:	d004      	beq.n	4402 <_strtod_r+0x302>
    43f8:	4249      	negs	r1, r1
    43fa:	e002      	b.n	4402 <_strtod_r+0x302>
    43fc:	9903      	ldr	r1, [sp, #12]
    43fe:	9119      	str	r1, [sp, #100]	; 0x64
    4400:	2100      	movs	r1, #0
    4402:	2c00      	cmp	r4, #0
    4404:	d154      	bne.n	44b0 <_strtod_r+0x3b0>
    4406:	2800      	cmp	r0, #0
    4408:	f040 8463 	bne.w	4cd2 <_strtod_r+0xbd2>
    440c:	9a04      	ldr	r2, [sp, #16]
    440e:	2a00      	cmp	r2, #0
    4410:	f040 845f 	bne.w	4cd2 <_strtod_r+0xbd2>
    4414:	2f00      	cmp	r7, #0
    4416:	d141      	bne.n	449c <_strtod_r+0x39c>
    4418:	2b4e      	cmp	r3, #78	; 0x4e
    441a:	d020      	beq.n	445e <_strtod_r+0x35e>
    441c:	dc02      	bgt.n	4424 <_strtod_r+0x324>
    441e:	2b49      	cmp	r3, #73	; 0x49
    4420:	d00a      	beq.n	4438 <_strtod_r+0x338>
    4422:	e03b      	b.n	449c <_strtod_r+0x39c>
    4424:	2b69      	cmp	r3, #105	; 0x69
    4426:	d007      	beq.n	4438 <_strtod_r+0x338>
    4428:	2b6e      	cmp	r3, #110	; 0x6e
    442a:	d018      	beq.n	445e <_strtod_r+0x35e>
    442c:	e036      	b.n	449c <_strtod_r+0x39c>
    442e:	bf00      	nop
    4430:	00008670 	.word	0x00008670
    4434:	7ff00000 	.word	0x7ff00000
    4438:	a819      	add	r0, sp, #100	; 0x64
    443a:	49aa      	ldr	r1, [pc, #680]	; (46e4 <_strtod_r+0x5e4>)
    443c:	f7ff fe2a 	bl	4094 <match>
    4440:	b360      	cbz	r0, 449c <_strtod_r+0x39c>
    4442:	9b19      	ldr	r3, [sp, #100]	; 0x64
    4444:	a819      	add	r0, sp, #100	; 0x64
    4446:	3b01      	subs	r3, #1
    4448:	49a7      	ldr	r1, [pc, #668]	; (46e8 <_strtod_r+0x5e8>)
    444a:	9319      	str	r3, [sp, #100]	; 0x64
    444c:	f7ff fe22 	bl	4094 <match>
    4450:	b910      	cbnz	r0, 4458 <_strtod_r+0x358>
    4452:	9b19      	ldr	r3, [sp, #100]	; 0x64
    4454:	3301      	adds	r3, #1
    4456:	9319      	str	r3, [sp, #100]	; 0x64
    4458:	f8df 92a4 	ldr.w	r9, [pc, #676]	; 4700 <_strtod_r+0x600>
    445c:	e01a      	b.n	4494 <_strtod_r+0x394>
    445e:	a819      	add	r0, sp, #100	; 0x64
    4460:	49a2      	ldr	r1, [pc, #648]	; (46ec <_strtod_r+0x5ec>)
    4462:	f7ff fe17 	bl	4094 <match>
    4466:	b1c8      	cbz	r0, 449c <_strtod_r+0x39c>
    4468:	9b19      	ldr	r3, [sp, #100]	; 0x64
    446a:	781b      	ldrb	r3, [r3, #0]
    446c:	2b28      	cmp	r3, #40	; 0x28
    446e:	d10f      	bne.n	4490 <_strtod_r+0x390>
    4470:	a819      	add	r0, sp, #100	; 0x64
    4472:	499f      	ldr	r1, [pc, #636]	; (46f0 <_strtod_r+0x5f0>)
    4474:	aa1c      	add	r2, sp, #112	; 0x70
    4476:	f002 f807 	bl	6488 <__hexnan>
    447a:	2805      	cmp	r0, #5
    447c:	d108      	bne.n	4490 <_strtod_r+0x390>
    447e:	9b1d      	ldr	r3, [sp, #116]	; 0x74
    4480:	f8dd 8070 	ldr.w	r8, [sp, #112]	; 0x70
    4484:	f043 49ff 	orr.w	r9, r3, #2139095040	; 0x7f800000
    4488:	f449 09e0 	orr.w	r9, r9, #7340032	; 0x700000
    448c:	f000 bc21 	b.w	4cd2 <_strtod_r+0xbd2>
    4490:	f8df 9270 	ldr.w	r9, [pc, #624]	; 4704 <_strtod_r+0x604>
    4494:	f04f 0800 	mov.w	r8, #0
    4498:	f000 bc1b 	b.w	4cd2 <_strtod_r+0xbd2>
    449c:	9b03      	ldr	r3, [sp, #12]
    449e:	9319      	str	r3, [sp, #100]	; 0x64
    44a0:	9b15      	ldr	r3, [sp, #84]	; 0x54
    44a2:	2b00      	cmp	r3, #0
    44a4:	f000 8420 	beq.w	4ce8 <_strtod_r+0xbe8>
    44a8:	2300      	movs	r3, #0
    44aa:	9309      	str	r3, [sp, #36]	; 0x24
    44ac:	f000 bc13 	b.w	4cd6 <_strtod_r+0xbd6>
    44b0:	1a8b      	subs	r3, r1, r2
    44b2:	9306      	str	r3, [sp, #24]
    44b4:	462b      	mov	r3, r5
    44b6:	2d00      	cmp	r5, #0
    44b8:	bf08      	it	eq
    44ba:	4623      	moveq	r3, r4
    44bc:	4658      	mov	r0, fp
    44be:	2c10      	cmp	r4, #16
    44c0:	4625      	mov	r5, r4
    44c2:	9303      	str	r3, [sp, #12]
    44c4:	bfa8      	it	ge
    44c6:	2510      	movge	r5, #16
    44c8:	f003 f924 	bl	7714 <__aeabi_ui2d>
    44cc:	2d09      	cmp	r5, #9
    44ce:	4680      	mov	r8, r0
    44d0:	4689      	mov	r9, r1
    44d2:	dd13      	ble.n	44fc <_strtod_r+0x3fc>
    44d4:	4b87      	ldr	r3, [pc, #540]	; (46f4 <_strtod_r+0x5f4>)
    44d6:	eb03 03c5 	add.w	r3, r3, r5, lsl #3
    44da:	e953 2312 	ldrd	r2, r3, [r3, #-72]	; 0x48
    44de:	f003 f98f 	bl	7800 <__aeabi_dmul>
    44e2:	4680      	mov	r8, r0
    44e4:	4630      	mov	r0, r6
    44e6:	4689      	mov	r9, r1
    44e8:	f003 f914 	bl	7714 <__aeabi_ui2d>
    44ec:	4602      	mov	r2, r0
    44ee:	460b      	mov	r3, r1
    44f0:	4640      	mov	r0, r8
    44f2:	4649      	mov	r1, r9
    44f4:	f002 ffd2 	bl	749c <__adddf3>
    44f8:	4680      	mov	r8, r0
    44fa:	4689      	mov	r9, r1
    44fc:	2c0f      	cmp	r4, #15
    44fe:	dc36      	bgt.n	456e <_strtod_r+0x46e>
    4500:	9b06      	ldr	r3, [sp, #24]
    4502:	2b00      	cmp	r3, #0
    4504:	f000 83e5 	beq.w	4cd2 <_strtod_r+0xbd2>
    4508:	dd24      	ble.n	4554 <_strtod_r+0x454>
    450a:	2b16      	cmp	r3, #22
    450c:	dc07      	bgt.n	451e <_strtod_r+0x41e>
    450e:	4a79      	ldr	r2, [pc, #484]	; (46f4 <_strtod_r+0x5f4>)
    4510:	eb02 02c3 	add.w	r2, r2, r3, lsl #3
    4514:	e9d2 0100 	ldrd	r0, r1, [r2]
    4518:	464b      	mov	r3, r9
    451a:	4642      	mov	r2, r8
    451c:	e015      	b.n	454a <_strtod_r+0x44a>
    451e:	9a06      	ldr	r2, [sp, #24]
    4520:	f1c4 0325 	rsb	r3, r4, #37	; 0x25
    4524:	429a      	cmp	r2, r3
    4526:	dc22      	bgt.n	456e <_strtod_r+0x46e>
    4528:	4d72      	ldr	r5, [pc, #456]	; (46f4 <_strtod_r+0x5f4>)
    452a:	f1c4 040f 	rsb	r4, r4, #15
    452e:	eb05 03c4 	add.w	r3, r5, r4, lsl #3
    4532:	e9d3 0100 	ldrd	r0, r1, [r3]
    4536:	4642      	mov	r2, r8
    4538:	464b      	mov	r3, r9
    453a:	f003 f961 	bl	7800 <__aeabi_dmul>
    453e:	9b06      	ldr	r3, [sp, #24]
    4540:	1b1c      	subs	r4, r3, r4
    4542:	eb05 05c4 	add.w	r5, r5, r4, lsl #3
    4546:	e9d5 2300 	ldrd	r2, r3, [r5]
    454a:	f003 f959 	bl	7800 <__aeabi_dmul>
    454e:	4680      	mov	r8, r0
    4550:	4689      	mov	r9, r1
    4552:	e3be      	b.n	4cd2 <_strtod_r+0xbd2>
    4554:	9b06      	ldr	r3, [sp, #24]
    4556:	f113 0f16 	cmn.w	r3, #22
    455a:	db08      	blt.n	456e <_strtod_r+0x46e>
    455c:	4a65      	ldr	r2, [pc, #404]	; (46f4 <_strtod_r+0x5f4>)
    455e:	4640      	mov	r0, r8
    4560:	eba2 02c3 	sub.w	r2, r2, r3, lsl #3
    4564:	4649      	mov	r1, r9
    4566:	ca0c      	ldmia	r2, {r2, r3}
    4568:	f003 fa74 	bl	7a54 <__aeabi_ddiv>
    456c:	e7ef      	b.n	454e <_strtod_r+0x44e>
    456e:	9b06      	ldr	r3, [sp, #24]
    4570:	1b65      	subs	r5, r4, r5
    4572:	441d      	add	r5, r3
    4574:	2d00      	cmp	r5, #0
    4576:	dd58      	ble.n	462a <_strtod_r+0x52a>
    4578:	f015 020f 	ands.w	r2, r5, #15
    457c:	d00a      	beq.n	4594 <_strtod_r+0x494>
    457e:	4b5d      	ldr	r3, [pc, #372]	; (46f4 <_strtod_r+0x5f4>)
    4580:	eb03 03c2 	add.w	r3, r3, r2, lsl #3
    4584:	e9d3 0100 	ldrd	r0, r1, [r3]
    4588:	4642      	mov	r2, r8
    458a:	464b      	mov	r3, r9
    458c:	f003 f938 	bl	7800 <__aeabi_dmul>
    4590:	4680      	mov	r8, r0
    4592:	4689      	mov	r9, r1
    4594:	f035 050f 	bics.w	r5, r5, #15
    4598:	f000 80ba 	beq.w	4710 <_strtod_r+0x610>
    459c:	f5b5 7f9a 	cmp.w	r5, #308	; 0x134
    45a0:	dd0f      	ble.n	45c2 <_strtod_r+0x4c2>
    45a2:	f04f 0b00 	mov.w	fp, #0
    45a6:	f8cd b00c 	str.w	fp, [sp, #12]
    45aa:	f8cd b01c 	str.w	fp, [sp, #28]
    45ae:	f8cd b014 	str.w	fp, [sp, #20]
    45b2:	2322      	movs	r3, #34	; 0x22
    45b4:	f8ca 3000 	str.w	r3, [sl]
    45b8:	f8df 9144 	ldr.w	r9, [pc, #324]	; 4700 <_strtod_r+0x600>
    45bc:	f04f 0800 	mov.w	r8, #0
    45c0:	e183      	b.n	48ca <_strtod_r+0x7ca>
    45c2:	4649      	mov	r1, r9
    45c4:	f8df 9140 	ldr.w	r9, [pc, #320]	; 4708 <_strtod_r+0x608>
    45c8:	4640      	mov	r0, r8
    45ca:	464e      	mov	r6, r9
    45cc:	112d      	asrs	r5, r5, #4
    45ce:	2700      	movs	r7, #0
    45d0:	2d01      	cmp	r5, #1
    45d2:	dd0a      	ble.n	45ea <_strtod_r+0x4ea>
    45d4:	07ea      	lsls	r2, r5, #31
    45d6:	d503      	bpl.n	45e0 <_strtod_r+0x4e0>
    45d8:	e9d9 2300 	ldrd	r2, r3, [r9]
    45dc:	f003 f910 	bl	7800 <__aeabi_dmul>
    45e0:	3701      	adds	r7, #1
    45e2:	106d      	asrs	r5, r5, #1
    45e4:	f109 0908 	add.w	r9, r9, #8
    45e8:	e7f2      	b.n	45d0 <_strtod_r+0x4d0>
    45ea:	4680      	mov	r8, r0
    45ec:	f1a1 7954 	sub.w	r9, r1, #55574528	; 0x3500000
    45f0:	eb06 06c7 	add.w	r6, r6, r7, lsl #3
    45f4:	4642      	mov	r2, r8
    45f6:	e9d6 0100 	ldrd	r0, r1, [r6]
    45fa:	464b      	mov	r3, r9
    45fc:	f003 f900 	bl	7800 <__aeabi_dmul>
    4600:	f021 4300 	bic.w	r3, r1, #2147483648	; 0x80000000
    4604:	4689      	mov	r9, r1
    4606:	460a      	mov	r2, r1
    4608:	0d1b      	lsrs	r3, r3, #20
    460a:	493b      	ldr	r1, [pc, #236]	; (46f8 <_strtod_r+0x5f8>)
    460c:	051b      	lsls	r3, r3, #20
    460e:	428b      	cmp	r3, r1
    4610:	4680      	mov	r8, r0
    4612:	d8c6      	bhi.n	45a2 <_strtod_r+0x4a2>
    4614:	f5a1 1180 	sub.w	r1, r1, #1048576	; 0x100000
    4618:	428b      	cmp	r3, r1
    461a:	bf86      	itte	hi
    461c:	f8df 90ec 	ldrhi.w	r9, [pc, #236]	; 470c <_strtod_r+0x60c>
    4620:	f04f 38ff 	movhi.w	r8, #4294967295
    4624:	f102 7954 	addls.w	r9, r2, #55574528	; 0x3500000
    4628:	e072      	b.n	4710 <_strtod_r+0x610>
    462a:	d071      	beq.n	4710 <_strtod_r+0x610>
    462c:	426d      	negs	r5, r5
    462e:	f015 020f 	ands.w	r2, r5, #15
    4632:	d00a      	beq.n	464a <_strtod_r+0x54a>
    4634:	4b2f      	ldr	r3, [pc, #188]	; (46f4 <_strtod_r+0x5f4>)
    4636:	4640      	mov	r0, r8
    4638:	eb03 03c2 	add.w	r3, r3, r2, lsl #3
    463c:	4649      	mov	r1, r9
    463e:	e9d3 2300 	ldrd	r2, r3, [r3]
    4642:	f003 fa07 	bl	7a54 <__aeabi_ddiv>
    4646:	4680      	mov	r8, r0
    4648:	4689      	mov	r9, r1
    464a:	112d      	asrs	r5, r5, #4
    464c:	d060      	beq.n	4710 <_strtod_r+0x610>
    464e:	2d1f      	cmp	r5, #31
    4650:	dd08      	ble.n	4664 <_strtod_r+0x564>
    4652:	f04f 0b00 	mov.w	fp, #0
    4656:	f8cd b00c 	str.w	fp, [sp, #12]
    465a:	f8cd b01c 	str.w	fp, [sp, #28]
    465e:	f8cd b014 	str.w	fp, [sp, #20]
    4662:	e12b      	b.n	48bc <_strtod_r+0x7bc>
    4664:	4640      	mov	r0, r8
    4666:	4649      	mov	r1, r9
    4668:	f015 0f10 	tst.w	r5, #16
    466c:	bf0c      	ite	eq
    466e:	2300      	moveq	r3, #0
    4670:	236a      	movne	r3, #106	; 0x6a
    4672:	4e22      	ldr	r6, [pc, #136]	; (46fc <_strtod_r+0x5fc>)
    4674:	9304      	str	r3, [sp, #16]
    4676:	2d00      	cmp	r5, #0
    4678:	dd08      	ble.n	468c <_strtod_r+0x58c>
    467a:	07eb      	lsls	r3, r5, #31
    467c:	d503      	bpl.n	4686 <_strtod_r+0x586>
    467e:	e9d6 2300 	ldrd	r2, r3, [r6]
    4682:	f003 f8bd 	bl	7800 <__aeabi_dmul>
    4686:	106d      	asrs	r5, r5, #1
    4688:	3608      	adds	r6, #8
    468a:	e7f4      	b.n	4676 <_strtod_r+0x576>
    468c:	9b04      	ldr	r3, [sp, #16]
    468e:	4680      	mov	r8, r0
    4690:	4689      	mov	r9, r1
    4692:	b1eb      	cbz	r3, 46d0 <_strtod_r+0x5d0>
    4694:	f3c1 530a 	ubfx	r3, r1, #20, #11
    4698:	f1c3 036b 	rsb	r3, r3, #107	; 0x6b
    469c:	2b00      	cmp	r3, #0
    469e:	460a      	mov	r2, r1
    46a0:	dd16      	ble.n	46d0 <_strtod_r+0x5d0>
    46a2:	2b1f      	cmp	r3, #31
    46a4:	dd0e      	ble.n	46c4 <_strtod_r+0x5c4>
    46a6:	2b34      	cmp	r3, #52	; 0x34
    46a8:	bfde      	ittt	le
    46aa:	3b20      	suble	r3, #32
    46ac:	f04f 31ff 	movle.w	r1, #4294967295
    46b0:	fa01 f303 	lslle.w	r3, r1, r3
    46b4:	f04f 0800 	mov.w	r8, #0
    46b8:	bfcc      	ite	gt
    46ba:	f04f 795c 	movgt.w	r9, #57671680	; 0x3700000
    46be:	ea03 0902 	andle.w	r9, r3, r2
    46c2:	e005      	b.n	46d0 <_strtod_r+0x5d0>
    46c4:	f04f 32ff 	mov.w	r2, #4294967295
    46c8:	fa02 f303 	lsl.w	r3, r2, r3
    46cc:	ea03 0800 	and.w	r8, r3, r0
    46d0:	4640      	mov	r0, r8
    46d2:	4649      	mov	r1, r9
    46d4:	2200      	movs	r2, #0
    46d6:	2300      	movs	r3, #0
    46d8:	f003 fafa 	bl	7cd0 <__aeabi_dcmpeq>
    46dc:	2800      	cmp	r0, #0
    46de:	d1b8      	bne.n	4652 <_strtod_r+0x552>
    46e0:	e018      	b.n	4714 <_strtod_r+0x614>
    46e2:	bf00      	nop
    46e4:	000085d6 	.word	0x000085d6
    46e8:	00008788 	.word	0x00008788
    46ec:	000085de 	.word	0x000085de
    46f0:	00008630 	.word	0x00008630
    46f4:	000087a0 	.word	0x000087a0
    46f8:	7ca00000 	.word	0x7ca00000
    46fc:	00008648 	.word	0x00008648
    4700:	7ff00000 	.word	0x7ff00000
    4704:	fff80000 	.word	0xfff80000
    4708:	00008868 	.word	0x00008868
    470c:	7fefffff 	.word	0x7fefffff
    4710:	2300      	movs	r3, #0
    4712:	9304      	str	r3, [sp, #16]
    4714:	f8cd b000 	str.w	fp, [sp]
    4718:	4650      	mov	r0, sl
    471a:	9907      	ldr	r1, [sp, #28]
    471c:	9a03      	ldr	r2, [sp, #12]
    471e:	4623      	mov	r3, r4
    4720:	f002 f807 	bl	6732 <__s2b>
    4724:	9007      	str	r0, [sp, #28]
    4726:	2800      	cmp	r0, #0
    4728:	f43f af3b 	beq.w	45a2 <_strtod_r+0x4a2>
    472c:	9a06      	ldr	r2, [sp, #24]
    472e:	9b06      	ldr	r3, [sp, #24]
    4730:	2a00      	cmp	r2, #0
    4732:	f1c3 0300 	rsb	r3, r3, #0
    4736:	f04f 0b00 	mov.w	fp, #0
    473a:	bfa8      	it	ge
    473c:	2300      	movge	r3, #0
    473e:	930e      	str	r3, [sp, #56]	; 0x38
    4740:	f8cd b00c 	str.w	fp, [sp, #12]
    4744:	9b07      	ldr	r3, [sp, #28]
    4746:	4650      	mov	r0, sl
    4748:	6859      	ldr	r1, [r3, #4]
    474a:	f001 ff68 	bl	661e <_Balloc>
    474e:	9005      	str	r0, [sp, #20]
    4750:	2800      	cmp	r0, #0
    4752:	f43f af2e 	beq.w	45b2 <_strtod_r+0x4b2>
    4756:	9b07      	ldr	r3, [sp, #28]
    4758:	300c      	adds	r0, #12
    475a:	691a      	ldr	r2, [r3, #16]
    475c:	9b07      	ldr	r3, [sp, #28]
    475e:	3202      	adds	r2, #2
    4760:	f103 010c 	add.w	r1, r3, #12
    4764:	0092      	lsls	r2, r2, #2
    4766:	f7fd fe4d 	bl	2404 <memcpy>
    476a:	ab1b      	add	r3, sp, #108	; 0x6c
    476c:	9300      	str	r3, [sp, #0]
    476e:	ab1c      	add	r3, sp, #112	; 0x70
    4770:	9301      	str	r3, [sp, #4]
    4772:	4650      	mov	r0, sl
    4774:	4642      	mov	r2, r8
    4776:	464b      	mov	r3, r9
    4778:	e9cd 890a 	strd	r8, r9, [sp, #40]	; 0x28
    477c:	f002 fa8f 	bl	6c9e <__d2b>
    4780:	901a      	str	r0, [sp, #104]	; 0x68
    4782:	2800      	cmp	r0, #0
    4784:	f43f af15 	beq.w	45b2 <_strtod_r+0x4b2>
    4788:	4650      	mov	r0, sl
    478a:	2101      	movs	r1, #1
    478c:	f002 f85e 	bl	684c <__i2b>
    4790:	9003      	str	r0, [sp, #12]
    4792:	2800      	cmp	r0, #0
    4794:	f43f af0d 	beq.w	45b2 <_strtod_r+0x4b2>
    4798:	9b06      	ldr	r3, [sp, #24]
    479a:	9904      	ldr	r1, [sp, #16]
    479c:	ea23 77e3 	bic.w	r7, r3, r3, asr #31
    47a0:	9b1b      	ldr	r3, [sp, #108]	; 0x6c
    47a2:	9c1c      	ldr	r4, [sp, #112]	; 0x70
    47a4:	2b00      	cmp	r3, #0
    47a6:	bfaa      	itet	ge
    47a8:	9a0e      	ldrge	r2, [sp, #56]	; 0x38
    47aa:	1afa      	sublt	r2, r7, r3
    47ac:	18d6      	addge	r6, r2, r3
    47ae:	eba3 0301 	sub.w	r3, r3, r1
    47b2:	4423      	add	r3, r4
    47b4:	f46f 717f 	mvn.w	r1, #1020	; 0x3fc
    47b8:	bfac      	ite	ge
    47ba:	463a      	movge	r2, r7
    47bc:	9e0e      	ldrlt	r6, [sp, #56]	; 0x38
    47be:	428b      	cmp	r3, r1
    47c0:	f1c4 0436 	rsb	r4, r4, #54	; 0x36
    47c4:	f280 8086 	bge.w	48d4 <_strtod_r+0x7d4>
    47c8:	1ac9      	subs	r1, r1, r3
    47ca:	291f      	cmp	r1, #31
    47cc:	eba4 0401 	sub.w	r4, r4, r1
    47d0:	bfc8      	it	gt
    47d2:	49b3      	ldrgt	r1, [pc, #716]	; (4aa0 <_strtod_r+0x9a0>)
    47d4:	f04f 0001 	mov.w	r0, #1
    47d8:	bfd5      	itete	le
    47da:	fa00 f301 	lslle.w	r3, r0, r1
    47de:	1ac9      	subgt	r1, r1, r3
    47e0:	9314      	strle	r3, [sp, #80]	; 0x50
    47e2:	fa00 f301 	lslgt.w	r3, r0, r1
    47e6:	bfd9      	ittee	le
    47e8:	2300      	movle	r3, #0
    47ea:	930f      	strle	r3, [sp, #60]	; 0x3c
    47ec:	930f      	strgt	r3, [sp, #60]	; 0x3c
    47ee:	9014      	strgt	r0, [sp, #80]	; 0x50
    47f0:	1935      	adds	r5, r6, r4
    47f2:	9b04      	ldr	r3, [sp, #16]
    47f4:	42b5      	cmp	r5, r6
    47f6:	4414      	add	r4, r2
    47f8:	441c      	add	r4, r3
    47fa:	462b      	mov	r3, r5
    47fc:	bfa8      	it	ge
    47fe:	4633      	movge	r3, r6
    4800:	42a3      	cmp	r3, r4
    4802:	bfa8      	it	ge
    4804:	4623      	movge	r3, r4
    4806:	2b00      	cmp	r3, #0
    4808:	bfc2      	ittt	gt
    480a:	1aed      	subgt	r5, r5, r3
    480c:	1ae4      	subgt	r4, r4, r3
    480e:	1af6      	subgt	r6, r6, r3
    4810:	9b0e      	ldr	r3, [sp, #56]	; 0x38
    4812:	2b00      	cmp	r3, #0
    4814:	d163      	bne.n	48de <_strtod_r+0x7de>
    4816:	2d00      	cmp	r5, #0
    4818:	dc7b      	bgt.n	4912 <_strtod_r+0x812>
    481a:	2f00      	cmp	r7, #0
    481c:	f040 8083 	bne.w	4926 <_strtod_r+0x826>
    4820:	2c00      	cmp	r4, #0
    4822:	f300 808a 	bgt.w	493a <_strtod_r+0x83a>
    4826:	2e00      	cmp	r6, #0
    4828:	f300 8091 	bgt.w	494e <_strtod_r+0x84e>
    482c:	4650      	mov	r0, sl
    482e:	991a      	ldr	r1, [sp, #104]	; 0x68
    4830:	9a05      	ldr	r2, [sp, #20]
    4832:	f002 f962 	bl	6afa <__mdiff>
    4836:	4683      	mov	fp, r0
    4838:	2800      	cmp	r0, #0
    483a:	f43f aeba 	beq.w	45b2 <_strtod_r+0x4b2>
    483e:	68c3      	ldr	r3, [r0, #12]
    4840:	2400      	movs	r4, #0
    4842:	60c4      	str	r4, [r0, #12]
    4844:	9903      	ldr	r1, [sp, #12]
    4846:	9308      	str	r3, [sp, #32]
    4848:	f002 f93b 	bl	6ac2 <__mcmp>
    484c:	42a0      	cmp	r0, r4
    484e:	f280 808d 	bge.w	496c <_strtod_r+0x86c>
    4852:	9b08      	ldr	r3, [sp, #32]
    4854:	2b00      	cmp	r3, #0
    4856:	f040 8215 	bne.w	4c84 <_strtod_r+0xb84>
    485a:	f1b8 0f00 	cmp.w	r8, #0
    485e:	f040 8211 	bne.w	4c84 <_strtod_r+0xb84>
    4862:	f3c9 0313 	ubfx	r3, r9, #0, #20
    4866:	2b00      	cmp	r3, #0
    4868:	f040 820c 	bne.w	4c84 <_strtod_r+0xb84>
    486c:	f029 4300 	bic.w	r3, r9, #2147483648	; 0x80000000
    4870:	0d1b      	lsrs	r3, r3, #20
    4872:	051b      	lsls	r3, r3, #20
    4874:	f1b3 6fd6 	cmp.w	r3, #112197632	; 0x6b00000
    4878:	f240 8204 	bls.w	4c84 <_strtod_r+0xb84>
    487c:	f8db 3014 	ldr.w	r3, [fp, #20]
    4880:	2b00      	cmp	r3, #0
    4882:	d06e      	beq.n	4962 <_strtod_r+0x862>
    4884:	4659      	mov	r1, fp
    4886:	2201      	movs	r2, #1
    4888:	4650      	mov	r0, sl
    488a:	f002 f8c7 	bl	6a1c <__lshift>
    488e:	9903      	ldr	r1, [sp, #12]
    4890:	4683      	mov	fp, r0
    4892:	f002 f916 	bl	6ac2 <__mcmp>
    4896:	2800      	cmp	r0, #0
    4898:	f340 81f4 	ble.w	4c84 <_strtod_r+0xb84>
    489c:	f029 4300 	bic.w	r3, r9, #2147483648	; 0x80000000
    48a0:	9a04      	ldr	r2, [sp, #16]
    48a2:	0d1b      	lsrs	r3, r3, #20
    48a4:	051b      	lsls	r3, r3, #20
    48a6:	2a00      	cmp	r2, #0
    48a8:	f000 808f 	beq.w	49ca <_strtod_r+0x8ca>
    48ac:	f1b3 6fd6 	cmp.w	r3, #112197632	; 0x6b00000
    48b0:	f300 808b 	bgt.w	49ca <_strtod_r+0x8ca>
    48b4:	f1b3 7f5c 	cmp.w	r3, #57671680	; 0x3700000
    48b8:	f300 81e6 	bgt.w	4c88 <_strtod_r+0xb88>
    48bc:	2322      	movs	r3, #34	; 0x22
    48be:	f04f 0800 	mov.w	r8, #0
    48c2:	f04f 0900 	mov.w	r9, #0
    48c6:	f8ca 3000 	str.w	r3, [sl]
    48ca:	9b07      	ldr	r3, [sp, #28]
    48cc:	2b00      	cmp	r3, #0
    48ce:	f040 81ec 	bne.w	4caa <_strtod_r+0xbaa>
    48d2:	e1fe      	b.n	4cd2 <_strtod_r+0xbd2>
    48d4:	2300      	movs	r3, #0
    48d6:	930f      	str	r3, [sp, #60]	; 0x3c
    48d8:	2301      	movs	r3, #1
    48da:	9314      	str	r3, [sp, #80]	; 0x50
    48dc:	e788      	b.n	47f0 <_strtod_r+0x6f0>
    48de:	461a      	mov	r2, r3
    48e0:	4650      	mov	r0, sl
    48e2:	9903      	ldr	r1, [sp, #12]
    48e4:	f002 f84c 	bl	6980 <__pow5mult>
    48e8:	9003      	str	r0, [sp, #12]
    48ea:	4603      	mov	r3, r0
    48ec:	2800      	cmp	r0, #0
    48ee:	f43f ae60 	beq.w	45b2 <_strtod_r+0x4b2>
    48f2:	4650      	mov	r0, sl
    48f4:	4619      	mov	r1, r3
    48f6:	9a1a      	ldr	r2, [sp, #104]	; 0x68
    48f8:	f001 ffb1 	bl	685e <__multiply>
    48fc:	9008      	str	r0, [sp, #32]
    48fe:	2800      	cmp	r0, #0
    4900:	f43f ae57 	beq.w	45b2 <_strtod_r+0x4b2>
    4904:	4650      	mov	r0, sl
    4906:	991a      	ldr	r1, [sp, #104]	; 0x68
    4908:	f001 febe 	bl	6688 <_Bfree>
    490c:	9b08      	ldr	r3, [sp, #32]
    490e:	931a      	str	r3, [sp, #104]	; 0x68
    4910:	e781      	b.n	4816 <_strtod_r+0x716>
    4912:	4650      	mov	r0, sl
    4914:	991a      	ldr	r1, [sp, #104]	; 0x68
    4916:	462a      	mov	r2, r5
    4918:	f002 f880 	bl	6a1c <__lshift>
    491c:	901a      	str	r0, [sp, #104]	; 0x68
    491e:	2800      	cmp	r0, #0
    4920:	f47f af7b 	bne.w	481a <_strtod_r+0x71a>
    4924:	e645      	b.n	45b2 <_strtod_r+0x4b2>
    4926:	4650      	mov	r0, sl
    4928:	9905      	ldr	r1, [sp, #20]
    492a:	463a      	mov	r2, r7
    492c:	f002 f828 	bl	6980 <__pow5mult>
    4930:	9005      	str	r0, [sp, #20]
    4932:	2800      	cmp	r0, #0
    4934:	f47f af74 	bne.w	4820 <_strtod_r+0x720>
    4938:	e63b      	b.n	45b2 <_strtod_r+0x4b2>
    493a:	4650      	mov	r0, sl
    493c:	9905      	ldr	r1, [sp, #20]
    493e:	4622      	mov	r2, r4
    4940:	f002 f86c 	bl	6a1c <__lshift>
    4944:	9005      	str	r0, [sp, #20]
    4946:	2800      	cmp	r0, #0
    4948:	f47f af6d 	bne.w	4826 <_strtod_r+0x726>
    494c:	e631      	b.n	45b2 <_strtod_r+0x4b2>
    494e:	4650      	mov	r0, sl
    4950:	9903      	ldr	r1, [sp, #12]
    4952:	4632      	mov	r2, r6
    4954:	f002 f862 	bl	6a1c <__lshift>
    4958:	9003      	str	r0, [sp, #12]
    495a:	2800      	cmp	r0, #0
    495c:	f47f af66 	bne.w	482c <_strtod_r+0x72c>
    4960:	e627      	b.n	45b2 <_strtod_r+0x4b2>
    4962:	f8db 3010 	ldr.w	r3, [fp, #16]
    4966:	2b01      	cmp	r3, #1
    4968:	dc8c      	bgt.n	4884 <_strtod_r+0x784>
    496a:	e18b      	b.n	4c84 <_strtod_r+0xb84>
    496c:	d162      	bne.n	4a34 <_strtod_r+0x934>
    496e:	9a08      	ldr	r2, [sp, #32]
    4970:	f3c9 0313 	ubfx	r3, r9, #0, #20
    4974:	b322      	cbz	r2, 49c0 <_strtod_r+0x8c0>
    4976:	494b      	ldr	r1, [pc, #300]	; (4aa4 <_strtod_r+0x9a4>)
    4978:	464a      	mov	r2, r9
    497a:	428b      	cmp	r3, r1
    497c:	d12e      	bne.n	49dc <_strtod_r+0x8dc>
    497e:	9b04      	ldr	r3, [sp, #16]
    4980:	4641      	mov	r1, r8
    4982:	b163      	cbz	r3, 499e <_strtod_r+0x89e>
    4984:	4b48      	ldr	r3, [pc, #288]	; (4aa8 <_strtod_r+0x9a8>)
    4986:	4013      	ands	r3, r2
    4988:	f1b3 6fd4 	cmp.w	r3, #111149056	; 0x6a00000
    498c:	d807      	bhi.n	499e <_strtod_r+0x89e>
    498e:	0d1b      	lsrs	r3, r3, #20
    4990:	f1c3 036b 	rsb	r3, r3, #107	; 0x6b
    4994:	f04f 30ff 	mov.w	r0, #4294967295
    4998:	fa00 f303 	lsl.w	r3, r0, r3
    499c:	e001      	b.n	49a2 <_strtod_r+0x8a2>
    499e:	f04f 33ff 	mov.w	r3, #4294967295
    49a2:	4299      	cmp	r1, r3
    49a4:	d11a      	bne.n	49dc <_strtod_r+0x8dc>
    49a6:	4b41      	ldr	r3, [pc, #260]	; (4aac <_strtod_r+0x9ac>)
    49a8:	429a      	cmp	r2, r3
    49aa:	d102      	bne.n	49b2 <_strtod_r+0x8b2>
    49ac:	3101      	adds	r1, #1
    49ae:	f43f ae00 	beq.w	45b2 <_strtod_r+0x4b2>
    49b2:	4b3d      	ldr	r3, [pc, #244]	; (4aa8 <_strtod_r+0x9a8>)
    49b4:	f04f 0800 	mov.w	r8, #0
    49b8:	4013      	ands	r3, r2
    49ba:	f503 1980 	add.w	r9, r3, #1048576	; 0x100000
    49be:	e161      	b.n	4c84 <_strtod_r+0xb84>
    49c0:	b963      	cbnz	r3, 49dc <_strtod_r+0x8dc>
    49c2:	f1b8 0f00 	cmp.w	r8, #0
    49c6:	d109      	bne.n	49dc <_strtod_r+0x8dc>
    49c8:	e768      	b.n	489c <_strtod_r+0x79c>
    49ca:	f5a3 1380 	sub.w	r3, r3, #1048576	; 0x100000
    49ce:	ea6f 5913 	mvn.w	r9, r3, lsr #20
    49d2:	f04f 38ff 	mov.w	r8, #4294967295
    49d6:	ea6f 5909 	mvn.w	r9, r9, lsl #20
    49da:	e153      	b.n	4c84 <_strtod_r+0xb84>
    49dc:	9b0f      	ldr	r3, [sp, #60]	; 0x3c
    49de:	b113      	cbz	r3, 49e6 <_strtod_r+0x8e6>
    49e0:	ea13 0f09 	tst.w	r3, r9
    49e4:	e002      	b.n	49ec <_strtod_r+0x8ec>
    49e6:	9b14      	ldr	r3, [sp, #80]	; 0x50
    49e8:	ea13 0f08 	tst.w	r3, r8
    49ec:	f000 814a 	beq.w	4c84 <_strtod_r+0xb84>
    49f0:	9b08      	ldr	r3, [sp, #32]
    49f2:	4640      	mov	r0, r8
    49f4:	4649      	mov	r1, r9
    49f6:	9a04      	ldr	r2, [sp, #16]
    49f8:	b153      	cbz	r3, 4a10 <_strtod_r+0x910>
    49fa:	f7ff fb5e 	bl	40ba <sulp>
    49fe:	4602      	mov	r2, r0
    4a00:	460b      	mov	r3, r1
    4a02:	e9dd 010a 	ldrd	r0, r1, [sp, #40]	; 0x28
    4a06:	f002 fd49 	bl	749c <__adddf3>
    4a0a:	4680      	mov	r8, r0
    4a0c:	4689      	mov	r9, r1
    4a0e:	e139      	b.n	4c84 <_strtod_r+0xb84>
    4a10:	f7ff fb53 	bl	40ba <sulp>
    4a14:	4602      	mov	r2, r0
    4a16:	460b      	mov	r3, r1
    4a18:	e9dd 010a 	ldrd	r0, r1, [sp, #40]	; 0x28
    4a1c:	f002 fd3c 	bl	7498 <__aeabi_dsub>
    4a20:	2200      	movs	r2, #0
    4a22:	2300      	movs	r3, #0
    4a24:	4680      	mov	r8, r0
    4a26:	4689      	mov	r9, r1
    4a28:	f003 f952 	bl	7cd0 <__aeabi_dcmpeq>
    4a2c:	2800      	cmp	r0, #0
    4a2e:	f47f af45 	bne.w	48bc <_strtod_r+0x7bc>
    4a32:	e127      	b.n	4c84 <_strtod_r+0xb84>
    4a34:	4658      	mov	r0, fp
    4a36:	9903      	ldr	r1, [sp, #12]
    4a38:	f002 f983 	bl	6d42 <__ratio>
    4a3c:	2200      	movs	r2, #0
    4a3e:	f04f 4380 	mov.w	r3, #1073741824	; 0x40000000
    4a42:	4606      	mov	r6, r0
    4a44:	460f      	mov	r7, r1
    4a46:	f003 f957 	bl	7cf8 <__aeabi_dcmple>
    4a4a:	2800      	cmp	r0, #0
    4a4c:	d03f      	beq.n	4ace <_strtod_r+0x9ce>
    4a4e:	9b08      	ldr	r3, [sp, #32]
    4a50:	b113      	cbz	r3, 4a58 <_strtod_r+0x958>
    4a52:	2600      	movs	r6, #0
    4a54:	4f16      	ldr	r7, [pc, #88]	; (4ab0 <_strtod_r+0x9b0>)
    4a56:	e010      	b.n	4a7a <_strtod_r+0x97a>
    4a58:	f1b8 0f00 	cmp.w	r8, #0
    4a5c:	d103      	bne.n	4a66 <_strtod_r+0x966>
    4a5e:	f3c9 0313 	ubfx	r3, r9, #0, #20
    4a62:	b93b      	cbnz	r3, 4a74 <_strtod_r+0x974>
    4a64:	e00b      	b.n	4a7e <_strtod_r+0x97e>
    4a66:	f1b8 0f01 	cmp.w	r8, #1
    4a6a:	d103      	bne.n	4a74 <_strtod_r+0x974>
    4a6c:	f1b9 0f00 	cmp.w	r9, #0
    4a70:	f43f af24 	beq.w	48bc <_strtod_r+0x7bc>
    4a74:	4f0f      	ldr	r7, [pc, #60]	; (4ab4 <_strtod_r+0x9b4>)
    4a76:	2600      	movs	r6, #0
    4a78:	2400      	movs	r4, #0
    4a7a:	4d0d      	ldr	r5, [pc, #52]	; (4ab0 <_strtod_r+0x9b0>)
    4a7c:	e03c      	b.n	4af8 <_strtod_r+0x9f8>
    4a7e:	4630      	mov	r0, r6
    4a80:	4639      	mov	r1, r7
    4a82:	2200      	movs	r2, #0
    4a84:	4b0a      	ldr	r3, [pc, #40]	; (4ab0 <_strtod_r+0x9b0>)
    4a86:	f003 f92d 	bl	7ce4 <__aeabi_dcmplt>
    4a8a:	b9b8      	cbnz	r0, 4abc <_strtod_r+0x9bc>
    4a8c:	4630      	mov	r0, r6
    4a8e:	4639      	mov	r1, r7
    4a90:	2200      	movs	r2, #0
    4a92:	4b09      	ldr	r3, [pc, #36]	; (4ab8 <_strtod_r+0x9b8>)
    4a94:	f002 feb4 	bl	7800 <__aeabi_dmul>
    4a98:	4604      	mov	r4, r0
    4a9a:	460d      	mov	r5, r1
    4a9c:	e010      	b.n	4ac0 <_strtod_r+0x9c0>
    4a9e:	bf00      	nop
    4aa0:	fffffbe3 	.word	0xfffffbe3
    4aa4:	000fffff 	.word	0x000fffff
    4aa8:	7ff00000 	.word	0x7ff00000
    4aac:	7fefffff 	.word	0x7fefffff
    4ab0:	3ff00000 	.word	0x3ff00000
    4ab4:	bff00000 	.word	0xbff00000
    4ab8:	3fe00000 	.word	0x3fe00000
    4abc:	9c08      	ldr	r4, [sp, #32]
    4abe:	4d9a      	ldr	r5, [pc, #616]	; (4d28 <_strtod_r+0xc28>)
    4ac0:	f105 4300 	add.w	r3, r5, #2147483648	; 0x80000000
    4ac4:	9416      	str	r4, [sp, #88]	; 0x58
    4ac6:	9317      	str	r3, [sp, #92]	; 0x5c
    4ac8:	e9dd 6716 	ldrd	r6, r7, [sp, #88]	; 0x58
    4acc:	e014      	b.n	4af8 <_strtod_r+0x9f8>
    4ace:	4b96      	ldr	r3, [pc, #600]	; (4d28 <_strtod_r+0xc28>)
    4ad0:	4630      	mov	r0, r6
    4ad2:	4639      	mov	r1, r7
    4ad4:	2200      	movs	r2, #0
    4ad6:	f002 fe93 	bl	7800 <__aeabi_dmul>
    4ada:	9b08      	ldr	r3, [sp, #32]
    4adc:	4604      	mov	r4, r0
    4ade:	460d      	mov	r5, r1
    4ae0:	b923      	cbnz	r3, 4aec <_strtod_r+0x9ec>
    4ae2:	f101 4300 	add.w	r3, r1, #2147483648	; 0x80000000
    4ae6:	9010      	str	r0, [sp, #64]	; 0x40
    4ae8:	9311      	str	r3, [sp, #68]	; 0x44
    4aea:	e003      	b.n	4af4 <_strtod_r+0x9f4>
    4aec:	4602      	mov	r2, r0
    4aee:	460b      	mov	r3, r1
    4af0:	e9cd 2310 	strd	r2, r3, [sp, #64]	; 0x40
    4af4:	e9dd 6710 	ldrd	r6, r7, [sp, #64]	; 0x40
    4af8:	f029 4c00 	bic.w	ip, r9, #2147483648	; 0x80000000
    4afc:	ea4f 5c1c 	mov.w	ip, ip, lsr #20
    4b00:	4b8a      	ldr	r3, [pc, #552]	; (4d2c <_strtod_r+0xc2c>)
    4b02:	ea4f 5c0c 	mov.w	ip, ip, lsl #20
    4b06:	459c      	cmp	ip, r3
    4b08:	d131      	bne.n	4b6e <_strtod_r+0xa6e>
    4b0a:	e9dd 230a 	ldrd	r2, r3, [sp, #40]	; 0x28
    4b0e:	f1a9 7954 	sub.w	r9, r9, #55574528	; 0x3500000
    4b12:	4640      	mov	r0, r8
    4b14:	4649      	mov	r1, r9
    4b16:	f8cd c03c 	str.w	ip, [sp, #60]	; 0x3c
    4b1a:	e9cd 230c 	strd	r2, r3, [sp, #48]	; 0x30
    4b1e:	f002 f84b 	bl	6bb8 <__ulp>
    4b22:	4602      	mov	r2, r0
    4b24:	460b      	mov	r3, r1
    4b26:	4630      	mov	r0, r6
    4b28:	4639      	mov	r1, r7
    4b2a:	f002 fe69 	bl	7800 <__aeabi_dmul>
    4b2e:	4602      	mov	r2, r0
    4b30:	460b      	mov	r3, r1
    4b32:	4640      	mov	r0, r8
    4b34:	4649      	mov	r1, r9
    4b36:	f002 fcb1 	bl	749c <__adddf3>
    4b3a:	f021 4300 	bic.w	r3, r1, #2147483648	; 0x80000000
    4b3e:	0d1b      	lsrs	r3, r3, #20
    4b40:	4a7b      	ldr	r2, [pc, #492]	; (4d30 <_strtod_r+0xc30>)
    4b42:	051b      	lsls	r3, r3, #20
    4b44:	4293      	cmp	r3, r2
    4b46:	4680      	mov	r8, r0
    4b48:	f8dd c03c 	ldr.w	ip, [sp, #60]	; 0x3c
    4b4c:	d90c      	bls.n	4b68 <_strtod_r+0xa68>
    4b4e:	4b79      	ldr	r3, [pc, #484]	; (4d34 <_strtod_r+0xc34>)
    4b50:	9a0d      	ldr	r2, [sp, #52]	; 0x34
    4b52:	429a      	cmp	r2, r3
    4b54:	d103      	bne.n	4b5e <_strtod_r+0xa5e>
    4b56:	9b0c      	ldr	r3, [sp, #48]	; 0x30
    4b58:	3301      	adds	r3, #1
    4b5a:	f43f ad2a 	beq.w	45b2 <_strtod_r+0x4b2>
    4b5e:	f8df 91d4 	ldr.w	r9, [pc, #468]	; 4d34 <_strtod_r+0xc34>
    4b62:	f04f 38ff 	mov.w	r8, #4294967295
    4b66:	e07c      	b.n	4c62 <_strtod_r+0xb62>
    4b68:	f101 7954 	add.w	r9, r1, #55574528	; 0x3500000
    4b6c:	e044      	b.n	4bf8 <_strtod_r+0xaf8>
    4b6e:	9b04      	ldr	r3, [sp, #16]
    4b70:	b363      	cbz	r3, 4bcc <_strtod_r+0xacc>
    4b72:	f1bc 6fd4 	cmp.w	ip, #111149056	; 0x6a00000
    4b76:	d829      	bhi.n	4bcc <_strtod_r+0xacc>
    4b78:	a363      	add	r3, pc, #396	; (adr r3, 4d08 <_strtod_r+0xc08>)
    4b7a:	e9d3 2300 	ldrd	r2, r3, [r3]
    4b7e:	4620      	mov	r0, r4
    4b80:	4629      	mov	r1, r5
    4b82:	f8cd c03c 	str.w	ip, [sp, #60]	; 0x3c
    4b86:	f003 f8b7 	bl	7cf8 <__aeabi_dcmple>
    4b8a:	f8dd c03c 	ldr.w	ip, [sp, #60]	; 0x3c
    4b8e:	b1c8      	cbz	r0, 4bc4 <_strtod_r+0xac4>
    4b90:	4629      	mov	r1, r5
    4b92:	4620      	mov	r0, r4
    4b94:	f003 f8f6 	bl	7d84 <__aeabi_d2uiz>
    4b98:	2800      	cmp	r0, #0
    4b9a:	bf08      	it	eq
    4b9c:	2001      	moveq	r0, #1
    4b9e:	f002 fdb9 	bl	7714 <__aeabi_ui2d>
    4ba2:	9b08      	ldr	r3, [sp, #32]
    4ba4:	4604      	mov	r4, r0
    4ba6:	460d      	mov	r5, r1
    4ba8:	f8dd c03c 	ldr.w	ip, [sp, #60]	; 0x3c
    4bac:	b923      	cbnz	r3, 4bb8 <_strtod_r+0xab8>
    4bae:	f101 4300 	add.w	r3, r1, #2147483648	; 0x80000000
    4bb2:	9012      	str	r0, [sp, #72]	; 0x48
    4bb4:	9313      	str	r3, [sp, #76]	; 0x4c
    4bb6:	e003      	b.n	4bc0 <_strtod_r+0xac0>
    4bb8:	4602      	mov	r2, r0
    4bba:	460b      	mov	r3, r1
    4bbc:	e9cd 2312 	strd	r2, r3, [sp, #72]	; 0x48
    4bc0:	e9dd 6712 	ldrd	r6, r7, [sp, #72]	; 0x48
    4bc4:	f107 63d6 	add.w	r3, r7, #112197632	; 0x6b00000
    4bc8:	ebcc 0703 	rsb	r7, ip, r3
    4bcc:	e9dd 010a 	ldrd	r0, r1, [sp, #40]	; 0x28
    4bd0:	f8cd c03c 	str.w	ip, [sp, #60]	; 0x3c
    4bd4:	f001 fff0 	bl	6bb8 <__ulp>
    4bd8:	4602      	mov	r2, r0
    4bda:	460b      	mov	r3, r1
    4bdc:	4630      	mov	r0, r6
    4bde:	4639      	mov	r1, r7
    4be0:	f002 fe0e 	bl	7800 <__aeabi_dmul>
    4be4:	4602      	mov	r2, r0
    4be6:	460b      	mov	r3, r1
    4be8:	e9dd 010a 	ldrd	r0, r1, [sp, #40]	; 0x28
    4bec:	f002 fc56 	bl	749c <__adddf3>
    4bf0:	4680      	mov	r8, r0
    4bf2:	4689      	mov	r9, r1
    4bf4:	f8dd c03c 	ldr.w	ip, [sp, #60]	; 0x3c
    4bf8:	9b04      	ldr	r3, [sp, #16]
    4bfa:	464e      	mov	r6, r9
    4bfc:	bb8b      	cbnz	r3, 4c62 <_strtod_r+0xb62>
    4bfe:	f029 4300 	bic.w	r3, r9, #2147483648	; 0x80000000
    4c02:	0d1b      	lsrs	r3, r3, #20
    4c04:	051b      	lsls	r3, r3, #20
    4c06:	459c      	cmp	ip, r3
    4c08:	d12b      	bne.n	4c62 <_strtod_r+0xb62>
    4c0a:	4629      	mov	r1, r5
    4c0c:	4620      	mov	r0, r4
    4c0e:	f003 f891 	bl	7d34 <__aeabi_d2iz>
    4c12:	f002 fd8f 	bl	7734 <__aeabi_i2d>
    4c16:	460b      	mov	r3, r1
    4c18:	4602      	mov	r2, r0
    4c1a:	4629      	mov	r1, r5
    4c1c:	4620      	mov	r0, r4
    4c1e:	f002 fc3b 	bl	7498 <__aeabi_dsub>
    4c22:	9b08      	ldr	r3, [sp, #32]
    4c24:	4604      	mov	r4, r0
    4c26:	460d      	mov	r5, r1
    4c28:	b92b      	cbnz	r3, 4c36 <_strtod_r+0xb36>
    4c2a:	f1b8 0f00 	cmp.w	r8, #0
    4c2e:	d102      	bne.n	4c36 <_strtod_r+0xb36>
    4c30:	f3c9 0613 	ubfx	r6, r9, #0, #20
    4c34:	b17e      	cbz	r6, 4c56 <_strtod_r+0xb56>
    4c36:	a336      	add	r3, pc, #216	; (adr r3, 4d10 <_strtod_r+0xc10>)
    4c38:	e9d3 2300 	ldrd	r2, r3, [r3]
    4c3c:	4620      	mov	r0, r4
    4c3e:	4629      	mov	r1, r5
    4c40:	f003 f850 	bl	7ce4 <__aeabi_dcmplt>
    4c44:	bb88      	cbnz	r0, 4caa <_strtod_r+0xbaa>
    4c46:	a334      	add	r3, pc, #208	; (adr r3, 4d18 <_strtod_r+0xc18>)
    4c48:	e9d3 2300 	ldrd	r2, r3, [r3]
    4c4c:	4620      	mov	r0, r4
    4c4e:	4629      	mov	r1, r5
    4c50:	f003 f866 	bl	7d20 <__aeabi_dcmpgt>
    4c54:	e004      	b.n	4c60 <_strtod_r+0xb60>
    4c56:	a332      	add	r3, pc, #200	; (adr r3, 4d20 <_strtod_r+0xc20>)
    4c58:	e9d3 2300 	ldrd	r2, r3, [r3]
    4c5c:	f003 f842 	bl	7ce4 <__aeabi_dcmplt>
    4c60:	bb18      	cbnz	r0, 4caa <_strtod_r+0xbaa>
    4c62:	4650      	mov	r0, sl
    4c64:	991a      	ldr	r1, [sp, #104]	; 0x68
    4c66:	f001 fd0f 	bl	6688 <_Bfree>
    4c6a:	4650      	mov	r0, sl
    4c6c:	9905      	ldr	r1, [sp, #20]
    4c6e:	f001 fd0b 	bl	6688 <_Bfree>
    4c72:	4650      	mov	r0, sl
    4c74:	9903      	ldr	r1, [sp, #12]
    4c76:	f001 fd07 	bl	6688 <_Bfree>
    4c7a:	4650      	mov	r0, sl
    4c7c:	4659      	mov	r1, fp
    4c7e:	f001 fd03 	bl	6688 <_Bfree>
    4c82:	e55f      	b.n	4744 <_strtod_r+0x644>
    4c84:	9b04      	ldr	r3, [sp, #16]
    4c86:	b183      	cbz	r3, 4caa <_strtod_r+0xbaa>
    4c88:	4b2b      	ldr	r3, [pc, #172]	; (4d38 <_strtod_r+0xc38>)
    4c8a:	4640      	mov	r0, r8
    4c8c:	930d      	str	r3, [sp, #52]	; 0x34
    4c8e:	2300      	movs	r3, #0
    4c90:	930c      	str	r3, [sp, #48]	; 0x30
    4c92:	4649      	mov	r1, r9
    4c94:	e9dd 230c 	ldrd	r2, r3, [sp, #48]	; 0x30
    4c98:	f002 fdb2 	bl	7800 <__aeabi_dmul>
    4c9c:	4680      	mov	r8, r0
    4c9e:	4689      	mov	r9, r1
    4ca0:	b919      	cbnz	r1, 4caa <_strtod_r+0xbaa>
    4ca2:	b910      	cbnz	r0, 4caa <_strtod_r+0xbaa>
    4ca4:	2322      	movs	r3, #34	; 0x22
    4ca6:	f8ca 3000 	str.w	r3, [sl]
    4caa:	4650      	mov	r0, sl
    4cac:	991a      	ldr	r1, [sp, #104]	; 0x68
    4cae:	f001 fceb 	bl	6688 <_Bfree>
    4cb2:	4650      	mov	r0, sl
    4cb4:	9905      	ldr	r1, [sp, #20]
    4cb6:	f001 fce7 	bl	6688 <_Bfree>
    4cba:	4650      	mov	r0, sl
    4cbc:	9903      	ldr	r1, [sp, #12]
    4cbe:	f001 fce3 	bl	6688 <_Bfree>
    4cc2:	4650      	mov	r0, sl
    4cc4:	9907      	ldr	r1, [sp, #28]
    4cc6:	f001 fcdf 	bl	6688 <_Bfree>
    4cca:	4650      	mov	r0, sl
    4ccc:	4659      	mov	r1, fp
    4cce:	f001 fcdb 	bl	6688 <_Bfree>
    4cd2:	9b15      	ldr	r3, [sp, #84]	; 0x54
    4cd4:	b113      	cbz	r3, 4cdc <_strtod_r+0xbdc>
    4cd6:	9b19      	ldr	r3, [sp, #100]	; 0x64
    4cd8:	9a15      	ldr	r2, [sp, #84]	; 0x54
    4cda:	6013      	str	r3, [r2, #0]
    4cdc:	9b09      	ldr	r3, [sp, #36]	; 0x24
    4cde:	b11b      	cbz	r3, 4ce8 <_strtod_r+0xbe8>
    4ce0:	4642      	mov	r2, r8
    4ce2:	f109 4300 	add.w	r3, r9, #2147483648	; 0x80000000
    4ce6:	e007      	b.n	4cf8 <_strtod_r+0xbf8>
    4ce8:	4642      	mov	r2, r8
    4cea:	464b      	mov	r3, r9
    4cec:	e004      	b.n	4cf8 <_strtod_r+0xbf8>
    4cee:	2400      	movs	r4, #0
    4cf0:	4622      	mov	r2, r4
    4cf2:	2701      	movs	r7, #1
    4cf4:	f7ff bb1d 	b.w	4332 <_strtod_r+0x232>
    4cf8:	4610      	mov	r0, r2
    4cfa:	4619      	mov	r1, r3
    4cfc:	b01f      	add	sp, #124	; 0x7c
    4cfe:	e8bd 8ff0 	ldmia.w	sp!, {r4, r5, r6, r7, r8, r9, sl, fp, pc}
    4d02:	bf00      	nop
    4d04:	f3af 8000 	nop.w
    4d08:	ffc00000 	.word	0xffc00000
    4d0c:	41dfffff 	.word	0x41dfffff
    4d10:	94a03595 	.word	0x94a03595
    4d14:	3fdfffff 	.word	0x3fdfffff
    4d18:	35afe535 	.word	0x35afe535
    4d1c:	3fe00000 	.word	0x3fe00000
    4d20:	94a03595 	.word	0x94a03595
    4d24:	3fcfffff 	.word	0x3fcfffff
    4d28:	3fe00000 	.word	0x3fe00000
    4d2c:	7fe00000 	.word	0x7fe00000
    4d30:	7c9fffff 	.word	0x7c9fffff
    4d34:	7fefffff 	.word	0x7fefffff
    4d38:	39500000 	.word	0x39500000
    4d3c:	f3af 8000 	nop.w

00004d40 <_strtol_r>:
    4d40:	e92d 47f0 	stmdb	sp!, {r4, r5, r6, r7, r8, r9, sl, lr}
    4d44:	460f      	mov	r7, r1
    4d46:	4c40      	ldr	r4, [pc, #256]	; (4e48 <_strtol_r+0x108>)
    4d48:	f8d4 9000 	ldr.w	r9, [r4]
    4d4c:	463d      	mov	r5, r7
    4d4e:	f815 eb01 	ldrb.w	lr, [r5], #1
    4d52:	eb09 040e 	add.w	r4, r9, lr
    4d56:	7866      	ldrb	r6, [r4, #1]
    4d58:	f006 0408 	and.w	r4, r6, #8
    4d5c:	f004 06ff 	and.w	r6, r4, #255	; 0xff
    4d60:	b10c      	cbz	r4, 4d66 <_strtol_r+0x26>
    4d62:	462f      	mov	r7, r5
    4d64:	e7f2      	b.n	4d4c <_strtol_r+0xc>
    4d66:	4674      	mov	r4, lr
    4d68:	2c2d      	cmp	r4, #45	; 0x2d
    4d6a:	d103      	bne.n	4d74 <_strtol_r+0x34>
    4d6c:	1cbd      	adds	r5, r7, #2
    4d6e:	787c      	ldrb	r4, [r7, #1]
    4d70:	2601      	movs	r6, #1
    4d72:	e003      	b.n	4d7c <_strtol_r+0x3c>
    4d74:	2c2b      	cmp	r4, #43	; 0x2b
    4d76:	bf04      	itt	eq
    4d78:	787c      	ldrbeq	r4, [r7, #1]
    4d7a:	1cbd      	addeq	r5, r7, #2
    4d7c:	b113      	cbz	r3, 4d84 <_strtol_r+0x44>
    4d7e:	2b10      	cmp	r3, #16
    4d80:	d10a      	bne.n	4d98 <_strtol_r+0x58>
    4d82:	e05a      	b.n	4e3a <_strtol_r+0xfa>
    4d84:	2c30      	cmp	r4, #48	; 0x30
    4d86:	d156      	bne.n	4e36 <_strtol_r+0xf6>
    4d88:	782c      	ldrb	r4, [r5, #0]
    4d8a:	f004 04df 	and.w	r4, r4, #223	; 0xdf
    4d8e:	2c58      	cmp	r4, #88	; 0x58
    4d90:	d14c      	bne.n	4e2c <_strtol_r+0xec>
    4d92:	786c      	ldrb	r4, [r5, #1]
    4d94:	2310      	movs	r3, #16
    4d96:	3502      	adds	r5, #2
    4d98:	2e00      	cmp	r6, #0
    4d9a:	bf14      	ite	ne
    4d9c:	f04f 4800 	movne.w	r8, #2147483648	; 0x80000000
    4da0:	f06f 4800 	mvneq.w	r8, #2147483648	; 0x80000000
    4da4:	fbb8 faf3 	udiv	sl, r8, r3
    4da8:	2700      	movs	r7, #0
    4daa:	46be      	mov	lr, r7
    4dac:	fb03 881a 	mls	r8, r3, sl, r8
    4db0:	eb09 0c04 	add.w	ip, r9, r4
    4db4:	f89c c001 	ldrb.w	ip, [ip, #1]
    4db8:	f01c 0f04 	tst.w	ip, #4
    4dbc:	d001      	beq.n	4dc2 <_strtol_r+0x82>
    4dbe:	3c30      	subs	r4, #48	; 0x30
    4dc0:	e00b      	b.n	4dda <_strtol_r+0x9a>
    4dc2:	f01c 0c03 	ands.w	ip, ip, #3
    4dc6:	d01b      	beq.n	4e00 <_strtol_r+0xc0>
    4dc8:	f1bc 0f01 	cmp.w	ip, #1
    4dcc:	bf0c      	ite	eq
    4dce:	f04f 0c37 	moveq.w	ip, #55	; 0x37
    4dd2:	f04f 0c57 	movne.w	ip, #87	; 0x57
    4dd6:	ebcc 0404 	rsb	r4, ip, r4
    4dda:	429c      	cmp	r4, r3
    4ddc:	da10      	bge.n	4e00 <_strtol_r+0xc0>
    4dde:	f1b7 3fff 	cmp.w	r7, #4294967295
    4de2:	d00a      	beq.n	4dfa <_strtol_r+0xba>
    4de4:	45d6      	cmp	lr, sl
    4de6:	d806      	bhi.n	4df6 <_strtol_r+0xb6>
    4de8:	d101      	bne.n	4dee <_strtol_r+0xae>
    4dea:	4544      	cmp	r4, r8
    4dec:	dc03      	bgt.n	4df6 <_strtol_r+0xb6>
    4dee:	fb03 4e0e 	mla	lr, r3, lr, r4
    4df2:	2701      	movs	r7, #1
    4df4:	e001      	b.n	4dfa <_strtol_r+0xba>
    4df6:	f04f 37ff 	mov.w	r7, #4294967295
    4dfa:	f815 4b01 	ldrb.w	r4, [r5], #1
    4dfe:	e7d7      	b.n	4db0 <_strtol_r+0x70>
    4e00:	1c7c      	adds	r4, r7, #1
    4e02:	4673      	mov	r3, lr
    4e04:	d10a      	bne.n	4e1c <_strtol_r+0xdc>
    4e06:	2e00      	cmp	r6, #0
    4e08:	f04f 0122 	mov.w	r1, #34	; 0x22
    4e0c:	bf14      	ite	ne
    4e0e:	f04f 4300 	movne.w	r3, #2147483648	; 0x80000000
    4e12:	f06f 4300 	mvneq.w	r3, #2147483648	; 0x80000000
    4e16:	6001      	str	r1, [r0, #0]
    4e18:	b92a      	cbnz	r2, 4e26 <_strtol_r+0xe6>
    4e1a:	e011      	b.n	4e40 <_strtol_r+0x100>
    4e1c:	b10e      	cbz	r6, 4e22 <_strtol_r+0xe2>
    4e1e:	f1ce 0300 	rsb	r3, lr, #0
    4e22:	b16a      	cbz	r2, 4e40 <_strtol_r+0x100>
    4e24:	b107      	cbz	r7, 4e28 <_strtol_r+0xe8>
    4e26:	1e69      	subs	r1, r5, #1
    4e28:	6011      	str	r1, [r2, #0]
    4e2a:	e009      	b.n	4e40 <_strtol_r+0x100>
    4e2c:	2430      	movs	r4, #48	; 0x30
    4e2e:	2b00      	cmp	r3, #0
    4e30:	d1b2      	bne.n	4d98 <_strtol_r+0x58>
    4e32:	2308      	movs	r3, #8
    4e34:	e7b0      	b.n	4d98 <_strtol_r+0x58>
    4e36:	230a      	movs	r3, #10
    4e38:	e7ae      	b.n	4d98 <_strtol_r+0x58>
    4e3a:	2c30      	cmp	r4, #48	; 0x30
    4e3c:	d1ac      	bne.n	4d98 <_strtol_r+0x58>
    4e3e:	e7a3      	b.n	4d88 <_strtol_r+0x48>
    4e40:	4618      	mov	r0, r3
    4e42:	e8bd 87f0 	ldmia.w	sp!, {r4, r5, r6, r7, r8, r9, sl, pc}
    4e46:	bf00      	nop
    4e48:	10000138 	.word	0x10000138

00004e4c <_strtoul_r>:
    4e4c:	e92d 47f0 	stmdb	sp!, {r4, r5, r6, r7, r8, r9, sl, lr}
    4e50:	460e      	mov	r6, r1
    4e52:	4c3b      	ldr	r4, [pc, #236]	; (4f40 <_strtoul_r+0xf4>)
    4e54:	f8d4 9000 	ldr.w	r9, [r4]
    4e58:	4635      	mov	r5, r6
    4e5a:	f815 eb01 	ldrb.w	lr, [r5], #1
    4e5e:	eb09 040e 	add.w	r4, r9, lr
    4e62:	7867      	ldrb	r7, [r4, #1]
    4e64:	f007 0408 	and.w	r4, r7, #8
    4e68:	f004 07ff 	and.w	r7, r4, #255	; 0xff
    4e6c:	b10c      	cbz	r4, 4e72 <_strtoul_r+0x26>
    4e6e:	462e      	mov	r6, r5
    4e70:	e7f2      	b.n	4e58 <_strtoul_r+0xc>
    4e72:	4674      	mov	r4, lr
    4e74:	2c2d      	cmp	r4, #45	; 0x2d
    4e76:	d103      	bne.n	4e80 <_strtoul_r+0x34>
    4e78:	1cb5      	adds	r5, r6, #2
    4e7a:	7874      	ldrb	r4, [r6, #1]
    4e7c:	2701      	movs	r7, #1
    4e7e:	e003      	b.n	4e88 <_strtoul_r+0x3c>
    4e80:	2c2b      	cmp	r4, #43	; 0x2b
    4e82:	bf04      	itt	eq
    4e84:	7874      	ldrbeq	r4, [r6, #1]
    4e86:	1cb5      	addeq	r5, r6, #2
    4e88:	b113      	cbz	r3, 4e90 <_strtoul_r+0x44>
    4e8a:	2b10      	cmp	r3, #16
    4e8c:	d10a      	bne.n	4ea4 <_strtoul_r+0x58>
    4e8e:	e051      	b.n	4f34 <_strtoul_r+0xe8>
    4e90:	2c30      	cmp	r4, #48	; 0x30
    4e92:	d14d      	bne.n	4f30 <_strtoul_r+0xe4>
    4e94:	782c      	ldrb	r4, [r5, #0]
    4e96:	f004 04df 	and.w	r4, r4, #223	; 0xdf
    4e9a:	2c58      	cmp	r4, #88	; 0x58
    4e9c:	d143      	bne.n	4f26 <_strtoul_r+0xda>
    4e9e:	786c      	ldrb	r4, [r5, #1]
    4ea0:	2310      	movs	r3, #16
    4ea2:	3502      	adds	r5, #2
    4ea4:	f04f 38ff 	mov.w	r8, #4294967295
    4ea8:	fbb8 f8f3 	udiv	r8, r8, r3
    4eac:	fb03 fa08 	mul.w	sl, r3, r8
    4eb0:	2600      	movs	r6, #0
    4eb2:	ea6f 0a0a 	mvn.w	sl, sl
    4eb6:	46b6      	mov	lr, r6
    4eb8:	eb09 0c04 	add.w	ip, r9, r4
    4ebc:	f89c c001 	ldrb.w	ip, [ip, #1]
    4ec0:	f01c 0f04 	tst.w	ip, #4
    4ec4:	d001      	beq.n	4eca <_strtoul_r+0x7e>
    4ec6:	3c30      	subs	r4, #48	; 0x30
    4ec8:	e00b      	b.n	4ee2 <_strtoul_r+0x96>
    4eca:	f01c 0c03 	ands.w	ip, ip, #3
    4ece:	d01b      	beq.n	4f08 <_strtoul_r+0xbc>
    4ed0:	f1bc 0f01 	cmp.w	ip, #1
    4ed4:	bf0c      	ite	eq
    4ed6:	f04f 0c37 	moveq.w	ip, #55	; 0x37
    4eda:	f04f 0c57 	movne.w	ip, #87	; 0x57
    4ede:	ebcc 0404 	rsb	r4, ip, r4
    4ee2:	429c      	cmp	r4, r3
    4ee4:	da10      	bge.n	4f08 <_strtoul_r+0xbc>
    4ee6:	f1b6 3fff 	cmp.w	r6, #4294967295
    4eea:	d00a      	beq.n	4f02 <_strtoul_r+0xb6>
    4eec:	45c6      	cmp	lr, r8
    4eee:	d806      	bhi.n	4efe <_strtoul_r+0xb2>
    4ef0:	d101      	bne.n	4ef6 <_strtoul_r+0xaa>
    4ef2:	4554      	cmp	r4, sl
    4ef4:	dc03      	bgt.n	4efe <_strtoul_r+0xb2>
    4ef6:	fb03 4e0e 	mla	lr, r3, lr, r4
    4efa:	2601      	movs	r6, #1
    4efc:	e001      	b.n	4f02 <_strtoul_r+0xb6>
    4efe:	f04f 36ff 	mov.w	r6, #4294967295
    4f02:	f815 4b01 	ldrb.w	r4, [r5], #1
    4f06:	e7d7      	b.n	4eb8 <_strtoul_r+0x6c>
    4f08:	1c74      	adds	r4, r6, #1
    4f0a:	4673      	mov	r3, lr
    4f0c:	d103      	bne.n	4f16 <_strtoul_r+0xca>
    4f0e:	2322      	movs	r3, #34	; 0x22
    4f10:	6003      	str	r3, [r0, #0]
    4f12:	4633      	mov	r3, r6
    4f14:	e002      	b.n	4f1c <_strtoul_r+0xd0>
    4f16:	b10f      	cbz	r7, 4f1c <_strtoul_r+0xd0>
    4f18:	f1ce 0300 	rsb	r3, lr, #0
    4f1c:	b16a      	cbz	r2, 4f3a <_strtoul_r+0xee>
    4f1e:	b106      	cbz	r6, 4f22 <_strtoul_r+0xd6>
    4f20:	1e69      	subs	r1, r5, #1
    4f22:	6011      	str	r1, [r2, #0]
    4f24:	e009      	b.n	4f3a <_strtoul_r+0xee>
    4f26:	2430      	movs	r4, #48	; 0x30
    4f28:	2b00      	cmp	r3, #0
    4f2a:	d1bb      	bne.n	4ea4 <_strtoul_r+0x58>
    4f2c:	2308      	movs	r3, #8
    4f2e:	e7b9      	b.n	4ea4 <_strtoul_r+0x58>
    4f30:	230a      	movs	r3, #10
    4f32:	e7b7      	b.n	4ea4 <_strtoul_r+0x58>
    4f34:	2c30      	cmp	r4, #48	; 0x30
    4f36:	d1b5      	bne.n	4ea4 <_strtoul_r+0x58>
    4f38:	e7ac      	b.n	4e94 <_strtoul_r+0x48>
    4f3a:	4618      	mov	r0, r3
    4f3c:	e8bd 87f0 	ldmia.w	sp!, {r4, r5, r6, r7, r8, r9, sl, pc}
    4f40:	10000138 	.word	0x10000138

00004f44 <__submore>:
    4f44:	e92d 41f0 	stmdb	sp!, {r4, r5, r6, r7, r8, lr}
    4f48:	460c      	mov	r4, r1
    4f4a:	6b49      	ldr	r1, [r1, #52]	; 0x34
    4f4c:	f104 0344 	add.w	r3, r4, #68	; 0x44
    4f50:	4299      	cmp	r1, r3
    4f52:	d11a      	bne.n	4f8a <__submore+0x46>
    4f54:	f44f 6180 	mov.w	r1, #1024	; 0x400
    4f58:	f7fd faac 	bl	24b4 <_malloc_r>
    4f5c:	b918      	cbnz	r0, 4f66 <__submore+0x22>
    4f5e:	f04f 30ff 	mov.w	r0, #4294967295
    4f62:	e8bd 81f0 	ldmia.w	sp!, {r4, r5, r6, r7, r8, pc}
    4f66:	f44f 6380 	mov.w	r3, #1024	; 0x400
    4f6a:	63a3      	str	r3, [r4, #56]	; 0x38
    4f6c:	f894 3046 	ldrb.w	r3, [r4, #70]	; 0x46
    4f70:	6360      	str	r0, [r4, #52]	; 0x34
    4f72:	f880 33ff 	strb.w	r3, [r0, #1023]	; 0x3ff
    4f76:	f894 3045 	ldrb.w	r3, [r4, #69]	; 0x45
    4f7a:	f200 30fd 	addw	r0, r0, #1021	; 0x3fd
    4f7e:	7043      	strb	r3, [r0, #1]
    4f80:	f894 3044 	ldrb.w	r3, [r4, #68]	; 0x44
    4f84:	7003      	strb	r3, [r0, #0]
    4f86:	6020      	str	r0, [r4, #0]
    4f88:	e012      	b.n	4fb0 <__submore+0x6c>
    4f8a:	6ba6      	ldr	r6, [r4, #56]	; 0x38
    4f8c:	0077      	lsls	r7, r6, #1
    4f8e:	463a      	mov	r2, r7
    4f90:	f001 ff49 	bl	6e26 <_realloc_r>
    4f94:	4605      	mov	r5, r0
    4f96:	2800      	cmp	r0, #0
    4f98:	d0e1      	beq.n	4f5e <__submore+0x1a>
    4f9a:	eb00 0806 	add.w	r8, r0, r6
    4f9e:	4640      	mov	r0, r8
    4fa0:	4629      	mov	r1, r5
    4fa2:	4632      	mov	r2, r6
    4fa4:	f7fd fa2e 	bl	2404 <memcpy>
    4fa8:	f8c4 8000 	str.w	r8, [r4]
    4fac:	6365      	str	r5, [r4, #52]	; 0x34
    4fae:	63a7      	str	r7, [r4, #56]	; 0x38
    4fb0:	2000      	movs	r0, #0
    4fb2:	e8bd 81f0 	ldmia.w	sp!, {r4, r5, r6, r7, r8, pc}
	...

00004fb8 <_ungetc_r>:
    4fb8:	1c4b      	adds	r3, r1, #1
    4fba:	b570      	push	{r4, r5, r6, lr}
    4fbc:	4605      	mov	r5, r0
    4fbe:	460e      	mov	r6, r1
    4fc0:	4614      	mov	r4, r2
    4fc2:	d102      	bne.n	4fca <_ungetc_r+0x12>
    4fc4:	f04f 30ff 	mov.w	r0, #4294967295
    4fc8:	bd70      	pop	{r4, r5, r6, pc}
    4fca:	b118      	cbz	r0, 4fd4 <_ungetc_r+0x1c>
    4fcc:	6983      	ldr	r3, [r0, #24]
    4fce:	b90b      	cbnz	r3, 4fd4 <_ungetc_r+0x1c>
    4fd0:	f7fc ffca 	bl	1f68 <__sinit>
    4fd4:	4b2e      	ldr	r3, [pc, #184]	; (5090 <_ungetc_r+0xd8>)
    4fd6:	429c      	cmp	r4, r3
    4fd8:	d101      	bne.n	4fde <_ungetc_r+0x26>
    4fda:	686c      	ldr	r4, [r5, #4]
    4fdc:	e008      	b.n	4ff0 <_ungetc_r+0x38>
    4fde:	4b2d      	ldr	r3, [pc, #180]	; (5094 <_ungetc_r+0xdc>)
    4fe0:	429c      	cmp	r4, r3
    4fe2:	d101      	bne.n	4fe8 <_ungetc_r+0x30>
    4fe4:	68ac      	ldr	r4, [r5, #8]
    4fe6:	e003      	b.n	4ff0 <_ungetc_r+0x38>
    4fe8:	4b2b      	ldr	r3, [pc, #172]	; (5098 <_ungetc_r+0xe0>)
    4fea:	429c      	cmp	r4, r3
    4fec:	bf08      	it	eq
    4fee:	68ec      	ldreq	r4, [r5, #12]
    4ff0:	89a3      	ldrh	r3, [r4, #12]
    4ff2:	f023 0320 	bic.w	r3, r3, #32
    4ff6:	b29b      	uxth	r3, r3
    4ff8:	81a3      	strh	r3, [r4, #12]
    4ffa:	b29b      	uxth	r3, r3
    4ffc:	0759      	lsls	r1, r3, #29
    4ffe:	d413      	bmi.n	5028 <_ungetc_r+0x70>
    5000:	06da      	lsls	r2, r3, #27
    5002:	d5df      	bpl.n	4fc4 <_ungetc_r+0xc>
    5004:	071b      	lsls	r3, r3, #28
    5006:	d50b      	bpl.n	5020 <_ungetc_r+0x68>
    5008:	4628      	mov	r0, r5
    500a:	4621      	mov	r1, r4
    500c:	f7fc fefc 	bl	1e08 <_fflush_r>
    5010:	2800      	cmp	r0, #0
    5012:	d1d7      	bne.n	4fc4 <_ungetc_r+0xc>
    5014:	89a3      	ldrh	r3, [r4, #12]
    5016:	60a0      	str	r0, [r4, #8]
    5018:	f023 0308 	bic.w	r3, r3, #8
    501c:	81a3      	strh	r3, [r4, #12]
    501e:	61a0      	str	r0, [r4, #24]
    5020:	89a3      	ldrh	r3, [r4, #12]
    5022:	f043 0304 	orr.w	r3, r3, #4
    5026:	81a3      	strh	r3, [r4, #12]
    5028:	6b63      	ldr	r3, [r4, #52]	; 0x34
    502a:	b2f6      	uxtb	r6, r6
    502c:	6862      	ldr	r2, [r4, #4]
    502e:	b18b      	cbz	r3, 5054 <_ungetc_r+0x9c>
    5030:	6ba3      	ldr	r3, [r4, #56]	; 0x38
    5032:	429a      	cmp	r2, r3
    5034:	da07      	bge.n	5046 <_ungetc_r+0x8e>
    5036:	6823      	ldr	r3, [r4, #0]
    5038:	1e5a      	subs	r2, r3, #1
    503a:	6022      	str	r2, [r4, #0]
    503c:	f803 6c01 	strb.w	r6, [r3, #-1]
    5040:	6863      	ldr	r3, [r4, #4]
    5042:	3301      	adds	r3, #1
    5044:	e020      	b.n	5088 <_ungetc_r+0xd0>
    5046:	4628      	mov	r0, r5
    5048:	4621      	mov	r1, r4
    504a:	f7ff ff7b 	bl	4f44 <__submore>
    504e:	2800      	cmp	r0, #0
    5050:	d0f1      	beq.n	5036 <_ungetc_r+0x7e>
    5052:	e7b7      	b.n	4fc4 <_ungetc_r+0xc>
    5054:	6921      	ldr	r1, [r4, #16]
    5056:	6823      	ldr	r3, [r4, #0]
    5058:	b151      	cbz	r1, 5070 <_ungetc_r+0xb8>
    505a:	428b      	cmp	r3, r1
    505c:	d908      	bls.n	5070 <_ungetc_r+0xb8>
    505e:	f813 0c01 	ldrb.w	r0, [r3, #-1]
    5062:	42b0      	cmp	r0, r6
    5064:	d104      	bne.n	5070 <_ungetc_r+0xb8>
    5066:	3b01      	subs	r3, #1
    5068:	3201      	adds	r2, #1
    506a:	6023      	str	r3, [r4, #0]
    506c:	6062      	str	r2, [r4, #4]
    506e:	bd70      	pop	{r4, r5, r6, pc}
    5070:	63e3      	str	r3, [r4, #60]	; 0x3c
    5072:	f104 0344 	add.w	r3, r4, #68	; 0x44
    5076:	6363      	str	r3, [r4, #52]	; 0x34
    5078:	2303      	movs	r3, #3
    507a:	63a3      	str	r3, [r4, #56]	; 0x38
    507c:	4623      	mov	r3, r4
    507e:	6422      	str	r2, [r4, #64]	; 0x40
    5080:	f803 6f46 	strb.w	r6, [r3, #70]!
    5084:	6023      	str	r3, [r4, #0]
    5086:	2301      	movs	r3, #1
    5088:	6063      	str	r3, [r4, #4]
    508a:	4630      	mov	r0, r6
    508c:	bd70      	pop	{r4, r5, r6, pc}
    508e:	bf00      	nop
    5090:	00008558 	.word	0x00008558
    5094:	00008578 	.word	0x00008578
    5098:	00008598 	.word	0x00008598

0000509c <__swbuf_r>:
    509c:	b570      	push	{r4, r5, r6, lr}
    509e:	460d      	mov	r5, r1
    50a0:	4614      	mov	r4, r2
    50a2:	4606      	mov	r6, r0
    50a4:	b118      	cbz	r0, 50ae <__swbuf_r+0x12>
    50a6:	6983      	ldr	r3, [r0, #24]
    50a8:	b90b      	cbnz	r3, 50ae <__swbuf_r+0x12>
    50aa:	f7fc ff5d 	bl	1f68 <__sinit>
    50ae:	4b22      	ldr	r3, [pc, #136]	; (5138 <__swbuf_r+0x9c>)
    50b0:	429c      	cmp	r4, r3
    50b2:	d101      	bne.n	50b8 <__swbuf_r+0x1c>
    50b4:	6874      	ldr	r4, [r6, #4]
    50b6:	e008      	b.n	50ca <__swbuf_r+0x2e>
    50b8:	4b20      	ldr	r3, [pc, #128]	; (513c <__swbuf_r+0xa0>)
    50ba:	429c      	cmp	r4, r3
    50bc:	d101      	bne.n	50c2 <__swbuf_r+0x26>
    50be:	68b4      	ldr	r4, [r6, #8]
    50c0:	e003      	b.n	50ca <__swbuf_r+0x2e>
    50c2:	4b1f      	ldr	r3, [pc, #124]	; (5140 <__swbuf_r+0xa4>)
    50c4:	429c      	cmp	r4, r3
    50c6:	bf08      	it	eq
    50c8:	68f4      	ldreq	r4, [r6, #12]
    50ca:	69a3      	ldr	r3, [r4, #24]
    50cc:	60a3      	str	r3, [r4, #8]
    50ce:	89a3      	ldrh	r3, [r4, #12]
    50d0:	071a      	lsls	r2, r3, #28
    50d2:	d509      	bpl.n	50e8 <__swbuf_r+0x4c>
    50d4:	6923      	ldr	r3, [r4, #16]
    50d6:	b13b      	cbz	r3, 50e8 <__swbuf_r+0x4c>
    50d8:	6823      	ldr	r3, [r4, #0]
    50da:	6920      	ldr	r0, [r4, #16]
    50dc:	b2ed      	uxtb	r5, r5
    50de:	1a18      	subs	r0, r3, r0
    50e0:	6963      	ldr	r3, [r4, #20]
    50e2:	4298      	cmp	r0, r3
    50e4:	db0f      	blt.n	5106 <__swbuf_r+0x6a>
    50e6:	e008      	b.n	50fa <__swbuf_r+0x5e>
    50e8:	4630      	mov	r0, r6
    50ea:	4621      	mov	r1, r4
    50ec:	f000 f83c 	bl	5168 <__swsetup_r>
    50f0:	2800      	cmp	r0, #0
    50f2:	d0f1      	beq.n	50d8 <__swbuf_r+0x3c>
    50f4:	f04f 30ff 	mov.w	r0, #4294967295
    50f8:	bd70      	pop	{r4, r5, r6, pc}
    50fa:	4630      	mov	r0, r6
    50fc:	4621      	mov	r1, r4
    50fe:	f7fc fe83 	bl	1e08 <_fflush_r>
    5102:	2800      	cmp	r0, #0
    5104:	d1f6      	bne.n	50f4 <__swbuf_r+0x58>
    5106:	68a3      	ldr	r3, [r4, #8]
    5108:	3001      	adds	r0, #1
    510a:	3b01      	subs	r3, #1
    510c:	60a3      	str	r3, [r4, #8]
    510e:	6823      	ldr	r3, [r4, #0]
    5110:	1c5a      	adds	r2, r3, #1
    5112:	6022      	str	r2, [r4, #0]
    5114:	701d      	strb	r5, [r3, #0]
    5116:	6963      	ldr	r3, [r4, #20]
    5118:	4298      	cmp	r0, r3
    511a:	d004      	beq.n	5126 <__swbuf_r+0x8a>
    511c:	89a3      	ldrh	r3, [r4, #12]
    511e:	07db      	lsls	r3, r3, #31
    5120:	d507      	bpl.n	5132 <__swbuf_r+0x96>
    5122:	2d0a      	cmp	r5, #10
    5124:	d105      	bne.n	5132 <__swbuf_r+0x96>
    5126:	4630      	mov	r0, r6
    5128:	4621      	mov	r1, r4
    512a:	f7fc fe6d 	bl	1e08 <_fflush_r>
    512e:	2800      	cmp	r0, #0
    5130:	d1e0      	bne.n	50f4 <__swbuf_r+0x58>
    5132:	4628      	mov	r0, r5
    5134:	bd70      	pop	{r4, r5, r6, pc}
    5136:	bf00      	nop
    5138:	00008558 	.word	0x00008558
    513c:	00008578 	.word	0x00008578
    5140:	00008598 	.word	0x00008598

00005144 <_write_r>:
    5144:	b538      	push	{r3, r4, r5, lr}
    5146:	4c07      	ldr	r4, [pc, #28]	; (5164 <_write_r+0x20>)
    5148:	4605      	mov	r5, r0
    514a:	2000      	movs	r0, #0
    514c:	6020      	str	r0, [r4, #0]
    514e:	4608      	mov	r0, r1
    5150:	4611      	mov	r1, r2
    5152:	461a      	mov	r2, r3
    5154:	f7fb fb78 	bl	848 <_write>
    5158:	1c43      	adds	r3, r0, #1
    515a:	d102      	bne.n	5162 <_write_r+0x1e>
    515c:	6823      	ldr	r3, [r4, #0]
    515e:	b103      	cbz	r3, 5162 <_write_r+0x1e>
    5160:	602b      	str	r3, [r5, #0]
    5162:	bd38      	pop	{r3, r4, r5, pc}
    5164:	10000484 	.word	0x10000484

00005168 <__swsetup_r>:
    5168:	4b31      	ldr	r3, [pc, #196]	; (5230 <__swsetup_r+0xc8>)
    516a:	b570      	push	{r4, r5, r6, lr}
    516c:	681d      	ldr	r5, [r3, #0]
    516e:	4606      	mov	r6, r0
    5170:	460c      	mov	r4, r1
    5172:	b125      	cbz	r5, 517e <__swsetup_r+0x16>
    5174:	69ab      	ldr	r3, [r5, #24]
    5176:	b913      	cbnz	r3, 517e <__swsetup_r+0x16>
    5178:	4628      	mov	r0, r5
    517a:	f7fc fef5 	bl	1f68 <__sinit>
    517e:	4b2d      	ldr	r3, [pc, #180]	; (5234 <__swsetup_r+0xcc>)
    5180:	429c      	cmp	r4, r3
    5182:	d101      	bne.n	5188 <__swsetup_r+0x20>
    5184:	686c      	ldr	r4, [r5, #4]
    5186:	e008      	b.n	519a <__swsetup_r+0x32>
    5188:	4b2b      	ldr	r3, [pc, #172]	; (5238 <__swsetup_r+0xd0>)
    518a:	429c      	cmp	r4, r3
    518c:	d101      	bne.n	5192 <__swsetup_r+0x2a>
    518e:	68ac      	ldr	r4, [r5, #8]
    5190:	e003      	b.n	519a <__swsetup_r+0x32>
    5192:	4b2a      	ldr	r3, [pc, #168]	; (523c <__swsetup_r+0xd4>)
    5194:	429c      	cmp	r4, r3
    5196:	bf08      	it	eq
    5198:	68ec      	ldreq	r4, [r5, #12]
    519a:	89a3      	ldrh	r3, [r4, #12]
    519c:	b29a      	uxth	r2, r3
    519e:	0711      	lsls	r1, r2, #28
    51a0:	d41d      	bmi.n	51de <__swsetup_r+0x76>
    51a2:	06d5      	lsls	r5, r2, #27
    51a4:	d402      	bmi.n	51ac <__swsetup_r+0x44>
    51a6:	2209      	movs	r2, #9
    51a8:	6032      	str	r2, [r6, #0]
    51aa:	e038      	b.n	521e <__swsetup_r+0xb6>
    51ac:	0750      	lsls	r0, r2, #29
    51ae:	d512      	bpl.n	51d6 <__swsetup_r+0x6e>
    51b0:	6b61      	ldr	r1, [r4, #52]	; 0x34
    51b2:	b141      	cbz	r1, 51c6 <__swsetup_r+0x5e>
    51b4:	f104 0344 	add.w	r3, r4, #68	; 0x44
    51b8:	4299      	cmp	r1, r3
    51ba:	d002      	beq.n	51c2 <__swsetup_r+0x5a>
    51bc:	4630      	mov	r0, r6
    51be:	f7fd f935 	bl	242c <_free_r>
    51c2:	2300      	movs	r3, #0
    51c4:	6363      	str	r3, [r4, #52]	; 0x34
    51c6:	89a3      	ldrh	r3, [r4, #12]
    51c8:	f023 0324 	bic.w	r3, r3, #36	; 0x24
    51cc:	81a3      	strh	r3, [r4, #12]
    51ce:	2300      	movs	r3, #0
    51d0:	6063      	str	r3, [r4, #4]
    51d2:	6923      	ldr	r3, [r4, #16]
    51d4:	6023      	str	r3, [r4, #0]
    51d6:	89a3      	ldrh	r3, [r4, #12]
    51d8:	f043 0308 	orr.w	r3, r3, #8
    51dc:	81a3      	strh	r3, [r4, #12]
    51de:	6923      	ldr	r3, [r4, #16]
    51e0:	b94b      	cbnz	r3, 51f6 <__swsetup_r+0x8e>
    51e2:	89a3      	ldrh	r3, [r4, #12]
    51e4:	f403 7320 	and.w	r3, r3, #640	; 0x280
    51e8:	f5b3 7f00 	cmp.w	r3, #512	; 0x200
    51ec:	d003      	beq.n	51f6 <__swsetup_r+0x8e>
    51ee:	4630      	mov	r0, r6
    51f0:	4621      	mov	r1, r4
    51f2:	f7fd f89d 	bl	2330 <__smakebuf_r>
    51f6:	89a3      	ldrh	r3, [r4, #12]
    51f8:	f013 0201 	ands.w	r2, r3, #1
    51fc:	d005      	beq.n	520a <__swsetup_r+0xa2>
    51fe:	2200      	movs	r2, #0
    5200:	60a2      	str	r2, [r4, #8]
    5202:	6962      	ldr	r2, [r4, #20]
    5204:	4252      	negs	r2, r2
    5206:	61a2      	str	r2, [r4, #24]
    5208:	e003      	b.n	5212 <__swsetup_r+0xaa>
    520a:	0799      	lsls	r1, r3, #30
    520c:	bf58      	it	pl
    520e:	6962      	ldrpl	r2, [r4, #20]
    5210:	60a2      	str	r2, [r4, #8]
    5212:	6922      	ldr	r2, [r4, #16]
    5214:	b94a      	cbnz	r2, 522a <__swsetup_r+0xc2>
    5216:	f003 0080 	and.w	r0, r3, #128	; 0x80
    521a:	b280      	uxth	r0, r0
    521c:	b130      	cbz	r0, 522c <__swsetup_r+0xc4>
    521e:	f043 0340 	orr.w	r3, r3, #64	; 0x40
    5222:	81a3      	strh	r3, [r4, #12]
    5224:	f04f 30ff 	mov.w	r0, #4294967295
    5228:	bd70      	pop	{r4, r5, r6, pc}
    522a:	2000      	movs	r0, #0
    522c:	bd70      	pop	{r4, r5, r6, pc}
    522e:	bf00      	nop
    5230:	10000134 	.word	0x10000134
    5234:	00008558 	.word	0x00008558
    5238:	00008578 	.word	0x00008578
    523c:	00008598 	.word	0x00008598

00005240 <_close_r>:
    5240:	b538      	push	{r3, r4, r5, lr}
    5242:	4c06      	ldr	r4, [pc, #24]	; (525c <_close_r+0x1c>)
    5244:	2300      	movs	r3, #0
    5246:	4605      	mov	r5, r0
    5248:	4608      	mov	r0, r1
    524a:	6023      	str	r3, [r4, #0]
    524c:	f7fb fae6 	bl	81c <_close>
    5250:	1c43      	adds	r3, r0, #1
    5252:	d102      	bne.n	525a <_close_r+0x1a>
    5254:	6823      	ldr	r3, [r4, #0]
    5256:	b103      	cbz	r3, 525a <_close_r+0x1a>
    5258:	602b      	str	r3, [r5, #0]
    525a:	bd38      	pop	{r3, r4, r5, pc}
    525c:	10000484 	.word	0x10000484

00005260 <quorem>:
    5260:	e92d 4ff7 	stmdb	sp!, {r0, r1, r2, r4, r5, r6, r7, r8, r9, sl, fp, lr}
    5264:	6903      	ldr	r3, [r0, #16]
    5266:	690c      	ldr	r4, [r1, #16]
    5268:	4680      	mov	r8, r0
    526a:	42a3      	cmp	r3, r4
    526c:	db7e      	blt.n	536c <quorem+0x10c>
    526e:	3c01      	subs	r4, #1
    5270:	f101 0714 	add.w	r7, r1, #20
    5274:	ea4f 0e84 	mov.w	lr, r4, lsl #2
    5278:	f100 0614 	add.w	r6, r0, #20
    527c:	eb06 030e 	add.w	r3, r6, lr
    5280:	f857 5024 	ldr.w	r5, [r7, r4, lsl #2]
    5284:	9301      	str	r3, [sp, #4]
    5286:	f856 3024 	ldr.w	r3, [r6, r4, lsl #2]
    528a:	3501      	adds	r5, #1
    528c:	fbb3 f5f5 	udiv	r5, r3, r5
    5290:	eb07 090e 	add.w	r9, r7, lr
    5294:	b3bd      	cbz	r5, 5306 <quorem+0xa6>
    5296:	f04f 0a00 	mov.w	sl, #0
    529a:	4638      	mov	r0, r7
    529c:	46b4      	mov	ip, r6
    529e:	46d3      	mov	fp, sl
    52a0:	f850 3b04 	ldr.w	r3, [r0], #4
    52a4:	b29a      	uxth	r2, r3
    52a6:	0c1b      	lsrs	r3, r3, #16
    52a8:	fb02 a205 	mla	r2, r2, r5, sl
    52ac:	436b      	muls	r3, r5
    52ae:	eb03 4312 	add.w	r3, r3, r2, lsr #16
    52b2:	b292      	uxth	r2, r2
    52b4:	ebc2 0b0b 	rsb	fp, r2, fp
    52b8:	f8bc 2000 	ldrh.w	r2, [ip]
    52bc:	ea4f 4a13 	mov.w	sl, r3, lsr #16
    52c0:	445a      	add	r2, fp
    52c2:	fa1f fb83 	uxth.w	fp, r3
    52c6:	f8dc 3000 	ldr.w	r3, [ip]
    52ca:	4548      	cmp	r0, r9
    52cc:	ebcb 4313 	rsb	r3, fp, r3, lsr #16
    52d0:	eb03 4322 	add.w	r3, r3, r2, asr #16
    52d4:	b292      	uxth	r2, r2
    52d6:	ea42 4203 	orr.w	r2, r2, r3, lsl #16
    52da:	ea4f 4b23 	mov.w	fp, r3, asr #16
    52de:	f84c 2b04 	str.w	r2, [ip], #4
    52e2:	d9dd      	bls.n	52a0 <quorem+0x40>
    52e4:	f856 300e 	ldr.w	r3, [r6, lr]
    52e8:	b96b      	cbnz	r3, 5306 <quorem+0xa6>
    52ea:	9b01      	ldr	r3, [sp, #4]
    52ec:	3b04      	subs	r3, #4
    52ee:	42b3      	cmp	r3, r6
    52f0:	461a      	mov	r2, r3
    52f2:	d802      	bhi.n	52fa <quorem+0x9a>
    52f4:	f8c8 4010 	str.w	r4, [r8, #16]
    52f8:	e005      	b.n	5306 <quorem+0xa6>
    52fa:	6812      	ldr	r2, [r2, #0]
    52fc:	3b04      	subs	r3, #4
    52fe:	2a00      	cmp	r2, #0
    5300:	d1f8      	bne.n	52f4 <quorem+0x94>
    5302:	3c01      	subs	r4, #1
    5304:	e7f3      	b.n	52ee <quorem+0x8e>
    5306:	4640      	mov	r0, r8
    5308:	f001 fbdb 	bl	6ac2 <__mcmp>
    530c:	2800      	cmp	r0, #0
    530e:	db2b      	blt.n	5368 <quorem+0x108>
    5310:	4630      	mov	r0, r6
    5312:	3501      	adds	r5, #1
    5314:	f04f 0e00 	mov.w	lr, #0
    5318:	f857 2b04 	ldr.w	r2, [r7], #4
    531c:	6803      	ldr	r3, [r0, #0]
    531e:	b291      	uxth	r1, r2
    5320:	ebc1 0e0e 	rsb	lr, r1, lr
    5324:	0c12      	lsrs	r2, r2, #16
    5326:	b299      	uxth	r1, r3
    5328:	4471      	add	r1, lr
    532a:	ebc2 4313 	rsb	r3, r2, r3, lsr #16
    532e:	eb03 4321 	add.w	r3, r3, r1, asr #16
    5332:	b289      	uxth	r1, r1
    5334:	ea4f 4e23 	mov.w	lr, r3, asr #16
    5338:	454f      	cmp	r7, r9
    533a:	ea41 4303 	orr.w	r3, r1, r3, lsl #16
    533e:	f840 3b04 	str.w	r3, [r0], #4
    5342:	d9e9      	bls.n	5318 <quorem+0xb8>
    5344:	f856 2024 	ldr.w	r2, [r6, r4, lsl #2]
    5348:	eb06 0384 	add.w	r3, r6, r4, lsl #2
    534c:	b962      	cbnz	r2, 5368 <quorem+0x108>
    534e:	3b04      	subs	r3, #4
    5350:	42b3      	cmp	r3, r6
    5352:	461a      	mov	r2, r3
    5354:	d802      	bhi.n	535c <quorem+0xfc>
    5356:	f8c8 4010 	str.w	r4, [r8, #16]
    535a:	e005      	b.n	5368 <quorem+0x108>
    535c:	6812      	ldr	r2, [r2, #0]
    535e:	3b04      	subs	r3, #4
    5360:	2a00      	cmp	r2, #0
    5362:	d1f8      	bne.n	5356 <quorem+0xf6>
    5364:	3c01      	subs	r4, #1
    5366:	e7f3      	b.n	5350 <quorem+0xf0>
    5368:	4628      	mov	r0, r5
    536a:	e000      	b.n	536e <quorem+0x10e>
    536c:	2000      	movs	r0, #0
    536e:	b003      	add	sp, #12
    5370:	e8bd 8ff0 	ldmia.w	sp!, {r4, r5, r6, r7, r8, r9, sl, fp, pc}
    5374:	0000      	movs	r0, r0
	...

00005378 <_dtoa_r>:
    5378:	e92d 4ff0 	stmdb	sp!, {r4, r5, r6, r7, r8, r9, sl, fp, lr}
    537c:	6a45      	ldr	r5, [r0, #36]	; 0x24
    537e:	b095      	sub	sp, #84	; 0x54
    5380:	4682      	mov	sl, r0
    5382:	9c21      	ldr	r4, [sp, #132]	; 0x84
    5384:	e9cd 2302 	strd	r2, r3, [sp, #8]
    5388:	b945      	cbnz	r5, 539c <_dtoa_r+0x24>
    538a:	2010      	movs	r0, #16
    538c:	f7fd f81c 	bl	23c8 <malloc>
    5390:	f8ca 0024 	str.w	r0, [sl, #36]	; 0x24
    5394:	6045      	str	r5, [r0, #4]
    5396:	6085      	str	r5, [r0, #8]
    5398:	6005      	str	r5, [r0, #0]
    539a:	60c5      	str	r5, [r0, #12]
    539c:	f8da 3024 	ldr.w	r3, [sl, #36]	; 0x24
    53a0:	6819      	ldr	r1, [r3, #0]
    53a2:	b159      	cbz	r1, 53bc <_dtoa_r+0x44>
    53a4:	685a      	ldr	r2, [r3, #4]
    53a6:	2301      	movs	r3, #1
    53a8:	4093      	lsls	r3, r2
    53aa:	604a      	str	r2, [r1, #4]
    53ac:	608b      	str	r3, [r1, #8]
    53ae:	4650      	mov	r0, sl
    53b0:	f001 f96a 	bl	6688 <_Bfree>
    53b4:	f8da 3024 	ldr.w	r3, [sl, #36]	; 0x24
    53b8:	2200      	movs	r2, #0
    53ba:	601a      	str	r2, [r3, #0]
    53bc:	9b03      	ldr	r3, [sp, #12]
    53be:	4aa2      	ldr	r2, [pc, #648]	; (5648 <_dtoa_r+0x2d0>)
    53c0:	2b00      	cmp	r3, #0
    53c2:	bfbd      	ittte	lt
    53c4:	2301      	movlt	r3, #1
    53c6:	6023      	strlt	r3, [r4, #0]
    53c8:	9b03      	ldrlt	r3, [sp, #12]
    53ca:	2300      	movge	r3, #0
    53cc:	bfbc      	itt	lt
    53ce:	f023 4300 	biclt.w	r3, r3, #2147483648	; 0x80000000
    53d2:	9303      	strlt	r3, [sp, #12]
    53d4:	9f03      	ldr	r7, [sp, #12]
    53d6:	bfa8      	it	ge
    53d8:	6023      	strge	r3, [r4, #0]
    53da:	f027 4300 	bic.w	r3, r7, #2147483648	; 0x80000000
    53de:	0d1b      	lsrs	r3, r3, #20
    53e0:	051b      	lsls	r3, r3, #20
    53e2:	4293      	cmp	r3, r2
    53e4:	d11d      	bne.n	5422 <_dtoa_r+0xaa>
    53e6:	f242 730f 	movw	r3, #9999	; 0x270f
    53ea:	9a20      	ldr	r2, [sp, #128]	; 0x80
    53ec:	6013      	str	r3, [r2, #0]
    53ee:	9b02      	ldr	r3, [sp, #8]
    53f0:	b943      	cbnz	r3, 5404 <_dtoa_r+0x8c>
    53f2:	4a96      	ldr	r2, [pc, #600]	; (564c <_dtoa_r+0x2d4>)
    53f4:	4b96      	ldr	r3, [pc, #600]	; (5650 <_dtoa_r+0x2d8>)
    53f6:	f3c7 0013 	ubfx	r0, r7, #0, #20
    53fa:	2800      	cmp	r0, #0
    53fc:	bf14      	ite	ne
    53fe:	4618      	movne	r0, r3
    5400:	4610      	moveq	r0, r2
    5402:	e000      	b.n	5406 <_dtoa_r+0x8e>
    5404:	4892      	ldr	r0, [pc, #584]	; (5650 <_dtoa_r+0x2d8>)
    5406:	9b22      	ldr	r3, [sp, #136]	; 0x88
    5408:	2b00      	cmp	r3, #0
    540a:	f000 8569 	beq.w	5ee0 <_dtoa_r+0xb68>
    540e:	78c3      	ldrb	r3, [r0, #3]
    5410:	b113      	cbz	r3, 5418 <_dtoa_r+0xa0>
    5412:	f100 0308 	add.w	r3, r0, #8
    5416:	e000      	b.n	541a <_dtoa_r+0xa2>
    5418:	1cc3      	adds	r3, r0, #3
    541a:	9a22      	ldr	r2, [sp, #136]	; 0x88
    541c:	6013      	str	r3, [r2, #0]
    541e:	f000 bd5f 	b.w	5ee0 <_dtoa_r+0xb68>
    5422:	e9dd 4502 	ldrd	r4, r5, [sp, #8]
    5426:	2200      	movs	r2, #0
    5428:	4620      	mov	r0, r4
    542a:	4629      	mov	r1, r5
    542c:	2300      	movs	r3, #0
    542e:	f002 fc4f 	bl	7cd0 <__aeabi_dcmpeq>
    5432:	4680      	mov	r8, r0
    5434:	b158      	cbz	r0, 544e <_dtoa_r+0xd6>
    5436:	9a20      	ldr	r2, [sp, #128]	; 0x80
    5438:	2301      	movs	r3, #1
    543a:	6013      	str	r3, [r2, #0]
    543c:	9b22      	ldr	r3, [sp, #136]	; 0x88
    543e:	2b00      	cmp	r3, #0
    5440:	f000 853c 	beq.w	5ebc <_dtoa_r+0xb44>
    5444:	4883      	ldr	r0, [pc, #524]	; (5654 <_dtoa_r+0x2dc>)
    5446:	6018      	str	r0, [r3, #0]
    5448:	3801      	subs	r0, #1
    544a:	f000 bd49 	b.w	5ee0 <_dtoa_r+0xb68>
    544e:	ab13      	add	r3, sp, #76	; 0x4c
    5450:	9300      	str	r3, [sp, #0]
    5452:	ab12      	add	r3, sp, #72	; 0x48
    5454:	9301      	str	r3, [sp, #4]
    5456:	4650      	mov	r0, sl
    5458:	4622      	mov	r2, r4
    545a:	462b      	mov	r3, r5
    545c:	f001 fc1f 	bl	6c9e <__d2b>
    5460:	f3c7 560a 	ubfx	r6, r7, #20, #11
    5464:	9007      	str	r0, [sp, #28]
    5466:	b15e      	cbz	r6, 5480 <_dtoa_r+0x108>
    5468:	f3c5 0313 	ubfx	r3, r5, #0, #20
    546c:	f043 517f 	orr.w	r1, r3, #1069547520	; 0x3fc00000
    5470:	4620      	mov	r0, r4
    5472:	f441 1140 	orr.w	r1, r1, #3145728	; 0x300000
    5476:	f2a6 36ff 	subw	r6, r6, #1023	; 0x3ff
    547a:	f8cd 8044 	str.w	r8, [sp, #68]	; 0x44
    547e:	e01d      	b.n	54bc <_dtoa_r+0x144>
    5480:	9b13      	ldr	r3, [sp, #76]	; 0x4c
    5482:	9e12      	ldr	r6, [sp, #72]	; 0x48
    5484:	441e      	add	r6, r3
    5486:	f46f 6382 	mvn.w	r3, #1040	; 0x410
    548a:	429e      	cmp	r6, r3
    548c:	bfa1      	itttt	ge
    548e:	9a02      	ldrge	r2, [sp, #8]
    5490:	f206 4312 	addwge	r3, r6, #1042	; 0x412
    5494:	fa22 f003 	lsrge.w	r0, r2, r3
    5498:	4b6f      	ldrge	r3, [pc, #444]	; (5658 <_dtoa_r+0x2e0>)
    549a:	bfb7      	itett	lt
    549c:	4b6f      	ldrlt	r3, [pc, #444]	; (565c <_dtoa_r+0x2e4>)
    549e:	1b9b      	subge	r3, r3, r6
    54a0:	9a02      	ldrlt	r2, [sp, #8]
    54a2:	1b9b      	sublt	r3, r3, r6
    54a4:	bfaa      	itet	ge
    54a6:	409f      	lslge	r7, r3
    54a8:	fa02 f003 	lsllt.w	r0, r2, r3
    54ac:	4338      	orrge	r0, r7
    54ae:	f002 f931 	bl	7714 <__aeabi_ui2d>
    54b2:	2301      	movs	r3, #1
    54b4:	f1a1 71f8 	sub.w	r1, r1, #32505856	; 0x1f00000
    54b8:	3e01      	subs	r6, #1
    54ba:	9311      	str	r3, [sp, #68]	; 0x44
    54bc:	2200      	movs	r2, #0
    54be:	4b68      	ldr	r3, [pc, #416]	; (5660 <_dtoa_r+0x2e8>)
    54c0:	f001 ffea 	bl	7498 <__aeabi_dsub>
    54c4:	a35a      	add	r3, pc, #360	; (adr r3, 5630 <_dtoa_r+0x2b8>)
    54c6:	e9d3 2300 	ldrd	r2, r3, [r3]
    54ca:	f002 f999 	bl	7800 <__aeabi_dmul>
    54ce:	a35a      	add	r3, pc, #360	; (adr r3, 5638 <_dtoa_r+0x2c0>)
    54d0:	e9d3 2300 	ldrd	r2, r3, [r3]
    54d4:	f001 ffe2 	bl	749c <__adddf3>
    54d8:	4604      	mov	r4, r0
    54da:	4630      	mov	r0, r6
    54dc:	460d      	mov	r5, r1
    54de:	f002 f929 	bl	7734 <__aeabi_i2d>
    54e2:	a357      	add	r3, pc, #348	; (adr r3, 5640 <_dtoa_r+0x2c8>)
    54e4:	e9d3 2300 	ldrd	r2, r3, [r3]
    54e8:	f002 f98a 	bl	7800 <__aeabi_dmul>
    54ec:	4602      	mov	r2, r0
    54ee:	460b      	mov	r3, r1
    54f0:	4620      	mov	r0, r4
    54f2:	4629      	mov	r1, r5
    54f4:	f001 ffd2 	bl	749c <__adddf3>
    54f8:	4604      	mov	r4, r0
    54fa:	460d      	mov	r5, r1
    54fc:	f002 fc1a 	bl	7d34 <__aeabi_d2iz>
    5500:	4629      	mov	r1, r5
    5502:	4683      	mov	fp, r0
    5504:	2200      	movs	r2, #0
    5506:	4620      	mov	r0, r4
    5508:	2300      	movs	r3, #0
    550a:	f002 fbeb 	bl	7ce4 <__aeabi_dcmplt>
    550e:	b158      	cbz	r0, 5528 <_dtoa_r+0x1b0>
    5510:	4658      	mov	r0, fp
    5512:	f002 f90f 	bl	7734 <__aeabi_i2d>
    5516:	4602      	mov	r2, r0
    5518:	460b      	mov	r3, r1
    551a:	4620      	mov	r0, r4
    551c:	4629      	mov	r1, r5
    551e:	f002 fbd7 	bl	7cd0 <__aeabi_dcmpeq>
    5522:	b908      	cbnz	r0, 5528 <_dtoa_r+0x1b0>
    5524:	f10b 3bff 	add.w	fp, fp, #4294967295
    5528:	f1bb 0f16 	cmp.w	fp, #22
    552c:	d80d      	bhi.n	554a <_dtoa_r+0x1d2>
    552e:	4b4d      	ldr	r3, [pc, #308]	; (5664 <_dtoa_r+0x2ec>)
    5530:	eb03 03cb 	add.w	r3, r3, fp, lsl #3
    5534:	e9d3 0100 	ldrd	r0, r1, [r3]
    5538:	e9dd 2302 	ldrd	r2, r3, [sp, #8]
    553c:	f002 fbf0 	bl	7d20 <__aeabi_dcmpgt>
    5540:	b130      	cbz	r0, 5550 <_dtoa_r+0x1d8>
    5542:	f10b 3bff 	add.w	fp, fp, #4294967295
    5546:	2300      	movs	r3, #0
    5548:	e000      	b.n	554c <_dtoa_r+0x1d4>
    554a:	2301      	movs	r3, #1
    554c:	9310      	str	r3, [sp, #64]	; 0x40
    554e:	e000      	b.n	5552 <_dtoa_r+0x1da>
    5550:	9010      	str	r0, [sp, #64]	; 0x40
    5552:	9b12      	ldr	r3, [sp, #72]	; 0x48
    5554:	1b9e      	subs	r6, r3, r6
    5556:	1e73      	subs	r3, r6, #1
    5558:	930a      	str	r3, [sp, #40]	; 0x28
    555a:	bf45      	ittet	mi
    555c:	425b      	negmi	r3, r3
    555e:	9309      	strmi	r3, [sp, #36]	; 0x24
    5560:	2300      	movpl	r3, #0
    5562:	2300      	movmi	r3, #0
    5564:	bf4c      	ite	mi
    5566:	930a      	strmi	r3, [sp, #40]	; 0x28
    5568:	9309      	strpl	r3, [sp, #36]	; 0x24
    556a:	f1bb 0f00 	cmp.w	fp, #0
    556e:	db07      	blt.n	5580 <_dtoa_r+0x208>
    5570:	9b0a      	ldr	r3, [sp, #40]	; 0x28
    5572:	f8cd b034 	str.w	fp, [sp, #52]	; 0x34
    5576:	445b      	add	r3, fp
    5578:	930a      	str	r3, [sp, #40]	; 0x28
    557a:	2300      	movs	r3, #0
    557c:	930b      	str	r3, [sp, #44]	; 0x2c
    557e:	e008      	b.n	5592 <_dtoa_r+0x21a>
    5580:	9b09      	ldr	r3, [sp, #36]	; 0x24
    5582:	ebcb 0303 	rsb	r3, fp, r3
    5586:	9309      	str	r3, [sp, #36]	; 0x24
    5588:	f1cb 0300 	rsb	r3, fp, #0
    558c:	930b      	str	r3, [sp, #44]	; 0x2c
    558e:	2300      	movs	r3, #0
    5590:	930d      	str	r3, [sp, #52]	; 0x34
    5592:	9b1e      	ldr	r3, [sp, #120]	; 0x78
    5594:	2b09      	cmp	r3, #9
    5596:	d829      	bhi.n	55ec <_dtoa_r+0x274>
    5598:	2b05      	cmp	r3, #5
    559a:	bfc4      	itt	gt
    559c:	3b04      	subgt	r3, #4
    559e:	931e      	strgt	r3, [sp, #120]	; 0x78
    55a0:	9b1e      	ldr	r3, [sp, #120]	; 0x78
    55a2:	bfc8      	it	gt
    55a4:	2500      	movgt	r5, #0
    55a6:	f1a3 0302 	sub.w	r3, r3, #2
    55aa:	bfd8      	it	le
    55ac:	2501      	movle	r5, #1
    55ae:	2b03      	cmp	r3, #3
    55b0:	d821      	bhi.n	55f6 <_dtoa_r+0x27e>
    55b2:	e8df f003 	tbb	[pc, r3]
    55b6:	0e02      	.short	0x0e02
    55b8:	1004      	.short	0x1004
    55ba:	2300      	movs	r3, #0
    55bc:	e000      	b.n	55c0 <_dtoa_r+0x248>
    55be:	2301      	movs	r3, #1
    55c0:	930c      	str	r3, [sp, #48]	; 0x30
    55c2:	9b1f      	ldr	r3, [sp, #124]	; 0x7c
    55c4:	2b00      	cmp	r3, #0
    55c6:	dc20      	bgt.n	560a <_dtoa_r+0x292>
    55c8:	2301      	movs	r3, #1
    55ca:	9306      	str	r3, [sp, #24]
    55cc:	9305      	str	r3, [sp, #20]
    55ce:	461a      	mov	r2, r3
    55d0:	e019      	b.n	5606 <_dtoa_r+0x28e>
    55d2:	2300      	movs	r3, #0
    55d4:	e000      	b.n	55d8 <_dtoa_r+0x260>
    55d6:	2301      	movs	r3, #1
    55d8:	930c      	str	r3, [sp, #48]	; 0x30
    55da:	9b1f      	ldr	r3, [sp, #124]	; 0x7c
    55dc:	445b      	add	r3, fp
    55de:	9306      	str	r3, [sp, #24]
    55e0:	3301      	adds	r3, #1
    55e2:	2b01      	cmp	r3, #1
    55e4:	9305      	str	r3, [sp, #20]
    55e6:	bfb8      	it	lt
    55e8:	2301      	movlt	r3, #1
    55ea:	e011      	b.n	5610 <_dtoa_r+0x298>
    55ec:	2501      	movs	r5, #1
    55ee:	2300      	movs	r3, #0
    55f0:	931e      	str	r3, [sp, #120]	; 0x78
    55f2:	950c      	str	r5, [sp, #48]	; 0x30
    55f4:	e001      	b.n	55fa <_dtoa_r+0x282>
    55f6:	2301      	movs	r3, #1
    55f8:	930c      	str	r3, [sp, #48]	; 0x30
    55fa:	f04f 33ff 	mov.w	r3, #4294967295
    55fe:	9306      	str	r3, [sp, #24]
    5600:	9305      	str	r3, [sp, #20]
    5602:	2200      	movs	r2, #0
    5604:	2312      	movs	r3, #18
    5606:	921f      	str	r2, [sp, #124]	; 0x7c
    5608:	e002      	b.n	5610 <_dtoa_r+0x298>
    560a:	9b1f      	ldr	r3, [sp, #124]	; 0x7c
    560c:	9306      	str	r3, [sp, #24]
    560e:	9305      	str	r3, [sp, #20]
    5610:	f8da 4024 	ldr.w	r4, [sl, #36]	; 0x24
    5614:	2200      	movs	r2, #0
    5616:	6062      	str	r2, [r4, #4]
    5618:	2104      	movs	r1, #4
    561a:	f101 0214 	add.w	r2, r1, #20
    561e:	429a      	cmp	r2, r3
    5620:	d822      	bhi.n	5668 <_dtoa_r+0x2f0>
    5622:	6862      	ldr	r2, [r4, #4]
    5624:	0049      	lsls	r1, r1, #1
    5626:	3201      	adds	r2, #1
    5628:	6062      	str	r2, [r4, #4]
    562a:	e7f6      	b.n	561a <_dtoa_r+0x2a2>
    562c:	f3af 8000 	nop.w
    5630:	636f4361 	.word	0x636f4361
    5634:	3fd287a7 	.word	0x3fd287a7
    5638:	8b60c8b3 	.word	0x8b60c8b3
    563c:	3fc68a28 	.word	0x3fc68a28
    5640:	509f79fb 	.word	0x509f79fb
    5644:	3fd34413 	.word	0x3fd34413
    5648:	7ff00000 	.word	0x7ff00000
    564c:	00008785 	.word	0x00008785
    5650:	0000878e 	.word	0x0000878e
    5654:	0000862b 	.word	0x0000862b
    5658:	fffffc0e 	.word	0xfffffc0e
    565c:	fffffbee 	.word	0xfffffbee
    5660:	3ff80000 	.word	0x3ff80000
    5664:	000087a0 	.word	0x000087a0
    5668:	4650      	mov	r0, sl
    566a:	6861      	ldr	r1, [r4, #4]
    566c:	f000 ffd7 	bl	661e <_Balloc>
    5670:	f8da 3024 	ldr.w	r3, [sl, #36]	; 0x24
    5674:	6020      	str	r0, [r4, #0]
    5676:	681b      	ldr	r3, [r3, #0]
    5678:	9308      	str	r3, [sp, #32]
    567a:	9b05      	ldr	r3, [sp, #20]
    567c:	2b0e      	cmp	r3, #14
    567e:	f200 8147 	bhi.w	5910 <_dtoa_r+0x598>
    5682:	2d00      	cmp	r5, #0
    5684:	f000 8144 	beq.w	5910 <_dtoa_r+0x598>
    5688:	e9dd 2302 	ldrd	r2, r3, [sp, #8]
    568c:	f1bb 0f00 	cmp.w	fp, #0
    5690:	e9cd 230e 	strd	r2, r3, [sp, #56]	; 0x38
    5694:	dd31      	ble.n	56fa <_dtoa_r+0x382>
    5696:	4ab1      	ldr	r2, [pc, #708]	; (595c <_dtoa_r+0x5e4>)
    5698:	f00b 030f 	and.w	r3, fp, #15
    569c:	ea4f 162b 	mov.w	r6, fp, asr #4
    56a0:	eb02 03c3 	add.w	r3, r2, r3, lsl #3
    56a4:	06f0      	lsls	r0, r6, #27
    56a6:	e9d3 4500 	ldrd	r4, r5, [r3]
    56aa:	d50c      	bpl.n	56c6 <_dtoa_r+0x34e>
    56ac:	e9dd 010e 	ldrd	r0, r1, [sp, #56]	; 0x38
    56b0:	4bab      	ldr	r3, [pc, #684]	; (5960 <_dtoa_r+0x5e8>)
    56b2:	f006 060f 	and.w	r6, r6, #15
    56b6:	e9d3 2308 	ldrd	r2, r3, [r3, #32]
    56ba:	f002 f9cb 	bl	7a54 <__aeabi_ddiv>
    56be:	2703      	movs	r7, #3
    56c0:	e9cd 0102 	strd	r0, r1, [sp, #8]
    56c4:	e000      	b.n	56c8 <_dtoa_r+0x350>
    56c6:	2702      	movs	r7, #2
    56c8:	f8df 8294 	ldr.w	r8, [pc, #660]	; 5960 <_dtoa_r+0x5e8>
    56cc:	b176      	cbz	r6, 56ec <_dtoa_r+0x374>
    56ce:	07f1      	lsls	r1, r6, #31
    56d0:	d508      	bpl.n	56e4 <_dtoa_r+0x36c>
    56d2:	e9d8 2300 	ldrd	r2, r3, [r8]
    56d6:	4620      	mov	r0, r4
    56d8:	4629      	mov	r1, r5
    56da:	f002 f891 	bl	7800 <__aeabi_dmul>
    56de:	4604      	mov	r4, r0
    56e0:	460d      	mov	r5, r1
    56e2:	3701      	adds	r7, #1
    56e4:	1076      	asrs	r6, r6, #1
    56e6:	f108 0808 	add.w	r8, r8, #8
    56ea:	e7ef      	b.n	56cc <_dtoa_r+0x354>
    56ec:	e9dd 0102 	ldrd	r0, r1, [sp, #8]
    56f0:	4622      	mov	r2, r4
    56f2:	462b      	mov	r3, r5
    56f4:	f002 f9ae 	bl	7a54 <__aeabi_ddiv>
    56f8:	e01b      	b.n	5732 <_dtoa_r+0x3ba>
    56fa:	f1cb 0400 	rsb	r4, fp, #0
    56fe:	b1dc      	cbz	r4, 5738 <_dtoa_r+0x3c0>
    5700:	e9dd 010e 	ldrd	r0, r1, [sp, #56]	; 0x38
    5704:	4b95      	ldr	r3, [pc, #596]	; (595c <_dtoa_r+0x5e4>)
    5706:	f004 020f 	and.w	r2, r4, #15
    570a:	eb03 03c2 	add.w	r3, r3, r2, lsl #3
    570e:	e9d3 2300 	ldrd	r2, r3, [r3]
    5712:	f002 f875 	bl	7800 <__aeabi_dmul>
    5716:	4d92      	ldr	r5, [pc, #584]	; (5960 <_dtoa_r+0x5e8>)
    5718:	1124      	asrs	r4, r4, #4
    571a:	2702      	movs	r7, #2
    571c:	b14c      	cbz	r4, 5732 <_dtoa_r+0x3ba>
    571e:	07e2      	lsls	r2, r4, #31
    5720:	d504      	bpl.n	572c <_dtoa_r+0x3b4>
    5722:	e9d5 2300 	ldrd	r2, r3, [r5]
    5726:	3701      	adds	r7, #1
    5728:	f002 f86a 	bl	7800 <__aeabi_dmul>
    572c:	1064      	asrs	r4, r4, #1
    572e:	3508      	adds	r5, #8
    5730:	e7f4      	b.n	571c <_dtoa_r+0x3a4>
    5732:	e9cd 0102 	strd	r0, r1, [sp, #8]
    5736:	e000      	b.n	573a <_dtoa_r+0x3c2>
    5738:	2702      	movs	r7, #2
    573a:	9b10      	ldr	r3, [sp, #64]	; 0x40
    573c:	b1db      	cbz	r3, 5776 <_dtoa_r+0x3fe>
    573e:	e9dd 4502 	ldrd	r4, r5, [sp, #8]
    5742:	2200      	movs	r2, #0
    5744:	4620      	mov	r0, r4
    5746:	4629      	mov	r1, r5
    5748:	4b86      	ldr	r3, [pc, #536]	; (5964 <_dtoa_r+0x5ec>)
    574a:	f002 facb 	bl	7ce4 <__aeabi_dcmplt>
    574e:	b190      	cbz	r0, 5776 <_dtoa_r+0x3fe>
    5750:	9b05      	ldr	r3, [sp, #20]
    5752:	b183      	cbz	r3, 5776 <_dtoa_r+0x3fe>
    5754:	9b06      	ldr	r3, [sp, #24]
    5756:	2b00      	cmp	r3, #0
    5758:	f340 80d6 	ble.w	5908 <_dtoa_r+0x590>
    575c:	4629      	mov	r1, r5
    575e:	4620      	mov	r0, r4
    5760:	2200      	movs	r2, #0
    5762:	4b81      	ldr	r3, [pc, #516]	; (5968 <_dtoa_r+0x5f0>)
    5764:	f002 f84c 	bl	7800 <__aeabi_dmul>
    5768:	f10b 36ff 	add.w	r6, fp, #4294967295
    576c:	e9cd 0102 	strd	r0, r1, [sp, #8]
    5770:	3701      	adds	r7, #1
    5772:	9d06      	ldr	r5, [sp, #24]
    5774:	e001      	b.n	577a <_dtoa_r+0x402>
    5776:	465e      	mov	r6, fp
    5778:	9d05      	ldr	r5, [sp, #20]
    577a:	4638      	mov	r0, r7
    577c:	e9dd 8902 	ldrd	r8, r9, [sp, #8]
    5780:	f001 ffd8 	bl	7734 <__aeabi_i2d>
    5784:	4642      	mov	r2, r8
    5786:	464b      	mov	r3, r9
    5788:	f002 f83a 	bl	7800 <__aeabi_dmul>
    578c:	4b77      	ldr	r3, [pc, #476]	; (596c <_dtoa_r+0x5f4>)
    578e:	2200      	movs	r2, #0
    5790:	f001 fe84 	bl	749c <__adddf3>
    5794:	e9cd 0102 	strd	r0, r1, [sp, #8]
    5798:	9b03      	ldr	r3, [sp, #12]
    579a:	f1a3 7450 	sub.w	r4, r3, #54525952	; 0x3400000
    579e:	9403      	str	r4, [sp, #12]
    57a0:	b9cd      	cbnz	r5, 57d6 <_dtoa_r+0x45e>
    57a2:	4640      	mov	r0, r8
    57a4:	4649      	mov	r1, r9
    57a6:	2200      	movs	r2, #0
    57a8:	4b71      	ldr	r3, [pc, #452]	; (5970 <_dtoa_r+0x5f8>)
    57aa:	f001 fe75 	bl	7498 <__aeabi_dsub>
    57ae:	9a02      	ldr	r2, [sp, #8]
    57b0:	4623      	mov	r3, r4
    57b2:	4680      	mov	r8, r0
    57b4:	4689      	mov	r9, r1
    57b6:	f002 fab3 	bl	7d20 <__aeabi_dcmpgt>
    57ba:	2800      	cmp	r0, #0
    57bc:	f040 8240 	bne.w	5c40 <_dtoa_r+0x8c8>
    57c0:	4640      	mov	r0, r8
    57c2:	4649      	mov	r1, r9
    57c4:	9a02      	ldr	r2, [sp, #8]
    57c6:	f104 4300 	add.w	r3, r4, #2147483648	; 0x80000000
    57ca:	f002 fa8b 	bl	7ce4 <__aeabi_dcmplt>
    57ce:	2800      	cmp	r0, #0
    57d0:	f040 8230 	bne.w	5c34 <_dtoa_r+0x8bc>
    57d4:	e098      	b.n	5908 <_dtoa_r+0x590>
    57d6:	4b61      	ldr	r3, [pc, #388]	; (595c <_dtoa_r+0x5e4>)
    57d8:	990c      	ldr	r1, [sp, #48]	; 0x30
    57da:	1e6a      	subs	r2, r5, #1
    57dc:	eb03 03c2 	add.w	r3, r3, r2, lsl #3
    57e0:	2900      	cmp	r1, #0
    57e2:	d047      	beq.n	5874 <_dtoa_r+0x4fc>
    57e4:	e9d3 2300 	ldrd	r2, r3, [r3]
    57e8:	2000      	movs	r0, #0
    57ea:	4962      	ldr	r1, [pc, #392]	; (5974 <_dtoa_r+0x5fc>)
    57ec:	f002 f932 	bl	7a54 <__aeabi_ddiv>
    57f0:	e9dd 2302 	ldrd	r2, r3, [sp, #8]
    57f4:	f001 fe50 	bl	7498 <__aeabi_dsub>
    57f8:	e9cd 0102 	strd	r0, r1, [sp, #8]
    57fc:	9c08      	ldr	r4, [sp, #32]
    57fe:	4649      	mov	r1, r9
    5800:	4640      	mov	r0, r8
    5802:	f002 fa97 	bl	7d34 <__aeabi_d2iz>
    5806:	4607      	mov	r7, r0
    5808:	f001 ff94 	bl	7734 <__aeabi_i2d>
    580c:	4602      	mov	r2, r0
    580e:	460b      	mov	r3, r1
    5810:	4640      	mov	r0, r8
    5812:	4649      	mov	r1, r9
    5814:	f001 fe40 	bl	7498 <__aeabi_dsub>
    5818:	e9dd 2302 	ldrd	r2, r3, [sp, #8]
    581c:	3730      	adds	r7, #48	; 0x30
    581e:	f804 7b01 	strb.w	r7, [r4], #1
    5822:	4680      	mov	r8, r0
    5824:	4689      	mov	r9, r1
    5826:	f002 fa5d 	bl	7ce4 <__aeabi_dcmplt>
    582a:	2800      	cmp	r0, #0
    582c:	f040 8337 	bne.w	5e9e <_dtoa_r+0xb26>
    5830:	4642      	mov	r2, r8
    5832:	464b      	mov	r3, r9
    5834:	2000      	movs	r0, #0
    5836:	494b      	ldr	r1, [pc, #300]	; (5964 <_dtoa_r+0x5ec>)
    5838:	f001 fe2e 	bl	7498 <__aeabi_dsub>
    583c:	e9dd 2302 	ldrd	r2, r3, [sp, #8]
    5840:	f002 fa50 	bl	7ce4 <__aeabi_dcmplt>
    5844:	2800      	cmp	r0, #0
    5846:	f040 80d0 	bne.w	59ea <_dtoa_r+0x672>
    584a:	9b08      	ldr	r3, [sp, #32]
    584c:	1ae3      	subs	r3, r4, r3
    584e:	42ab      	cmp	r3, r5
    5850:	da5a      	bge.n	5908 <_dtoa_r+0x590>
    5852:	e9dd 0102 	ldrd	r0, r1, [sp, #8]
    5856:	2200      	movs	r2, #0
    5858:	4b43      	ldr	r3, [pc, #268]	; (5968 <_dtoa_r+0x5f0>)
    585a:	f001 ffd1 	bl	7800 <__aeabi_dmul>
    585e:	2200      	movs	r2, #0
    5860:	e9cd 0102 	strd	r0, r1, [sp, #8]
    5864:	4b40      	ldr	r3, [pc, #256]	; (5968 <_dtoa_r+0x5f0>)
    5866:	4640      	mov	r0, r8
    5868:	4649      	mov	r1, r9
    586a:	f001 ffc9 	bl	7800 <__aeabi_dmul>
    586e:	4680      	mov	r8, r0
    5870:	4689      	mov	r9, r1
    5872:	e7c4      	b.n	57fe <_dtoa_r+0x486>
    5874:	e9d3 0100 	ldrd	r0, r1, [r3]
    5878:	e9dd 2302 	ldrd	r2, r3, [sp, #8]
    587c:	f001 ffc0 	bl	7800 <__aeabi_dmul>
    5880:	9b08      	ldr	r3, [sp, #32]
    5882:	e9cd 0102 	strd	r0, r1, [sp, #8]
    5886:	195c      	adds	r4, r3, r5
    5888:	461d      	mov	r5, r3
    588a:	4649      	mov	r1, r9
    588c:	4640      	mov	r0, r8
    588e:	f002 fa51 	bl	7d34 <__aeabi_d2iz>
    5892:	4607      	mov	r7, r0
    5894:	f001 ff4e 	bl	7734 <__aeabi_i2d>
    5898:	4602      	mov	r2, r0
    589a:	460b      	mov	r3, r1
    589c:	4640      	mov	r0, r8
    589e:	4649      	mov	r1, r9
    58a0:	f001 fdfa 	bl	7498 <__aeabi_dsub>
    58a4:	3730      	adds	r7, #48	; 0x30
    58a6:	f805 7b01 	strb.w	r7, [r5], #1
    58aa:	42a5      	cmp	r5, r4
    58ac:	4680      	mov	r8, r0
    58ae:	4689      	mov	r9, r1
    58b0:	d123      	bne.n	58fa <_dtoa_r+0x582>
    58b2:	2200      	movs	r2, #0
    58b4:	4b2f      	ldr	r3, [pc, #188]	; (5974 <_dtoa_r+0x5fc>)
    58b6:	e9dd 0102 	ldrd	r0, r1, [sp, #8]
    58ba:	f001 fdef 	bl	749c <__adddf3>
    58be:	4602      	mov	r2, r0
    58c0:	460b      	mov	r3, r1
    58c2:	4640      	mov	r0, r8
    58c4:	4649      	mov	r1, r9
    58c6:	f002 fa2b 	bl	7d20 <__aeabi_dcmpgt>
    58ca:	2800      	cmp	r0, #0
    58cc:	f040 808d 	bne.w	59ea <_dtoa_r+0x672>
    58d0:	e9dd 2302 	ldrd	r2, r3, [sp, #8]
    58d4:	2000      	movs	r0, #0
    58d6:	4927      	ldr	r1, [pc, #156]	; (5974 <_dtoa_r+0x5fc>)
    58d8:	f001 fdde 	bl	7498 <__aeabi_dsub>
    58dc:	4602      	mov	r2, r0
    58de:	460b      	mov	r3, r1
    58e0:	4640      	mov	r0, r8
    58e2:	4649      	mov	r1, r9
    58e4:	f002 f9fe 	bl	7ce4 <__aeabi_dcmplt>
    58e8:	b170      	cbz	r0, 5908 <_dtoa_r+0x590>
    58ea:	f814 3c01 	ldrb.w	r3, [r4, #-1]
    58ee:	1e62      	subs	r2, r4, #1
    58f0:	2b30      	cmp	r3, #48	; 0x30
    58f2:	f040 82d4 	bne.w	5e9e <_dtoa_r+0xb26>
    58f6:	4614      	mov	r4, r2
    58f8:	e7f7      	b.n	58ea <_dtoa_r+0x572>
    58fa:	2200      	movs	r2, #0
    58fc:	4b1a      	ldr	r3, [pc, #104]	; (5968 <_dtoa_r+0x5f0>)
    58fe:	f001 ff7f 	bl	7800 <__aeabi_dmul>
    5902:	4680      	mov	r8, r0
    5904:	4689      	mov	r9, r1
    5906:	e7c0      	b.n	588a <_dtoa_r+0x512>
    5908:	e9dd 230e 	ldrd	r2, r3, [sp, #56]	; 0x38
    590c:	e9cd 2302 	strd	r2, r3, [sp, #8]
    5910:	9b13      	ldr	r3, [sp, #76]	; 0x4c
    5912:	2b00      	cmp	r3, #0
    5914:	f2c0 808a 	blt.w	5a2c <_dtoa_r+0x6b4>
    5918:	f1bb 0f0e 	cmp.w	fp, #14
    591c:	f300 8086 	bgt.w	5a2c <_dtoa_r+0x6b4>
    5920:	4b0e      	ldr	r3, [pc, #56]	; (595c <_dtoa_r+0x5e4>)
    5922:	eb03 03cb 	add.w	r3, r3, fp, lsl #3
    5926:	e9d3 6700 	ldrd	r6, r7, [r3]
    592a:	9b1f      	ldr	r3, [sp, #124]	; 0x7c
    592c:	2b00      	cmp	r3, #0
    592e:	da23      	bge.n	5978 <_dtoa_r+0x600>
    5930:	9b05      	ldr	r3, [sp, #20]
    5932:	2b00      	cmp	r3, #0
    5934:	dc20      	bgt.n	5978 <_dtoa_r+0x600>
    5936:	f040 817c 	bne.w	5c32 <_dtoa_r+0x8ba>
    593a:	4630      	mov	r0, r6
    593c:	2200      	movs	r2, #0
    593e:	4b0c      	ldr	r3, [pc, #48]	; (5970 <_dtoa_r+0x5f8>)
    5940:	4639      	mov	r1, r7
    5942:	f001 ff5d 	bl	7800 <__aeabi_dmul>
    5946:	e9dd 2302 	ldrd	r2, r3, [sp, #8]
    594a:	f002 f9df 	bl	7d0c <__aeabi_dcmpge>
    594e:	9d05      	ldr	r5, [sp, #20]
    5950:	462e      	mov	r6, r5
    5952:	2800      	cmp	r0, #0
    5954:	f040 816f 	bne.w	5c36 <_dtoa_r+0x8be>
    5958:	e174      	b.n	5c44 <_dtoa_r+0x8cc>
    595a:	bf00      	nop
    595c:	000087a0 	.word	0x000087a0
    5960:	00008868 	.word	0x00008868
    5964:	3ff00000 	.word	0x3ff00000
    5968:	40240000 	.word	0x40240000
    596c:	401c0000 	.word	0x401c0000
    5970:	40140000 	.word	0x40140000
    5974:	3fe00000 	.word	0x3fe00000
    5978:	9c08      	ldr	r4, [sp, #32]
    597a:	e9dd 8902 	ldrd	r8, r9, [sp, #8]
    597e:	4632      	mov	r2, r6
    5980:	463b      	mov	r3, r7
    5982:	4640      	mov	r0, r8
    5984:	4649      	mov	r1, r9
    5986:	f002 f865 	bl	7a54 <__aeabi_ddiv>
    598a:	f002 f9d3 	bl	7d34 <__aeabi_d2iz>
    598e:	4605      	mov	r5, r0
    5990:	f001 fed0 	bl	7734 <__aeabi_i2d>
    5994:	4632      	mov	r2, r6
    5996:	463b      	mov	r3, r7
    5998:	f001 ff32 	bl	7800 <__aeabi_dmul>
    599c:	460b      	mov	r3, r1
    599e:	4602      	mov	r2, r0
    59a0:	4649      	mov	r1, r9
    59a2:	4640      	mov	r0, r8
    59a4:	f001 fd78 	bl	7498 <__aeabi_dsub>
    59a8:	f105 0e30 	add.w	lr, r5, #48	; 0x30
    59ac:	9b08      	ldr	r3, [sp, #32]
    59ae:	f804 eb01 	strb.w	lr, [r4], #1
    59b2:	ebc3 0e04 	rsb	lr, r3, r4
    59b6:	9b05      	ldr	r3, [sp, #20]
    59b8:	459e      	cmp	lr, r3
    59ba:	d12a      	bne.n	5a12 <_dtoa_r+0x69a>
    59bc:	4602      	mov	r2, r0
    59be:	460b      	mov	r3, r1
    59c0:	f001 fd6c 	bl	749c <__adddf3>
    59c4:	4632      	mov	r2, r6
    59c6:	463b      	mov	r3, r7
    59c8:	4680      	mov	r8, r0
    59ca:	4689      	mov	r9, r1
    59cc:	f002 f9a8 	bl	7d20 <__aeabi_dcmpgt>
    59d0:	b970      	cbnz	r0, 59f0 <_dtoa_r+0x678>
    59d2:	4640      	mov	r0, r8
    59d4:	4649      	mov	r1, r9
    59d6:	4632      	mov	r2, r6
    59d8:	463b      	mov	r3, r7
    59da:	f002 f979 	bl	7cd0 <__aeabi_dcmpeq>
    59de:	2800      	cmp	r0, #0
    59e0:	f000 825e 	beq.w	5ea0 <_dtoa_r+0xb28>
    59e4:	07eb      	lsls	r3, r5, #31
    59e6:	d403      	bmi.n	59f0 <_dtoa_r+0x678>
    59e8:	e25a      	b.n	5ea0 <_dtoa_r+0xb28>
    59ea:	46b3      	mov	fp, r6
    59ec:	e000      	b.n	59f0 <_dtoa_r+0x678>
    59ee:	461c      	mov	r4, r3
    59f0:	f814 2c01 	ldrb.w	r2, [r4, #-1]
    59f4:	1e63      	subs	r3, r4, #1
    59f6:	2a39      	cmp	r2, #57	; 0x39
    59f8:	d107      	bne.n	5a0a <_dtoa_r+0x692>
    59fa:	9a08      	ldr	r2, [sp, #32]
    59fc:	4293      	cmp	r3, r2
    59fe:	d1f6      	bne.n	59ee <_dtoa_r+0x676>
    5a00:	2330      	movs	r3, #48	; 0x30
    5a02:	7013      	strb	r3, [r2, #0]
    5a04:	4613      	mov	r3, r2
    5a06:	f10b 0b01 	add.w	fp, fp, #1
    5a0a:	781a      	ldrb	r2, [r3, #0]
    5a0c:	3201      	adds	r2, #1
    5a0e:	701a      	strb	r2, [r3, #0]
    5a10:	e246      	b.n	5ea0 <_dtoa_r+0xb28>
    5a12:	2200      	movs	r2, #0
    5a14:	4ba3      	ldr	r3, [pc, #652]	; (5ca4 <_dtoa_r+0x92c>)
    5a16:	f001 fef3 	bl	7800 <__aeabi_dmul>
    5a1a:	2200      	movs	r2, #0
    5a1c:	2300      	movs	r3, #0
    5a1e:	4680      	mov	r8, r0
    5a20:	4689      	mov	r9, r1
    5a22:	f002 f955 	bl	7cd0 <__aeabi_dcmpeq>
    5a26:	2800      	cmp	r0, #0
    5a28:	d0a9      	beq.n	597e <_dtoa_r+0x606>
    5a2a:	e239      	b.n	5ea0 <_dtoa_r+0xb28>
    5a2c:	9a0c      	ldr	r2, [sp, #48]	; 0x30
    5a2e:	2a00      	cmp	r2, #0
    5a30:	d032      	beq.n	5a98 <_dtoa_r+0x720>
    5a32:	9a1e      	ldr	r2, [sp, #120]	; 0x78
    5a34:	2a01      	cmp	r2, #1
    5a36:	dc0a      	bgt.n	5a4e <_dtoa_r+0x6d6>
    5a38:	9a11      	ldr	r2, [sp, #68]	; 0x44
    5a3a:	b112      	cbz	r2, 5a42 <_dtoa_r+0x6ca>
    5a3c:	f203 4333 	addw	r3, r3, #1075	; 0x433
    5a40:	e002      	b.n	5a48 <_dtoa_r+0x6d0>
    5a42:	9b12      	ldr	r3, [sp, #72]	; 0x48
    5a44:	f1c3 0336 	rsb	r3, r3, #54	; 0x36
    5a48:	9d0b      	ldr	r5, [sp, #44]	; 0x2c
    5a4a:	9c09      	ldr	r4, [sp, #36]	; 0x24
    5a4c:	e018      	b.n	5a80 <_dtoa_r+0x708>
    5a4e:	9b05      	ldr	r3, [sp, #20]
    5a50:	1e5d      	subs	r5, r3, #1
    5a52:	9b0b      	ldr	r3, [sp, #44]	; 0x2c
    5a54:	42ab      	cmp	r3, r5
    5a56:	bfb7      	itett	lt
    5a58:	9b0b      	ldrlt	r3, [sp, #44]	; 0x2c
    5a5a:	1b5d      	subge	r5, r3, r5
    5a5c:	1aea      	sublt	r2, r5, r3
    5a5e:	9b0d      	ldrlt	r3, [sp, #52]	; 0x34
    5a60:	bfbe      	ittt	lt
    5a62:	950b      	strlt	r5, [sp, #44]	; 0x2c
    5a64:	189b      	addlt	r3, r3, r2
    5a66:	930d      	strlt	r3, [sp, #52]	; 0x34
    5a68:	9b05      	ldr	r3, [sp, #20]
    5a6a:	bfb8      	it	lt
    5a6c:	2500      	movlt	r5, #0
    5a6e:	2b00      	cmp	r3, #0
    5a70:	bfb9      	ittee	lt
    5a72:	9b09      	ldrlt	r3, [sp, #36]	; 0x24
    5a74:	9a05      	ldrlt	r2, [sp, #20]
    5a76:	9c09      	ldrge	r4, [sp, #36]	; 0x24
    5a78:	9b05      	ldrge	r3, [sp, #20]
    5a7a:	bfbc      	itt	lt
    5a7c:	1a9c      	sublt	r4, r3, r2
    5a7e:	2300      	movlt	r3, #0
    5a80:	9a09      	ldr	r2, [sp, #36]	; 0x24
    5a82:	4650      	mov	r0, sl
    5a84:	441a      	add	r2, r3
    5a86:	9209      	str	r2, [sp, #36]	; 0x24
    5a88:	9a0a      	ldr	r2, [sp, #40]	; 0x28
    5a8a:	2101      	movs	r1, #1
    5a8c:	441a      	add	r2, r3
    5a8e:	920a      	str	r2, [sp, #40]	; 0x28
    5a90:	f000 fedc 	bl	684c <__i2b>
    5a94:	4606      	mov	r6, r0
    5a96:	e002      	b.n	5a9e <_dtoa_r+0x726>
    5a98:	9d0b      	ldr	r5, [sp, #44]	; 0x2c
    5a9a:	9c09      	ldr	r4, [sp, #36]	; 0x24
    5a9c:	9e0c      	ldr	r6, [sp, #48]	; 0x30
    5a9e:	b164      	cbz	r4, 5aba <_dtoa_r+0x742>
    5aa0:	9b0a      	ldr	r3, [sp, #40]	; 0x28
    5aa2:	2b00      	cmp	r3, #0
    5aa4:	dd09      	ble.n	5aba <_dtoa_r+0x742>
    5aa6:	42a3      	cmp	r3, r4
    5aa8:	bfa8      	it	ge
    5aaa:	4623      	movge	r3, r4
    5aac:	9a09      	ldr	r2, [sp, #36]	; 0x24
    5aae:	1ae4      	subs	r4, r4, r3
    5ab0:	1ad2      	subs	r2, r2, r3
    5ab2:	9209      	str	r2, [sp, #36]	; 0x24
    5ab4:	9a0a      	ldr	r2, [sp, #40]	; 0x28
    5ab6:	1ad3      	subs	r3, r2, r3
    5ab8:	930a      	str	r3, [sp, #40]	; 0x28
    5aba:	9b0b      	ldr	r3, [sp, #44]	; 0x2c
    5abc:	2b00      	cmp	r3, #0
    5abe:	dd20      	ble.n	5b02 <_dtoa_r+0x78a>
    5ac0:	9b0c      	ldr	r3, [sp, #48]	; 0x30
    5ac2:	b1c3      	cbz	r3, 5af6 <_dtoa_r+0x77e>
    5ac4:	2d00      	cmp	r5, #0
    5ac6:	dd10      	ble.n	5aea <_dtoa_r+0x772>
    5ac8:	4631      	mov	r1, r6
    5aca:	462a      	mov	r2, r5
    5acc:	4650      	mov	r0, sl
    5ace:	f000 ff57 	bl	6980 <__pow5mult>
    5ad2:	4606      	mov	r6, r0
    5ad4:	9a07      	ldr	r2, [sp, #28]
    5ad6:	4631      	mov	r1, r6
    5ad8:	4650      	mov	r0, sl
    5ada:	f000 fec0 	bl	685e <__multiply>
    5ade:	4607      	mov	r7, r0
    5ae0:	9907      	ldr	r1, [sp, #28]
    5ae2:	4650      	mov	r0, sl
    5ae4:	f000 fdd0 	bl	6688 <_Bfree>
    5ae8:	9707      	str	r7, [sp, #28]
    5aea:	9b0b      	ldr	r3, [sp, #44]	; 0x2c
    5aec:	1b5a      	subs	r2, r3, r5
    5aee:	d008      	beq.n	5b02 <_dtoa_r+0x78a>
    5af0:	4650      	mov	r0, sl
    5af2:	9907      	ldr	r1, [sp, #28]
    5af4:	e002      	b.n	5afc <_dtoa_r+0x784>
    5af6:	4650      	mov	r0, sl
    5af8:	9907      	ldr	r1, [sp, #28]
    5afa:	9a0b      	ldr	r2, [sp, #44]	; 0x2c
    5afc:	f000 ff40 	bl	6980 <__pow5mult>
    5b00:	9007      	str	r0, [sp, #28]
    5b02:	4650      	mov	r0, sl
    5b04:	2101      	movs	r1, #1
    5b06:	f000 fea1 	bl	684c <__i2b>
    5b0a:	9b0d      	ldr	r3, [sp, #52]	; 0x34
    5b0c:	4605      	mov	r5, r0
    5b0e:	2b00      	cmp	r3, #0
    5b10:	dd0a      	ble.n	5b28 <_dtoa_r+0x7b0>
    5b12:	4629      	mov	r1, r5
    5b14:	461a      	mov	r2, r3
    5b16:	4650      	mov	r0, sl
    5b18:	f000 ff32 	bl	6980 <__pow5mult>
    5b1c:	9b1e      	ldr	r3, [sp, #120]	; 0x78
    5b1e:	4605      	mov	r5, r0
    5b20:	2b01      	cmp	r3, #1
    5b22:	dd04      	ble.n	5b2e <_dtoa_r+0x7b6>
    5b24:	2700      	movs	r7, #0
    5b26:	e01b      	b.n	5b60 <_dtoa_r+0x7e8>
    5b28:	9b1e      	ldr	r3, [sp, #120]	; 0x78
    5b2a:	2b01      	cmp	r3, #1
    5b2c:	dc13      	bgt.n	5b56 <_dtoa_r+0x7de>
    5b2e:	9b02      	ldr	r3, [sp, #8]
    5b30:	b98b      	cbnz	r3, 5b56 <_dtoa_r+0x7de>
    5b32:	9b03      	ldr	r3, [sp, #12]
    5b34:	f3c3 0313 	ubfx	r3, r3, #0, #20
    5b38:	b97b      	cbnz	r3, 5b5a <_dtoa_r+0x7e2>
    5b3a:	9b03      	ldr	r3, [sp, #12]
    5b3c:	f023 4700 	bic.w	r7, r3, #2147483648	; 0x80000000
    5b40:	0d3f      	lsrs	r7, r7, #20
    5b42:	053f      	lsls	r7, r7, #20
    5b44:	b157      	cbz	r7, 5b5c <_dtoa_r+0x7e4>
    5b46:	9b09      	ldr	r3, [sp, #36]	; 0x24
    5b48:	2701      	movs	r7, #1
    5b4a:	3301      	adds	r3, #1
    5b4c:	9309      	str	r3, [sp, #36]	; 0x24
    5b4e:	9b0a      	ldr	r3, [sp, #40]	; 0x28
    5b50:	3301      	adds	r3, #1
    5b52:	930a      	str	r3, [sp, #40]	; 0x28
    5b54:	e002      	b.n	5b5c <_dtoa_r+0x7e4>
    5b56:	2700      	movs	r7, #0
    5b58:	e000      	b.n	5b5c <_dtoa_r+0x7e4>
    5b5a:	9f02      	ldr	r7, [sp, #8]
    5b5c:	9b0d      	ldr	r3, [sp, #52]	; 0x34
    5b5e:	b143      	cbz	r3, 5b72 <_dtoa_r+0x7fa>
    5b60:	692b      	ldr	r3, [r5, #16]
    5b62:	eb05 0383 	add.w	r3, r5, r3, lsl #2
    5b66:	6918      	ldr	r0, [r3, #16]
    5b68:	f000 fe23 	bl	67b2 <__hi0bits>
    5b6c:	f1c0 0020 	rsb	r0, r0, #32
    5b70:	e000      	b.n	5b74 <_dtoa_r+0x7fc>
    5b72:	2001      	movs	r0, #1
    5b74:	9b0a      	ldr	r3, [sp, #40]	; 0x28
    5b76:	4418      	add	r0, r3
    5b78:	f010 001f 	ands.w	r0, r0, #31
    5b7c:	d008      	beq.n	5b90 <_dtoa_r+0x818>
    5b7e:	f1c0 0320 	rsb	r3, r0, #32
    5b82:	2b04      	cmp	r3, #4
    5b84:	dd02      	ble.n	5b8c <_dtoa_r+0x814>
    5b86:	f1c0 001c 	rsb	r0, r0, #28
    5b8a:	e002      	b.n	5b92 <_dtoa_r+0x81a>
    5b8c:	d008      	beq.n	5ba0 <_dtoa_r+0x828>
    5b8e:	4618      	mov	r0, r3
    5b90:	301c      	adds	r0, #28
    5b92:	9b09      	ldr	r3, [sp, #36]	; 0x24
    5b94:	4404      	add	r4, r0
    5b96:	4403      	add	r3, r0
    5b98:	9309      	str	r3, [sp, #36]	; 0x24
    5b9a:	9b0a      	ldr	r3, [sp, #40]	; 0x28
    5b9c:	4403      	add	r3, r0
    5b9e:	930a      	str	r3, [sp, #40]	; 0x28
    5ba0:	9b09      	ldr	r3, [sp, #36]	; 0x24
    5ba2:	2b00      	cmp	r3, #0
    5ba4:	dd05      	ble.n	5bb2 <_dtoa_r+0x83a>
    5ba6:	4650      	mov	r0, sl
    5ba8:	9907      	ldr	r1, [sp, #28]
    5baa:	461a      	mov	r2, r3
    5bac:	f000 ff36 	bl	6a1c <__lshift>
    5bb0:	9007      	str	r0, [sp, #28]
    5bb2:	9b0a      	ldr	r3, [sp, #40]	; 0x28
    5bb4:	2b00      	cmp	r3, #0
    5bb6:	dd05      	ble.n	5bc4 <_dtoa_r+0x84c>
    5bb8:	4629      	mov	r1, r5
    5bba:	4650      	mov	r0, sl
    5bbc:	461a      	mov	r2, r3
    5bbe:	f000 ff2d 	bl	6a1c <__lshift>
    5bc2:	4605      	mov	r5, r0
    5bc4:	9b10      	ldr	r3, [sp, #64]	; 0x40
    5bc6:	b1eb      	cbz	r3, 5c04 <_dtoa_r+0x88c>
    5bc8:	9807      	ldr	r0, [sp, #28]
    5bca:	4629      	mov	r1, r5
    5bcc:	f000 ff79 	bl	6ac2 <__mcmp>
    5bd0:	2800      	cmp	r0, #0
    5bd2:	da17      	bge.n	5c04 <_dtoa_r+0x88c>
    5bd4:	2300      	movs	r3, #0
    5bd6:	4650      	mov	r0, sl
    5bd8:	9907      	ldr	r1, [sp, #28]
    5bda:	220a      	movs	r2, #10
    5bdc:	f000 fd6b 	bl	66b6 <__multadd>
    5be0:	9b0c      	ldr	r3, [sp, #48]	; 0x30
    5be2:	f10b 3bff 	add.w	fp, fp, #4294967295
    5be6:	9007      	str	r0, [sp, #28]
    5be8:	2b00      	cmp	r3, #0
    5bea:	f000 816b 	beq.w	5ec4 <_dtoa_r+0xb4c>
    5bee:	4631      	mov	r1, r6
    5bf0:	2300      	movs	r3, #0
    5bf2:	4650      	mov	r0, sl
    5bf4:	220a      	movs	r2, #10
    5bf6:	f000 fd5e 	bl	66b6 <__multadd>
    5bfa:	9b06      	ldr	r3, [sp, #24]
    5bfc:	4606      	mov	r6, r0
    5bfe:	2b00      	cmp	r3, #0
    5c00:	dc33      	bgt.n	5c6a <_dtoa_r+0x8f2>
    5c02:	e168      	b.n	5ed6 <_dtoa_r+0xb5e>
    5c04:	9b05      	ldr	r3, [sp, #20]
    5c06:	2b00      	cmp	r3, #0
    5c08:	dc26      	bgt.n	5c58 <_dtoa_r+0x8e0>
    5c0a:	9b1e      	ldr	r3, [sp, #120]	; 0x78
    5c0c:	2b02      	cmp	r3, #2
    5c0e:	dd23      	ble.n	5c58 <_dtoa_r+0x8e0>
    5c10:	9b05      	ldr	r3, [sp, #20]
    5c12:	9306      	str	r3, [sp, #24]
    5c14:	9b06      	ldr	r3, [sp, #24]
    5c16:	b973      	cbnz	r3, 5c36 <_dtoa_r+0x8be>
    5c18:	4629      	mov	r1, r5
    5c1a:	2205      	movs	r2, #5
    5c1c:	4650      	mov	r0, sl
    5c1e:	f000 fd4a 	bl	66b6 <__multadd>
    5c22:	4605      	mov	r5, r0
    5c24:	9807      	ldr	r0, [sp, #28]
    5c26:	4629      	mov	r1, r5
    5c28:	f000 ff4b 	bl	6ac2 <__mcmp>
    5c2c:	2800      	cmp	r0, #0
    5c2e:	dc09      	bgt.n	5c44 <_dtoa_r+0x8cc>
    5c30:	e001      	b.n	5c36 <_dtoa_r+0x8be>
    5c32:	2500      	movs	r5, #0
    5c34:	462e      	mov	r6, r5
    5c36:	9b1f      	ldr	r3, [sp, #124]	; 0x7c
    5c38:	9c08      	ldr	r4, [sp, #32]
    5c3a:	ea6f 0b03 	mvn.w	fp, r3
    5c3e:	e008      	b.n	5c52 <_dtoa_r+0x8da>
    5c40:	46b3      	mov	fp, r6
    5c42:	462e      	mov	r6, r5
    5c44:	9b08      	ldr	r3, [sp, #32]
    5c46:	9a08      	ldr	r2, [sp, #32]
    5c48:	1c5c      	adds	r4, r3, #1
    5c4a:	2331      	movs	r3, #49	; 0x31
    5c4c:	7013      	strb	r3, [r2, #0]
    5c4e:	f10b 0b01 	add.w	fp, fp, #1
    5c52:	46b1      	mov	r9, r6
    5c54:	2600      	movs	r6, #0
    5c56:	e10f      	b.n	5e78 <_dtoa_r+0xb00>
    5c58:	9b0c      	ldr	r3, [sp, #48]	; 0x30
    5c5a:	b923      	cbnz	r3, 5c66 <_dtoa_r+0x8ee>
    5c5c:	9b05      	ldr	r3, [sp, #20]
    5c5e:	9306      	str	r3, [sp, #24]
    5c60:	9f08      	ldr	r7, [sp, #32]
    5c62:	9c07      	ldr	r4, [sp, #28]
    5c64:	e0c9      	b.n	5dfa <_dtoa_r+0xa82>
    5c66:	9b05      	ldr	r3, [sp, #20]
    5c68:	9306      	str	r3, [sp, #24]
    5c6a:	2c00      	cmp	r4, #0
    5c6c:	dd05      	ble.n	5c7a <_dtoa_r+0x902>
    5c6e:	4631      	mov	r1, r6
    5c70:	4650      	mov	r0, sl
    5c72:	4622      	mov	r2, r4
    5c74:	f000 fed2 	bl	6a1c <__lshift>
    5c78:	4606      	mov	r6, r0
    5c7a:	b1af      	cbz	r7, 5ca8 <_dtoa_r+0x930>
    5c7c:	6871      	ldr	r1, [r6, #4]
    5c7e:	4650      	mov	r0, sl
    5c80:	f000 fccd 	bl	661e <_Balloc>
    5c84:	4604      	mov	r4, r0
    5c86:	6932      	ldr	r2, [r6, #16]
    5c88:	f106 010c 	add.w	r1, r6, #12
    5c8c:	3202      	adds	r2, #2
    5c8e:	0092      	lsls	r2, r2, #2
    5c90:	300c      	adds	r0, #12
    5c92:	f7fc fbb7 	bl	2404 <memcpy>
    5c96:	4650      	mov	r0, sl
    5c98:	4621      	mov	r1, r4
    5c9a:	2201      	movs	r2, #1
    5c9c:	f000 febe 	bl	6a1c <__lshift>
    5ca0:	4681      	mov	r9, r0
    5ca2:	e002      	b.n	5caa <_dtoa_r+0x932>
    5ca4:	40240000 	.word	0x40240000
    5ca8:	46b1      	mov	r9, r6
    5caa:	9f08      	ldr	r7, [sp, #32]
    5cac:	9c07      	ldr	r4, [sp, #28]
    5cae:	4629      	mov	r1, r5
    5cb0:	4620      	mov	r0, r4
    5cb2:	f7ff fad5 	bl	5260 <quorem>
    5cb6:	4631      	mov	r1, r6
    5cb8:	9009      	str	r0, [sp, #36]	; 0x24
    5cba:	f100 0830 	add.w	r8, r0, #48	; 0x30
    5cbe:	4620      	mov	r0, r4
    5cc0:	f000 feff 	bl	6ac2 <__mcmp>
    5cc4:	464a      	mov	r2, r9
    5cc6:	9005      	str	r0, [sp, #20]
    5cc8:	4629      	mov	r1, r5
    5cca:	4650      	mov	r0, sl
    5ccc:	f000 ff15 	bl	6afa <__mdiff>
    5cd0:	68c2      	ldr	r2, [r0, #12]
    5cd2:	4603      	mov	r3, r0
    5cd4:	b93a      	cbnz	r2, 5ce6 <_dtoa_r+0x96e>
    5cd6:	4619      	mov	r1, r3
    5cd8:	4620      	mov	r0, r4
    5cda:	9307      	str	r3, [sp, #28]
    5cdc:	f000 fef1 	bl	6ac2 <__mcmp>
    5ce0:	9b07      	ldr	r3, [sp, #28]
    5ce2:	4602      	mov	r2, r0
    5ce4:	e000      	b.n	5ce8 <_dtoa_r+0x970>
    5ce6:	2201      	movs	r2, #1
    5ce8:	4650      	mov	r0, sl
    5cea:	4619      	mov	r1, r3
    5cec:	9207      	str	r2, [sp, #28]
    5cee:	f000 fccb 	bl	6688 <_Bfree>
    5cf2:	9a07      	ldr	r2, [sp, #28]
    5cf4:	b992      	cbnz	r2, 5d1c <_dtoa_r+0x9a4>
    5cf6:	9b1e      	ldr	r3, [sp, #120]	; 0x78
    5cf8:	b983      	cbnz	r3, 5d1c <_dtoa_r+0x9a4>
    5cfa:	9b02      	ldr	r3, [sp, #8]
    5cfc:	f003 0301 	and.w	r3, r3, #1
    5d00:	b963      	cbnz	r3, 5d1c <_dtoa_r+0x9a4>
    5d02:	f1b8 0f39 	cmp.w	r8, #57	; 0x39
    5d06:	463b      	mov	r3, r7
    5d08:	9407      	str	r4, [sp, #28]
    5d0a:	d03e      	beq.n	5d8a <_dtoa_r+0xa12>
    5d0c:	9b05      	ldr	r3, [sp, #20]
    5d0e:	1c7c      	adds	r4, r7, #1
    5d10:	2b00      	cmp	r3, #0
    5d12:	bfc4      	itt	gt
    5d14:	9b09      	ldrgt	r3, [sp, #36]	; 0x24
    5d16:	f103 0831 	addgt.w	r8, r3, #49	; 0x31
    5d1a:	e03d      	b.n	5d98 <_dtoa_r+0xa20>
    5d1c:	9b05      	ldr	r3, [sp, #20]
    5d1e:	2b00      	cmp	r3, #0
    5d20:	da04      	bge.n	5d2c <_dtoa_r+0x9b4>
    5d22:	2a00      	cmp	r2, #0
    5d24:	46c4      	mov	ip, r8
    5d26:	9407      	str	r4, [sp, #28]
    5d28:	dc08      	bgt.n	5d3c <_dtoa_r+0x9c4>
    5d2a:	e021      	b.n	5d70 <_dtoa_r+0x9f8>
    5d2c:	d124      	bne.n	5d78 <_dtoa_r+0xa00>
    5d2e:	9b1e      	ldr	r3, [sp, #120]	; 0x78
    5d30:	bb13      	cbnz	r3, 5d78 <_dtoa_r+0xa00>
    5d32:	9b02      	ldr	r3, [sp, #8]
    5d34:	f003 0301 	and.w	r3, r3, #1
    5d38:	b9f3      	cbnz	r3, 5d78 <_dtoa_r+0xa00>
    5d3a:	e7f2      	b.n	5d22 <_dtoa_r+0x9aa>
    5d3c:	4621      	mov	r1, r4
    5d3e:	2201      	movs	r2, #1
    5d40:	4650      	mov	r0, sl
    5d42:	9705      	str	r7, [sp, #20]
    5d44:	f8cd 8008 	str.w	r8, [sp, #8]
    5d48:	f000 fe68 	bl	6a1c <__lshift>
    5d4c:	4629      	mov	r1, r5
    5d4e:	9007      	str	r0, [sp, #28]
    5d50:	f000 feb7 	bl	6ac2 <__mcmp>
    5d54:	2800      	cmp	r0, #0
    5d56:	f8dd c008 	ldr.w	ip, [sp, #8]
    5d5a:	9b05      	ldr	r3, [sp, #20]
    5d5c:	dc03      	bgt.n	5d66 <_dtoa_r+0x9ee>
    5d5e:	d107      	bne.n	5d70 <_dtoa_r+0x9f8>
    5d60:	f018 0f01 	tst.w	r8, #1
    5d64:	d004      	beq.n	5d70 <_dtoa_r+0x9f8>
    5d66:	f1b8 0f39 	cmp.w	r8, #57	; 0x39
    5d6a:	d00e      	beq.n	5d8a <_dtoa_r+0xa12>
    5d6c:	f108 0c01 	add.w	ip, r8, #1
    5d70:	1c7c      	adds	r4, r7, #1
    5d72:	f887 c000 	strb.w	ip, [r7]
    5d76:	e07f      	b.n	5e78 <_dtoa_r+0xb00>
    5d78:	2a00      	cmp	r2, #0
    5d7a:	f107 0201 	add.w	r2, r7, #1
    5d7e:	dd0e      	ble.n	5d9e <_dtoa_r+0xa26>
    5d80:	f1b8 0f39 	cmp.w	r8, #57	; 0x39
    5d84:	463b      	mov	r3, r7
    5d86:	9407      	str	r4, [sp, #28]
    5d88:	d103      	bne.n	5d92 <_dtoa_r+0xa1a>
    5d8a:	2239      	movs	r2, #57	; 0x39
    5d8c:	3701      	adds	r7, #1
    5d8e:	701a      	strb	r2, [r3, #0]
    5d90:	e057      	b.n	5e42 <_dtoa_r+0xaca>
    5d92:	4614      	mov	r4, r2
    5d94:	f108 0801 	add.w	r8, r8, #1
    5d98:	f887 8000 	strb.w	r8, [r7]
    5d9c:	e06c      	b.n	5e78 <_dtoa_r+0xb00>
    5d9e:	9b08      	ldr	r3, [sp, #32]
    5da0:	4617      	mov	r7, r2
    5da2:	1ad3      	subs	r3, r2, r3
    5da4:	f802 8c01 	strb.w	r8, [r2, #-1]
    5da8:	9a06      	ldr	r2, [sp, #24]
    5daa:	4293      	cmp	r3, r2
    5dac:	d03a      	beq.n	5e24 <_dtoa_r+0xaac>
    5dae:	4621      	mov	r1, r4
    5db0:	220a      	movs	r2, #10
    5db2:	2300      	movs	r3, #0
    5db4:	4650      	mov	r0, sl
    5db6:	f000 fc7e 	bl	66b6 <__multadd>
    5dba:	454e      	cmp	r6, r9
    5dbc:	4604      	mov	r4, r0
    5dbe:	4631      	mov	r1, r6
    5dc0:	4650      	mov	r0, sl
    5dc2:	f04f 020a 	mov.w	r2, #10
    5dc6:	f04f 0300 	mov.w	r3, #0
    5dca:	d104      	bne.n	5dd6 <_dtoa_r+0xa5e>
    5dcc:	f000 fc73 	bl	66b6 <__multadd>
    5dd0:	4606      	mov	r6, r0
    5dd2:	4681      	mov	r9, r0
    5dd4:	e76b      	b.n	5cae <_dtoa_r+0x936>
    5dd6:	f000 fc6e 	bl	66b6 <__multadd>
    5dda:	4649      	mov	r1, r9
    5ddc:	4606      	mov	r6, r0
    5dde:	220a      	movs	r2, #10
    5de0:	4650      	mov	r0, sl
    5de2:	2300      	movs	r3, #0
    5de4:	f000 fc67 	bl	66b6 <__multadd>
    5de8:	4681      	mov	r9, r0
    5dea:	e760      	b.n	5cae <_dtoa_r+0x936>
    5dec:	4621      	mov	r1, r4
    5dee:	4650      	mov	r0, sl
    5df0:	220a      	movs	r2, #10
    5df2:	2300      	movs	r3, #0
    5df4:	f000 fc5f 	bl	66b6 <__multadd>
    5df8:	4604      	mov	r4, r0
    5dfa:	4620      	mov	r0, r4
    5dfc:	4629      	mov	r1, r5
    5dfe:	f7ff fa2f 	bl	5260 <quorem>
    5e02:	9b08      	ldr	r3, [sp, #32]
    5e04:	f100 0830 	add.w	r8, r0, #48	; 0x30
    5e08:	f807 8b01 	strb.w	r8, [r7], #1
    5e0c:	9a06      	ldr	r2, [sp, #24]
    5e0e:	1afb      	subs	r3, r7, r3
    5e10:	4293      	cmp	r3, r2
    5e12:	dbeb      	blt.n	5dec <_dtoa_r+0xa74>
    5e14:	9b08      	ldr	r3, [sp, #32]
    5e16:	46b1      	mov	r9, r6
    5e18:	2a01      	cmp	r2, #1
    5e1a:	bfac      	ite	ge
    5e1c:	189b      	addge	r3, r3, r2
    5e1e:	3301      	addlt	r3, #1
    5e20:	461f      	mov	r7, r3
    5e22:	2600      	movs	r6, #0
    5e24:	4621      	mov	r1, r4
    5e26:	2201      	movs	r2, #1
    5e28:	4650      	mov	r0, sl
    5e2a:	f000 fdf7 	bl	6a1c <__lshift>
    5e2e:	4629      	mov	r1, r5
    5e30:	9007      	str	r0, [sp, #28]
    5e32:	f000 fe46 	bl	6ac2 <__mcmp>
    5e36:	2800      	cmp	r0, #0
    5e38:	dc03      	bgt.n	5e42 <_dtoa_r+0xaca>
    5e3a:	d115      	bne.n	5e68 <_dtoa_r+0xaf0>
    5e3c:	f018 0f01 	tst.w	r8, #1
    5e40:	d012      	beq.n	5e68 <_dtoa_r+0xaf0>
    5e42:	463c      	mov	r4, r7
    5e44:	f814 3c01 	ldrb.w	r3, [r4, #-1]
    5e48:	1e62      	subs	r2, r4, #1
    5e4a:	2b39      	cmp	r3, #57	; 0x39
    5e4c:	d109      	bne.n	5e62 <_dtoa_r+0xaea>
    5e4e:	9b08      	ldr	r3, [sp, #32]
    5e50:	429a      	cmp	r2, r3
    5e52:	d104      	bne.n	5e5e <_dtoa_r+0xae6>
    5e54:	f10b 0b01 	add.w	fp, fp, #1
    5e58:	2331      	movs	r3, #49	; 0x31
    5e5a:	9a08      	ldr	r2, [sp, #32]
    5e5c:	e002      	b.n	5e64 <_dtoa_r+0xaec>
    5e5e:	4614      	mov	r4, r2
    5e60:	e7f0      	b.n	5e44 <_dtoa_r+0xacc>
    5e62:	3301      	adds	r3, #1
    5e64:	7013      	strb	r3, [r2, #0]
    5e66:	e007      	b.n	5e78 <_dtoa_r+0xb00>
    5e68:	463c      	mov	r4, r7
    5e6a:	f814 3c01 	ldrb.w	r3, [r4, #-1]
    5e6e:	1e62      	subs	r2, r4, #1
    5e70:	2b30      	cmp	r3, #48	; 0x30
    5e72:	d101      	bne.n	5e78 <_dtoa_r+0xb00>
    5e74:	4614      	mov	r4, r2
    5e76:	e7f8      	b.n	5e6a <_dtoa_r+0xaf2>
    5e78:	4650      	mov	r0, sl
    5e7a:	4629      	mov	r1, r5
    5e7c:	f000 fc04 	bl	6688 <_Bfree>
    5e80:	f1b9 0f00 	cmp.w	r9, #0
    5e84:	d00c      	beq.n	5ea0 <_dtoa_r+0xb28>
    5e86:	b12e      	cbz	r6, 5e94 <_dtoa_r+0xb1c>
    5e88:	454e      	cmp	r6, r9
    5e8a:	d003      	beq.n	5e94 <_dtoa_r+0xb1c>
    5e8c:	4650      	mov	r0, sl
    5e8e:	4631      	mov	r1, r6
    5e90:	f000 fbfa 	bl	6688 <_Bfree>
    5e94:	4650      	mov	r0, sl
    5e96:	4649      	mov	r1, r9
    5e98:	f000 fbf6 	bl	6688 <_Bfree>
    5e9c:	e000      	b.n	5ea0 <_dtoa_r+0xb28>
    5e9e:	46b3      	mov	fp, r6
    5ea0:	4650      	mov	r0, sl
    5ea2:	9907      	ldr	r1, [sp, #28]
    5ea4:	f000 fbf0 	bl	6688 <_Bfree>
    5ea8:	2300      	movs	r3, #0
    5eaa:	9a20      	ldr	r2, [sp, #128]	; 0x80
    5eac:	7023      	strb	r3, [r4, #0]
    5eae:	f10b 0301 	add.w	r3, fp, #1
    5eb2:	6013      	str	r3, [r2, #0]
    5eb4:	9b22      	ldr	r3, [sp, #136]	; 0x88
    5eb6:	b11b      	cbz	r3, 5ec0 <_dtoa_r+0xb48>
    5eb8:	601c      	str	r4, [r3, #0]
    5eba:	e001      	b.n	5ec0 <_dtoa_r+0xb48>
    5ebc:	480a      	ldr	r0, [pc, #40]	; (5ee8 <_dtoa_r+0xb70>)
    5ebe:	e00f      	b.n	5ee0 <_dtoa_r+0xb68>
    5ec0:	9808      	ldr	r0, [sp, #32]
    5ec2:	e00d      	b.n	5ee0 <_dtoa_r+0xb68>
    5ec4:	9b06      	ldr	r3, [sp, #24]
    5ec6:	2b00      	cmp	r3, #0
    5ec8:	f73f aeca 	bgt.w	5c60 <_dtoa_r+0x8e8>
    5ecc:	9b1e      	ldr	r3, [sp, #120]	; 0x78
    5ece:	2b02      	cmp	r3, #2
    5ed0:	f73f aea0 	bgt.w	5c14 <_dtoa_r+0x89c>
    5ed4:	e6c4      	b.n	5c60 <_dtoa_r+0x8e8>
    5ed6:	9b1e      	ldr	r3, [sp, #120]	; 0x78
    5ed8:	2b02      	cmp	r3, #2
    5eda:	f73f ae9b 	bgt.w	5c14 <_dtoa_r+0x89c>
    5ede:	e6c4      	b.n	5c6a <_dtoa_r+0x8f2>
    5ee0:	b015      	add	sp, #84	; 0x54
    5ee2:	e8bd 8ff0 	ldmia.w	sp!, {r4, r5, r6, r7, r8, r9, sl, fp, pc}
    5ee6:	bf00      	nop
    5ee8:	0000862a 	.word	0x0000862a
    5eec:	f3af 8000 	nop.w

00005ef0 <__sflags>:
    5ef0:	780b      	ldrb	r3, [r1, #0]
    5ef2:	b530      	push	{r4, r5, lr}
    5ef4:	2b72      	cmp	r3, #114	; 0x72
    5ef6:	d00e      	beq.n	5f16 <__sflags+0x26>
    5ef8:	2b77      	cmp	r3, #119	; 0x77
    5efa:	d007      	beq.n	5f0c <__sflags+0x1c>
    5efc:	2b61      	cmp	r3, #97	; 0x61
    5efe:	d10e      	bne.n	5f1e <__sflags+0x2e>
    5f00:	f44f 7402 	mov.w	r4, #520	; 0x208
    5f04:	2301      	movs	r3, #1
    5f06:	f44f 7084 	mov.w	r0, #264	; 0x108
    5f0a:	e01a      	b.n	5f42 <__sflags+0x52>
    5f0c:	f44f 64c0 	mov.w	r4, #1536	; 0x600
    5f10:	2301      	movs	r3, #1
    5f12:	2008      	movs	r0, #8
    5f14:	e015      	b.n	5f42 <__sflags+0x52>
    5f16:	2400      	movs	r4, #0
    5f18:	4623      	mov	r3, r4
    5f1a:	2004      	movs	r0, #4
    5f1c:	e011      	b.n	5f42 <__sflags+0x52>
    5f1e:	2316      	movs	r3, #22
    5f20:	6003      	str	r3, [r0, #0]
    5f22:	2000      	movs	r0, #0
    5f24:	bd30      	pop	{r4, r5, pc}
    5f26:	2d62      	cmp	r5, #98	; 0x62
    5f28:	d010      	beq.n	5f4c <__sflags+0x5c>
    5f2a:	2d78      	cmp	r5, #120	; 0x78
    5f2c:	d011      	beq.n	5f52 <__sflags+0x62>
    5f2e:	2d2b      	cmp	r5, #43	; 0x2b
    5f30:	d107      	bne.n	5f42 <__sflags+0x52>
    5f32:	f020 001c 	bic.w	r0, r0, #28
    5f36:	f023 0303 	bic.w	r3, r3, #3
    5f3a:	f040 0010 	orr.w	r0, r0, #16
    5f3e:	f043 0302 	orr.w	r3, r3, #2
    5f42:	f811 5f01 	ldrb.w	r5, [r1, #1]!
    5f46:	2d00      	cmp	r5, #0
    5f48:	d1ed      	bne.n	5f26 <__sflags+0x36>
    5f4a:	e005      	b.n	5f58 <__sflags+0x68>
    5f4c:	f443 3380 	orr.w	r3, r3, #65536	; 0x10000
    5f50:	e7f7      	b.n	5f42 <__sflags+0x52>
    5f52:	f443 6300 	orr.w	r3, r3, #2048	; 0x800
    5f56:	e7f4      	b.n	5f42 <__sflags+0x52>
    5f58:	4323      	orrs	r3, r4
    5f5a:	6013      	str	r3, [r2, #0]
    5f5c:	bd30      	pop	{r4, r5, pc}
	...

00005f60 <_fstat_r>:
    5f60:	b538      	push	{r3, r4, r5, lr}
    5f62:	4c07      	ldr	r4, [pc, #28]	; (5f80 <_fstat_r+0x20>)
    5f64:	2300      	movs	r3, #0
    5f66:	4605      	mov	r5, r0
    5f68:	4608      	mov	r0, r1
    5f6a:	4611      	mov	r1, r2
    5f6c:	6023      	str	r3, [r4, #0]
    5f6e:	f7fa fce1 	bl	934 <_fstat>
    5f72:	1c43      	adds	r3, r0, #1
    5f74:	d102      	bne.n	5f7c <_fstat_r+0x1c>
    5f76:	6823      	ldr	r3, [r4, #0]
    5f78:	b103      	cbz	r3, 5f7c <_fstat_r+0x1c>
    5f7a:	602b      	str	r3, [r5, #0]
    5f7c:	bd38      	pop	{r3, r4, r5, pc}
    5f7e:	bf00      	nop
    5f80:	10000484 	.word	0x10000484

00005f84 <rshift>:
    5f84:	b5f0      	push	{r4, r5, r6, r7, lr}
    5f86:	6906      	ldr	r6, [r0, #16]
    5f88:	114b      	asrs	r3, r1, #5
    5f8a:	42b3      	cmp	r3, r6
    5f8c:	f100 0514 	add.w	r5, r0, #20
    5f90:	da27      	bge.n	5fe2 <rshift+0x5e>
    5f92:	f011 011f 	ands.w	r1, r1, #31
    5f96:	eb05 0686 	add.w	r6, r5, r6, lsl #2
    5f9a:	eb05 0283 	add.w	r2, r5, r3, lsl #2
    5f9e:	d101      	bne.n	5fa4 <rshift+0x20>
    5fa0:	4629      	mov	r1, r5
    5fa2:	e016      	b.n	5fd2 <rshift+0x4e>
    5fa4:	1d14      	adds	r4, r2, #4
    5fa6:	f855 2023 	ldr.w	r2, [r5, r3, lsl #2]
    5faa:	462b      	mov	r3, r5
    5fac:	f1c1 0e20 	rsb	lr, r1, #32
    5fb0:	40ca      	lsrs	r2, r1
    5fb2:	42b4      	cmp	r4, r6
    5fb4:	d209      	bcs.n	5fca <rshift+0x46>
    5fb6:	6827      	ldr	r7, [r4, #0]
    5fb8:	fa07 f70e 	lsl.w	r7, r7, lr
    5fbc:	433a      	orrs	r2, r7
    5fbe:	f843 2b04 	str.w	r2, [r3], #4
    5fc2:	f854 2b04 	ldr.w	r2, [r4], #4
    5fc6:	40ca      	lsrs	r2, r1
    5fc8:	e7f3      	b.n	5fb2 <rshift+0x2e>
    5fca:	601a      	str	r2, [r3, #0]
    5fcc:	b152      	cbz	r2, 5fe4 <rshift+0x60>
    5fce:	3304      	adds	r3, #4
    5fd0:	e008      	b.n	5fe4 <rshift+0x60>
    5fd2:	42b2      	cmp	r2, r6
    5fd4:	460b      	mov	r3, r1
    5fd6:	d205      	bcs.n	5fe4 <rshift+0x60>
    5fd8:	f852 3b04 	ldr.w	r3, [r2], #4
    5fdc:	f841 3b04 	str.w	r3, [r1], #4
    5fe0:	e7f7      	b.n	5fd2 <rshift+0x4e>
    5fe2:	462b      	mov	r3, r5
    5fe4:	1b5b      	subs	r3, r3, r5
    5fe6:	109b      	asrs	r3, r3, #2
    5fe8:	6103      	str	r3, [r0, #16]
    5fea:	b903      	cbnz	r3, 5fee <rshift+0x6a>
    5fec:	6143      	str	r3, [r0, #20]
    5fee:	bdf0      	pop	{r4, r5, r6, r7, pc}

00005ff0 <__hexdig_fun>:
    5ff0:	f1a0 0330 	sub.w	r3, r0, #48	; 0x30
    5ff4:	2b09      	cmp	r3, #9
    5ff6:	d801      	bhi.n	5ffc <__hexdig_fun+0xc>
    5ff8:	3820      	subs	r0, #32
    5ffa:	e00a      	b.n	6012 <__hexdig_fun+0x22>
    5ffc:	f1a0 0361 	sub.w	r3, r0, #97	; 0x61
    6000:	2b05      	cmp	r3, #5
    6002:	d801      	bhi.n	6008 <__hexdig_fun+0x18>
    6004:	3847      	subs	r0, #71	; 0x47
    6006:	e004      	b.n	6012 <__hexdig_fun+0x22>
    6008:	f1a0 0341 	sub.w	r3, r0, #65	; 0x41
    600c:	2b05      	cmp	r3, #5
    600e:	d802      	bhi.n	6016 <__hexdig_fun+0x26>
    6010:	3827      	subs	r0, #39	; 0x27
    6012:	b2c0      	uxtb	r0, r0
    6014:	4770      	bx	lr
    6016:	2000      	movs	r0, #0
    6018:	4770      	bx	lr

0000601a <__gethex>:
    601a:	e92d 4ff0 	stmdb	sp!, {r4, r5, r6, r7, r8, r9, sl, fp, lr}
    601e:	b089      	sub	sp, #36	; 0x24
    6020:	468a      	mov	sl, r1
    6022:	4691      	mov	r9, r2
    6024:	9304      	str	r3, [sp, #16]
    6026:	9001      	str	r0, [sp, #4]
    6028:	f000 fac8 	bl	65bc <_localeconv_r>
    602c:	6803      	ldr	r3, [r0, #0]
    602e:	2600      	movs	r6, #0
    6030:	4618      	mov	r0, r3
    6032:	9302      	str	r3, [sp, #8]
    6034:	f7fe f80d 	bl	4052 <strlen>
    6038:	9b02      	ldr	r3, [sp, #8]
    603a:	9000      	str	r0, [sp, #0]
    603c:	4403      	add	r3, r0
    603e:	f813 3c01 	ldrb.w	r3, [r3, #-1]
    6042:	9305      	str	r3, [sp, #20]
    6044:	f8da 3000 	ldr.w	r3, [sl]
    6048:	3302      	adds	r3, #2
    604a:	4698      	mov	r8, r3
    604c:	f813 0b01 	ldrb.w	r0, [r3], #1
    6050:	2830      	cmp	r0, #48	; 0x30
    6052:	d101      	bne.n	6058 <__gethex+0x3e>
    6054:	3601      	adds	r6, #1
    6056:	e7f8      	b.n	604a <__gethex+0x30>
    6058:	f7ff ffca 	bl	5ff0 <__hexdig_fun>
    605c:	4604      	mov	r4, r0
    605e:	b9e8      	cbnz	r0, 609c <__gethex+0x82>
    6060:	4640      	mov	r0, r8
    6062:	9902      	ldr	r1, [sp, #8]
    6064:	9a00      	ldr	r2, [sp, #0]
    6066:	f7fd fffc 	bl	4062 <strncmp>
    606a:	2800      	cmp	r0, #0
    606c:	d137      	bne.n	60de <__gethex+0xc4>
    606e:	9b00      	ldr	r3, [sp, #0]
    6070:	f818 0003 	ldrb.w	r0, [r8, r3]
    6074:	eb08 0703 	add.w	r7, r8, r3
    6078:	f7ff ffba 	bl	5ff0 <__hexdig_fun>
    607c:	b388      	cbz	r0, 60e2 <__gethex+0xc8>
    607e:	463b      	mov	r3, r7
    6080:	7818      	ldrb	r0, [r3, #0]
    6082:	4698      	mov	r8, r3
    6084:	2830      	cmp	r0, #48	; 0x30
    6086:	f103 0301 	add.w	r3, r3, #1
    608a:	d0f9      	beq.n	6080 <__gethex+0x66>
    608c:	f7ff ffb0 	bl	5ff0 <__hexdig_fun>
    6090:	fab0 f580 	clz	r5, r0
    6094:	463c      	mov	r4, r7
    6096:	096d      	lsrs	r5, r5, #5
    6098:	2601      	movs	r6, #1
    609a:	e001      	b.n	60a0 <__gethex+0x86>
    609c:	2500      	movs	r5, #0
    609e:	462c      	mov	r4, r5
    60a0:	46c3      	mov	fp, r8
    60a2:	465f      	mov	r7, fp
    60a4:	7838      	ldrb	r0, [r7, #0]
    60a6:	f10b 0b01 	add.w	fp, fp, #1
    60aa:	f7ff ffa1 	bl	5ff0 <__hexdig_fun>
    60ae:	2800      	cmp	r0, #0
    60b0:	d1f7      	bne.n	60a2 <__gethex+0x88>
    60b2:	4638      	mov	r0, r7
    60b4:	9902      	ldr	r1, [sp, #8]
    60b6:	9a00      	ldr	r2, [sp, #0]
    60b8:	f7fd ffd3 	bl	4062 <strncmp>
    60bc:	b958      	cbnz	r0, 60d6 <__gethex+0xbc>
    60be:	b95c      	cbnz	r4, 60d8 <__gethex+0xbe>
    60c0:	9b00      	ldr	r3, [sp, #0]
    60c2:	18fc      	adds	r4, r7, r3
    60c4:	46a3      	mov	fp, r4
    60c6:	465f      	mov	r7, fp
    60c8:	7838      	ldrb	r0, [r7, #0]
    60ca:	f10b 0b01 	add.w	fp, fp, #1
    60ce:	f7ff ff8f 	bl	5ff0 <__hexdig_fun>
    60d2:	2800      	cmp	r0, #0
    60d4:	d1f7      	bne.n	60c6 <__gethex+0xac>
    60d6:	b134      	cbz	r4, 60e6 <__gethex+0xcc>
    60d8:	1be4      	subs	r4, r4, r7
    60da:	00a4      	lsls	r4, r4, #2
    60dc:	e003      	b.n	60e6 <__gethex+0xcc>
    60de:	4647      	mov	r7, r8
    60e0:	e000      	b.n	60e4 <__gethex+0xca>
    60e2:	4604      	mov	r4, r0
    60e4:	2501      	movs	r5, #1
    60e6:	783b      	ldrb	r3, [r7, #0]
    60e8:	2b50      	cmp	r3, #80	; 0x50
    60ea:	d001      	beq.n	60f0 <__gethex+0xd6>
    60ec:	2b70      	cmp	r3, #112	; 0x70
    60ee:	d130      	bne.n	6152 <__gethex+0x138>
    60f0:	787b      	ldrb	r3, [r7, #1]
    60f2:	2b2b      	cmp	r3, #43	; 0x2b
    60f4:	d006      	beq.n	6104 <__gethex+0xea>
    60f6:	2b2d      	cmp	r3, #45	; 0x2d
    60f8:	d002      	beq.n	6100 <__gethex+0xe6>
    60fa:	1c7a      	adds	r2, r7, #1
    60fc:	2300      	movs	r3, #0
    60fe:	e003      	b.n	6108 <__gethex+0xee>
    6100:	2301      	movs	r3, #1
    6102:	e000      	b.n	6106 <__gethex+0xec>
    6104:	2300      	movs	r3, #0
    6106:	1cba      	adds	r2, r7, #2
    6108:	7810      	ldrb	r0, [r2, #0]
    610a:	9306      	str	r3, [sp, #24]
    610c:	9203      	str	r2, [sp, #12]
    610e:	f7ff ff6f 	bl	5ff0 <__hexdig_fun>
    6112:	1e41      	subs	r1, r0, #1
    6114:	b2c9      	uxtb	r1, r1
    6116:	2918      	cmp	r1, #24
    6118:	9a03      	ldr	r2, [sp, #12]
    611a:	9b06      	ldr	r3, [sp, #24]
    611c:	d819      	bhi.n	6152 <__gethex+0x138>
    611e:	f1a0 0b10 	sub.w	fp, r0, #16
    6122:	f812 0f01 	ldrb.w	r0, [r2, #1]!
    6126:	9306      	str	r3, [sp, #24]
    6128:	9203      	str	r2, [sp, #12]
    612a:	9207      	str	r2, [sp, #28]
    612c:	f7ff ff60 	bl	5ff0 <__hexdig_fun>
    6130:	1e41      	subs	r1, r0, #1
    6132:	b2c9      	uxtb	r1, r1
    6134:	2918      	cmp	r1, #24
    6136:	9a03      	ldr	r2, [sp, #12]
    6138:	9b06      	ldr	r3, [sp, #24]
    613a:	d805      	bhi.n	6148 <__gethex+0x12e>
    613c:	210a      	movs	r1, #10
    613e:	fb01 0b0b 	mla	fp, r1, fp, r0
    6142:	f1ab 0b10 	sub.w	fp, fp, #16
    6146:	e7ec      	b.n	6122 <__gethex+0x108>
    6148:	b10b      	cbz	r3, 614e <__gethex+0x134>
    614a:	f1cb 0b00 	rsb	fp, fp, #0
    614e:	445c      	add	r4, fp
    6150:	e000      	b.n	6154 <__gethex+0x13a>
    6152:	463a      	mov	r2, r7
    6154:	f8ca 2000 	str.w	r2, [sl]
    6158:	b125      	cbz	r5, 6164 <__gethex+0x14a>
    615a:	2e00      	cmp	r6, #0
    615c:	bf14      	ite	ne
    615e:	2000      	movne	r0, #0
    6160:	2006      	moveq	r0, #6
    6162:	e17c      	b.n	645e <__gethex+0x444>
    6164:	4629      	mov	r1, r5
    6166:	ebc8 0307 	rsb	r3, r8, r7
    616a:	3b01      	subs	r3, #1
    616c:	2b07      	cmp	r3, #7
    616e:	dd02      	ble.n	6176 <__gethex+0x15c>
    6170:	3101      	adds	r1, #1
    6172:	105b      	asrs	r3, r3, #1
    6174:	e7fa      	b.n	616c <__gethex+0x152>
    6176:	9801      	ldr	r0, [sp, #4]
    6178:	f000 fa51 	bl	661e <_Balloc>
    617c:	f04f 0a00 	mov.w	sl, #0
    6180:	f100 0b14 	add.w	fp, r0, #20
    6184:	4605      	mov	r5, r0
    6186:	465e      	mov	r6, fp
    6188:	46d4      	mov	ip, sl
    618a:	4547      	cmp	r7, r8
    618c:	d937      	bls.n	61fe <__gethex+0x1e4>
    618e:	1e7b      	subs	r3, r7, #1
    6190:	9303      	str	r3, [sp, #12]
    6192:	9a05      	ldr	r2, [sp, #20]
    6194:	f817 3c01 	ldrb.w	r3, [r7, #-1]
    6198:	4293      	cmp	r3, r2
    619a:	d009      	beq.n	61b0 <__gethex+0x196>
    619c:	f1bc 0f20 	cmp.w	ip, #32
    61a0:	d11a      	bne.n	61d8 <__gethex+0x1be>
    61a2:	f8c6 a000 	str.w	sl, [r6]
    61a6:	f04f 0a00 	mov.w	sl, #0
    61aa:	3604      	adds	r6, #4
    61ac:	46d4      	mov	ip, sl
    61ae:	e013      	b.n	61d8 <__gethex+0x1be>
    61b0:	9b00      	ldr	r3, [sp, #0]
    61b2:	9a03      	ldr	r2, [sp, #12]
    61b4:	f1c3 0301 	rsb	r3, r3, #1
    61b8:	4413      	add	r3, r2
    61ba:	4543      	cmp	r3, r8
    61bc:	d3ee      	bcc.n	619c <__gethex+0x182>
    61be:	4618      	mov	r0, r3
    61c0:	9902      	ldr	r1, [sp, #8]
    61c2:	9a00      	ldr	r2, [sp, #0]
    61c4:	f8cd c01c 	str.w	ip, [sp, #28]
    61c8:	9306      	str	r3, [sp, #24]
    61ca:	f7fd ff4a 	bl	4062 <strncmp>
    61ce:	9b06      	ldr	r3, [sp, #24]
    61d0:	f8dd c01c 	ldr.w	ip, [sp, #28]
    61d4:	b188      	cbz	r0, 61fa <__gethex+0x1e0>
    61d6:	e7e1      	b.n	619c <__gethex+0x182>
    61d8:	f817 0c01 	ldrb.w	r0, [r7, #-1]
    61dc:	f8cd c018 	str.w	ip, [sp, #24]
    61e0:	f7ff ff06 	bl	5ff0 <__hexdig_fun>
    61e4:	f8dd c018 	ldr.w	ip, [sp, #24]
    61e8:	f000 000f 	and.w	r0, r0, #15
    61ec:	fa00 f00c 	lsl.w	r0, r0, ip
    61f0:	9b03      	ldr	r3, [sp, #12]
    61f2:	ea4a 0a00 	orr.w	sl, sl, r0
    61f6:	f10c 0c04 	add.w	ip, ip, #4
    61fa:	461f      	mov	r7, r3
    61fc:	e7c5      	b.n	618a <__gethex+0x170>
    61fe:	f846 ab04 	str.w	sl, [r6], #4
    6202:	ebcb 0606 	rsb	r6, fp, r6
    6206:	10b0      	asrs	r0, r6, #2
    6208:	6128      	str	r0, [r5, #16]
    620a:	0147      	lsls	r7, r0, #5
    620c:	4650      	mov	r0, sl
    620e:	f000 fad0 	bl	67b2 <__hi0bits>
    6212:	f8d9 6000 	ldr.w	r6, [r9]
    6216:	1a38      	subs	r0, r7, r0
    6218:	42b0      	cmp	r0, r6
    621a:	dd26      	ble.n	626a <__gethex+0x250>
    621c:	1b87      	subs	r7, r0, r6
    621e:	4639      	mov	r1, r7
    6220:	4628      	mov	r0, r5
    6222:	f000 fdd0 	bl	6dc6 <__any_on>
    6226:	b1c8      	cbz	r0, 625c <__gethex+0x242>
    6228:	1e7b      	subs	r3, r7, #1
    622a:	115a      	asrs	r2, r3, #5
    622c:	f003 011f 	and.w	r1, r3, #31
    6230:	f04f 0801 	mov.w	r8, #1
    6234:	f85b 2022 	ldr.w	r2, [fp, r2, lsl #2]
    6238:	fa08 f101 	lsl.w	r1, r8, r1
    623c:	4211      	tst	r1, r2
    623e:	d00e      	beq.n	625e <__gethex+0x244>
    6240:	4543      	cmp	r3, r8
    6242:	dc02      	bgt.n	624a <__gethex+0x230>
    6244:	f04f 0802 	mov.w	r8, #2
    6248:	e009      	b.n	625e <__gethex+0x244>
    624a:	4628      	mov	r0, r5
    624c:	1eb9      	subs	r1, r7, #2
    624e:	f000 fdba 	bl	6dc6 <__any_on>
    6252:	2800      	cmp	r0, #0
    6254:	d0f6      	beq.n	6244 <__gethex+0x22a>
    6256:	f04f 0803 	mov.w	r8, #3
    625a:	e000      	b.n	625e <__gethex+0x244>
    625c:	4680      	mov	r8, r0
    625e:	4628      	mov	r0, r5
    6260:	4639      	mov	r1, r7
    6262:	f7ff fe8f 	bl	5f84 <rshift>
    6266:	443c      	add	r4, r7
    6268:	e00c      	b.n	6284 <__gethex+0x26a>
    626a:	da09      	bge.n	6280 <__gethex+0x266>
    626c:	1a37      	subs	r7, r6, r0
    626e:	4629      	mov	r1, r5
    6270:	9801      	ldr	r0, [sp, #4]
    6272:	463a      	mov	r2, r7
    6274:	f000 fbd2 	bl	6a1c <__lshift>
    6278:	4605      	mov	r5, r0
    627a:	1be4      	subs	r4, r4, r7
    627c:	f100 0b14 	add.w	fp, r0, #20
    6280:	f04f 0800 	mov.w	r8, #0
    6284:	f8d9 3008 	ldr.w	r3, [r9, #8]
    6288:	429c      	cmp	r4, r3
    628a:	dd08      	ble.n	629e <__gethex+0x284>
    628c:	9801      	ldr	r0, [sp, #4]
    628e:	4629      	mov	r1, r5
    6290:	f000 f9fa 	bl	6688 <_Bfree>
    6294:	9a12      	ldr	r2, [sp, #72]	; 0x48
    6296:	2300      	movs	r3, #0
    6298:	6013      	str	r3, [r2, #0]
    629a:	20a3      	movs	r0, #163	; 0xa3
    629c:	e0df      	b.n	645e <__gethex+0x444>
    629e:	f8d9 0004 	ldr.w	r0, [r9, #4]
    62a2:	4284      	cmp	r4, r0
    62a4:	da53      	bge.n	634e <__gethex+0x334>
    62a6:	1b04      	subs	r4, r0, r4
    62a8:	42b4      	cmp	r4, r6
    62aa:	db2e      	blt.n	630a <__gethex+0x2f0>
    62ac:	f8d9 300c 	ldr.w	r3, [r9, #12]
    62b0:	2b02      	cmp	r3, #2
    62b2:	d01a      	beq.n	62ea <__gethex+0x2d0>
    62b4:	2b03      	cmp	r3, #3
    62b6:	d01c      	beq.n	62f2 <__gethex+0x2d8>
    62b8:	2b01      	cmp	r3, #1
    62ba:	d11d      	bne.n	62f8 <__gethex+0x2de>
    62bc:	42b4      	cmp	r4, r6
    62be:	d11b      	bne.n	62f8 <__gethex+0x2de>
    62c0:	2e01      	cmp	r6, #1
    62c2:	dc0b      	bgt.n	62dc <__gethex+0x2c2>
    62c4:	f8d9 3004 	ldr.w	r3, [r9, #4]
    62c8:	9a04      	ldr	r2, [sp, #16]
    62ca:	2062      	movs	r0, #98	; 0x62
    62cc:	6013      	str	r3, [r2, #0]
    62ce:	2301      	movs	r3, #1
    62d0:	612b      	str	r3, [r5, #16]
    62d2:	f8cb 3000 	str.w	r3, [fp]
    62d6:	9b12      	ldr	r3, [sp, #72]	; 0x48
    62d8:	601d      	str	r5, [r3, #0]
    62da:	e0c0      	b.n	645e <__gethex+0x444>
    62dc:	4628      	mov	r0, r5
    62de:	1e71      	subs	r1, r6, #1
    62e0:	f000 fd71 	bl	6dc6 <__any_on>
    62e4:	2800      	cmp	r0, #0
    62e6:	d1ed      	bne.n	62c4 <__gethex+0x2aa>
    62e8:	e006      	b.n	62f8 <__gethex+0x2de>
    62ea:	9b13      	ldr	r3, [sp, #76]	; 0x4c
    62ec:	2b00      	cmp	r3, #0
    62ee:	d0e9      	beq.n	62c4 <__gethex+0x2aa>
    62f0:	e002      	b.n	62f8 <__gethex+0x2de>
    62f2:	9b13      	ldr	r3, [sp, #76]	; 0x4c
    62f4:	2b00      	cmp	r3, #0
    62f6:	d1e5      	bne.n	62c4 <__gethex+0x2aa>
    62f8:	9801      	ldr	r0, [sp, #4]
    62fa:	4629      	mov	r1, r5
    62fc:	f000 f9c4 	bl	6688 <_Bfree>
    6300:	9a12      	ldr	r2, [sp, #72]	; 0x48
    6302:	2300      	movs	r3, #0
    6304:	6013      	str	r3, [r2, #0]
    6306:	2050      	movs	r0, #80	; 0x50
    6308:	e0a9      	b.n	645e <__gethex+0x444>
    630a:	1e67      	subs	r7, r4, #1
    630c:	f1b8 0f00 	cmp.w	r8, #0
    6310:	d107      	bne.n	6322 <__gethex+0x308>
    6312:	2f00      	cmp	r7, #0
    6314:	dd07      	ble.n	6326 <__gethex+0x30c>
    6316:	4628      	mov	r0, r5
    6318:	4639      	mov	r1, r7
    631a:	f000 fd54 	bl	6dc6 <__any_on>
    631e:	4680      	mov	r8, r0
    6320:	e001      	b.n	6326 <__gethex+0x30c>
    6322:	f04f 0801 	mov.w	r8, #1
    6326:	117a      	asrs	r2, r7, #5
    6328:	f85b 2022 	ldr.w	r2, [fp, r2, lsl #2]
    632c:	f007 071f 	and.w	r7, r7, #31
    6330:	2301      	movs	r3, #1
    6332:	40bb      	lsls	r3, r7
    6334:	4213      	tst	r3, r2
    6336:	4621      	mov	r1, r4
    6338:	4628      	mov	r0, r5
    633a:	bf18      	it	ne
    633c:	f048 0802 	orrne.w	r8, r8, #2
    6340:	1b36      	subs	r6, r6, r4
    6342:	f7ff fe1f 	bl	5f84 <rshift>
    6346:	2702      	movs	r7, #2
    6348:	f8d9 4004 	ldr.w	r4, [r9, #4]
    634c:	e000      	b.n	6350 <__gethex+0x336>
    634e:	2701      	movs	r7, #1
    6350:	f1b8 0f00 	cmp.w	r8, #0
    6354:	d07e      	beq.n	6454 <__gethex+0x43a>
    6356:	f8d9 300c 	ldr.w	r3, [r9, #12]
    635a:	2b02      	cmp	r3, #2
    635c:	d00e      	beq.n	637c <__gethex+0x362>
    635e:	2b03      	cmp	r3, #3
    6360:	d010      	beq.n	6384 <__gethex+0x36a>
    6362:	2b01      	cmp	r3, #1
    6364:	d174      	bne.n	6450 <__gethex+0x436>
    6366:	f018 0f02 	tst.w	r8, #2
    636a:	d071      	beq.n	6450 <__gethex+0x436>
    636c:	f8db 0000 	ldr.w	r0, [fp]
    6370:	ea48 0800 	orr.w	r8, r8, r0
    6374:	f018 0f01 	tst.w	r8, #1
    6378:	d107      	bne.n	638a <__gethex+0x370>
    637a:	e069      	b.n	6450 <__gethex+0x436>
    637c:	9b13      	ldr	r3, [sp, #76]	; 0x4c
    637e:	f1c3 0301 	rsb	r3, r3, #1
    6382:	9313      	str	r3, [sp, #76]	; 0x4c
    6384:	9b13      	ldr	r3, [sp, #76]	; 0x4c
    6386:	2b00      	cmp	r3, #0
    6388:	d062      	beq.n	6450 <__gethex+0x436>
    638a:	f8d5 a010 	ldr.w	sl, [r5, #16]
    638e:	f105 0314 	add.w	r3, r5, #20
    6392:	ea4f 088a 	mov.w	r8, sl, lsl #2
    6396:	eb03 0108 	add.w	r1, r3, r8
    639a:	681a      	ldr	r2, [r3, #0]
    639c:	1c50      	adds	r0, r2, #1
    639e:	d002      	beq.n	63a6 <__gethex+0x38c>
    63a0:	3201      	adds	r2, #1
    63a2:	601a      	str	r2, [r3, #0]
    63a4:	e021      	b.n	63ea <__gethex+0x3d0>
    63a6:	2200      	movs	r2, #0
    63a8:	f843 2b04 	str.w	r2, [r3], #4
    63ac:	428b      	cmp	r3, r1
    63ae:	d3f4      	bcc.n	639a <__gethex+0x380>
    63b0:	68ab      	ldr	r3, [r5, #8]
    63b2:	459a      	cmp	sl, r3
    63b4:	db12      	blt.n	63dc <__gethex+0x3c2>
    63b6:	6869      	ldr	r1, [r5, #4]
    63b8:	9801      	ldr	r0, [sp, #4]
    63ba:	3101      	adds	r1, #1
    63bc:	f000 f92f 	bl	661e <_Balloc>
    63c0:	4683      	mov	fp, r0
    63c2:	692a      	ldr	r2, [r5, #16]
    63c4:	f105 010c 	add.w	r1, r5, #12
    63c8:	3202      	adds	r2, #2
    63ca:	0092      	lsls	r2, r2, #2
    63cc:	300c      	adds	r0, #12
    63ce:	f7fc f819 	bl	2404 <memcpy>
    63d2:	4629      	mov	r1, r5
    63d4:	9801      	ldr	r0, [sp, #4]
    63d6:	f000 f957 	bl	6688 <_Bfree>
    63da:	465d      	mov	r5, fp
    63dc:	692b      	ldr	r3, [r5, #16]
    63de:	1c5a      	adds	r2, r3, #1
    63e0:	612a      	str	r2, [r5, #16]
    63e2:	eb05 0383 	add.w	r3, r5, r3, lsl #2
    63e6:	2201      	movs	r2, #1
    63e8:	615a      	str	r2, [r3, #20]
    63ea:	2f02      	cmp	r7, #2
    63ec:	f105 0214 	add.w	r2, r5, #20
    63f0:	d110      	bne.n	6414 <__gethex+0x3fa>
    63f2:	f8d9 3000 	ldr.w	r3, [r9]
    63f6:	3b01      	subs	r3, #1
    63f8:	429e      	cmp	r6, r3
    63fa:	d126      	bne.n	644a <__gethex+0x430>
    63fc:	1171      	asrs	r1, r6, #5
    63fe:	2301      	movs	r3, #1
    6400:	f006 061f 	and.w	r6, r6, #31
    6404:	f852 2021 	ldr.w	r2, [r2, r1, lsl #2]
    6408:	40b3      	lsls	r3, r6
    640a:	4213      	tst	r3, r2
    640c:	bf0c      	ite	eq
    640e:	2702      	moveq	r7, #2
    6410:	2701      	movne	r7, #1
    6412:	e01a      	b.n	644a <__gethex+0x430>
    6414:	692b      	ldr	r3, [r5, #16]
    6416:	4553      	cmp	r3, sl
    6418:	dd0a      	ble.n	6430 <__gethex+0x416>
    641a:	4628      	mov	r0, r5
    641c:	2101      	movs	r1, #1
    641e:	f7ff fdb1 	bl	5f84 <rshift>
    6422:	f8d9 3008 	ldr.w	r3, [r9, #8]
    6426:	3401      	adds	r4, #1
    6428:	429c      	cmp	r4, r3
    642a:	f73f af2f 	bgt.w	628c <__gethex+0x272>
    642e:	e00b      	b.n	6448 <__gethex+0x42e>
    6430:	f016 061f 	ands.w	r6, r6, #31
    6434:	d008      	beq.n	6448 <__gethex+0x42e>
    6436:	4490      	add	r8, r2
    6438:	f858 0c04 	ldr.w	r0, [r8, #-4]
    643c:	f000 f9b9 	bl	67b2 <__hi0bits>
    6440:	f1c6 0620 	rsb	r6, r6, #32
    6444:	42b0      	cmp	r0, r6
    6446:	dbe8      	blt.n	641a <__gethex+0x400>
    6448:	2701      	movs	r7, #1
    644a:	f047 0720 	orr.w	r7, r7, #32
    644e:	e001      	b.n	6454 <__gethex+0x43a>
    6450:	f047 0710 	orr.w	r7, r7, #16
    6454:	4638      	mov	r0, r7
    6456:	9b12      	ldr	r3, [sp, #72]	; 0x48
    6458:	601d      	str	r5, [r3, #0]
    645a:	9b04      	ldr	r3, [sp, #16]
    645c:	601c      	str	r4, [r3, #0]
    645e:	b009      	add	sp, #36	; 0x24
    6460:	e8bd 8ff0 	ldmia.w	sp!, {r4, r5, r6, r7, r8, r9, sl, fp, pc}

00006464 <L_shift>:
    6464:	f1c2 0208 	rsb	r2, r2, #8
    6468:	0092      	lsls	r2, r2, #2
    646a:	b570      	push	{r4, r5, r6, lr}
    646c:	f1c2 0620 	rsb	r6, r2, #32
    6470:	6843      	ldr	r3, [r0, #4]
    6472:	6805      	ldr	r5, [r0, #0]
    6474:	fa03 f406 	lsl.w	r4, r3, r6
    6478:	432c      	orrs	r4, r5
    647a:	40d3      	lsrs	r3, r2
    647c:	6004      	str	r4, [r0, #0]
    647e:	f840 3f04 	str.w	r3, [r0, #4]!
    6482:	4288      	cmp	r0, r1
    6484:	d3f4      	bcc.n	6470 <L_shift+0xc>
    6486:	bd70      	pop	{r4, r5, r6, pc}

00006488 <__hexnan>:
    6488:	e92d 4ff0 	stmdb	sp!, {r4, r5, r6, r7, r8, r9, sl, fp, lr}
    648c:	680e      	ldr	r6, [r1, #0]
    648e:	4617      	mov	r7, r2
    6490:	1175      	asrs	r5, r6, #5
    6492:	eb02 0585 	add.w	r5, r2, r5, lsl #2
    6496:	f016 031f 	ands.w	r3, r6, #31
    649a:	bf18      	it	ne
    649c:	3504      	addne	r5, #4
    649e:	2200      	movs	r2, #0
    64a0:	f1a5 0904 	sub.w	r9, r5, #4
    64a4:	4683      	mov	fp, r0
    64a6:	46c8      	mov	r8, r9
    64a8:	464c      	mov	r4, r9
    64aa:	4616      	mov	r6, r2
    64ac:	b085      	sub	sp, #20
    64ae:	f8d0 a000 	ldr.w	sl, [r0]
    64b2:	9301      	str	r3, [sp, #4]
    64b4:	f845 2c04 	str.w	r2, [r5, #-4]
    64b8:	9200      	str	r2, [sp, #0]
    64ba:	f81a 1f01 	ldrb.w	r1, [sl, #1]!
    64be:	2900      	cmp	r1, #0
    64c0:	d03a      	beq.n	6538 <__hexnan+0xb0>
    64c2:	4608      	mov	r0, r1
    64c4:	9203      	str	r2, [sp, #12]
    64c6:	9102      	str	r1, [sp, #8]
    64c8:	f7ff fd92 	bl	5ff0 <__hexdig_fun>
    64cc:	9902      	ldr	r1, [sp, #8]
    64ce:	9a03      	ldr	r2, [sp, #12]
    64d0:	b9e8      	cbnz	r0, 650e <__hexnan+0x86>
    64d2:	2920      	cmp	r1, #32
    64d4:	d814      	bhi.n	6500 <__hexnan+0x78>
    64d6:	9b00      	ldr	r3, [sp, #0]
    64d8:	42b3      	cmp	r3, r6
    64da:	daee      	bge.n	64ba <__hexnan+0x32>
    64dc:	4544      	cmp	r4, r8
    64de:	d205      	bcs.n	64ec <__hexnan+0x64>
    64e0:	2a07      	cmp	r2, #7
    64e2:	dc03      	bgt.n	64ec <__hexnan+0x64>
    64e4:	4620      	mov	r0, r4
    64e6:	4641      	mov	r1, r8
    64e8:	f7ff ffbc 	bl	6464 <L_shift>
    64ec:	42bc      	cmp	r4, r7
    64ee:	d921      	bls.n	6534 <__hexnan+0xac>
    64f0:	f1a4 0804 	sub.w	r8, r4, #4
    64f4:	2200      	movs	r2, #0
    64f6:	f844 2c04 	str.w	r2, [r4, #-4]
    64fa:	9600      	str	r6, [sp, #0]
    64fc:	4644      	mov	r4, r8
    64fe:	e7dc      	b.n	64ba <__hexnan+0x32>
    6500:	2929      	cmp	r1, #41	; 0x29
    6502:	d145      	bne.n	6590 <__hexnan+0x108>
    6504:	f10a 0301 	add.w	r3, sl, #1
    6508:	f8cb 3000 	str.w	r3, [fp]
    650c:	e014      	b.n	6538 <__hexnan+0xb0>
    650e:	3201      	adds	r2, #1
    6510:	2a08      	cmp	r2, #8
    6512:	f106 0601 	add.w	r6, r6, #1
    6516:	dd06      	ble.n	6526 <__hexnan+0x9e>
    6518:	42bc      	cmp	r4, r7
    651a:	d9ce      	bls.n	64ba <__hexnan+0x32>
    651c:	2200      	movs	r2, #0
    651e:	f844 2c04 	str.w	r2, [r4, #-4]
    6522:	3c04      	subs	r4, #4
    6524:	2201      	movs	r2, #1
    6526:	6821      	ldr	r1, [r4, #0]
    6528:	f000 000f 	and.w	r0, r0, #15
    652c:	ea40 1001 	orr.w	r0, r0, r1, lsl #4
    6530:	6020      	str	r0, [r4, #0]
    6532:	e7c2      	b.n	64ba <__hexnan+0x32>
    6534:	2208      	movs	r2, #8
    6536:	e7c0      	b.n	64ba <__hexnan+0x32>
    6538:	b356      	cbz	r6, 6590 <__hexnan+0x108>
    653a:	4544      	cmp	r4, r8
    653c:	d205      	bcs.n	654a <__hexnan+0xc2>
    653e:	2a07      	cmp	r2, #7
    6540:	dc03      	bgt.n	654a <__hexnan+0xc2>
    6542:	4620      	mov	r0, r4
    6544:	4641      	mov	r1, r8
    6546:	f7ff ff8d 	bl	6464 <L_shift>
    654a:	42bc      	cmp	r4, r7
    654c:	d90c      	bls.n	6568 <__hexnan+0xe0>
    654e:	463b      	mov	r3, r7
    6550:	f854 2b04 	ldr.w	r2, [r4], #4
    6554:	454c      	cmp	r4, r9
    6556:	f843 2b04 	str.w	r2, [r3], #4
    655a:	d9f9      	bls.n	6550 <__hexnan+0xc8>
    655c:	2200      	movs	r2, #0
    655e:	f843 2b04 	str.w	r2, [r3], #4
    6562:	454b      	cmp	r3, r9
    6564:	d9fa      	bls.n	655c <__hexnan+0xd4>
    6566:	e00b      	b.n	6580 <__hexnan+0xf8>
    6568:	9b01      	ldr	r3, [sp, #4]
    656a:	b14b      	cbz	r3, 6580 <__hexnan+0xf8>
    656c:	f1c3 0620 	rsb	r6, r3, #32
    6570:	f855 2c04 	ldr.w	r2, [r5, #-4]
    6574:	f04f 33ff 	mov.w	r3, #4294967295
    6578:	40f3      	lsrs	r3, r6
    657a:	4013      	ands	r3, r2
    657c:	f845 3c04 	str.w	r3, [r5, #-4]
    6580:	f855 3d04 	ldr.w	r3, [r5, #-4]!
    6584:	b933      	cbnz	r3, 6594 <__hexnan+0x10c>
    6586:	42bd      	cmp	r5, r7
    6588:	d1fa      	bne.n	6580 <__hexnan+0xf8>
    658a:	2301      	movs	r3, #1
    658c:	602b      	str	r3, [r5, #0]
    658e:	e001      	b.n	6594 <__hexnan+0x10c>
    6590:	2004      	movs	r0, #4
    6592:	e000      	b.n	6596 <__hexnan+0x10e>
    6594:	2005      	movs	r0, #5
    6596:	b005      	add	sp, #20
    6598:	e8bd 8ff0 	ldmia.w	sp!, {r4, r5, r6, r7, r8, r9, sl, fp, pc}

0000659c <_isatty_r>:
    659c:	b538      	push	{r3, r4, r5, lr}
    659e:	4c06      	ldr	r4, [pc, #24]	; (65b8 <_isatty_r+0x1c>)
    65a0:	2300      	movs	r3, #0
    65a2:	4605      	mov	r5, r0
    65a4:	4608      	mov	r0, r1
    65a6:	6023      	str	r3, [r4, #0]
    65a8:	f7fa f99c 	bl	8e4 <_isatty>
    65ac:	1c43      	adds	r3, r0, #1
    65ae:	d102      	bne.n	65b6 <_isatty_r+0x1a>
    65b0:	6823      	ldr	r3, [r4, #0]
    65b2:	b103      	cbz	r3, 65b6 <_isatty_r+0x1a>
    65b4:	602b      	str	r3, [r5, #0]
    65b6:	bd38      	pop	{r3, r4, r5, pc}
    65b8:	10000484 	.word	0x10000484

000065bc <_localeconv_r>:
    65bc:	4800      	ldr	r0, [pc, #0]	; (65c0 <_localeconv_r+0x4>)
    65be:	4770      	bx	lr
    65c0:	1000013c 	.word	0x1000013c

000065c4 <_lseek_r>:
    65c4:	b538      	push	{r3, r4, r5, lr}
    65c6:	4c07      	ldr	r4, [pc, #28]	; (65e4 <_lseek_r+0x20>)
    65c8:	4605      	mov	r5, r0
    65ca:	2000      	movs	r0, #0
    65cc:	6020      	str	r0, [r4, #0]
    65ce:	4608      	mov	r0, r1
    65d0:	4611      	mov	r1, r2
    65d2:	461a      	mov	r2, r3
    65d4:	f7fa f99a 	bl	90c <_lseek>
    65d8:	1c43      	adds	r3, r0, #1
    65da:	d102      	bne.n	65e2 <_lseek_r+0x1e>
    65dc:	6823      	ldr	r3, [r4, #0]
    65de:	b103      	cbz	r3, 65e2 <_lseek_r+0x1e>
    65e0:	602b      	str	r3, [r5, #0]
    65e2:	bd38      	pop	{r3, r4, r5, pc}
    65e4:	10000484 	.word	0x10000484

000065e8 <memmove>:
    65e8:	4281      	cmp	r1, r0
    65ea:	b510      	push	{r4, lr}
    65ec:	eb01 0302 	add.w	r3, r1, r2
    65f0:	d301      	bcc.n	65f6 <memmove+0xe>
    65f2:	1e42      	subs	r2, r0, #1
    65f4:	e00b      	b.n	660e <memmove+0x26>
    65f6:	4298      	cmp	r0, r3
    65f8:	d2fb      	bcs.n	65f2 <memmove+0xa>
    65fa:	1881      	adds	r1, r0, r2
    65fc:	1ad2      	subs	r2, r2, r3
    65fe:	42d3      	cmn	r3, r2
    6600:	d004      	beq.n	660c <memmove+0x24>
    6602:	f813 4d01 	ldrb.w	r4, [r3, #-1]!
    6606:	f801 4d01 	strb.w	r4, [r1, #-1]!
    660a:	e7f8      	b.n	65fe <memmove+0x16>
    660c:	bd10      	pop	{r4, pc}
    660e:	4299      	cmp	r1, r3
    6610:	d004      	beq.n	661c <memmove+0x34>
    6612:	f811 4b01 	ldrb.w	r4, [r1], #1
    6616:	f802 4f01 	strb.w	r4, [r2, #1]!
    661a:	e7f8      	b.n	660e <memmove+0x26>
    661c:	bd10      	pop	{r4, pc}

0000661e <_Balloc>:
    661e:	b570      	push	{r4, r5, r6, lr}
    6620:	6a45      	ldr	r5, [r0, #36]	; 0x24
    6622:	4604      	mov	r4, r0
    6624:	460e      	mov	r6, r1
    6626:	b93d      	cbnz	r5, 6638 <_Balloc+0x1a>
    6628:	2010      	movs	r0, #16
    662a:	f7fb fecd 	bl	23c8 <malloc>
    662e:	6260      	str	r0, [r4, #36]	; 0x24
    6630:	6045      	str	r5, [r0, #4]
    6632:	6085      	str	r5, [r0, #8]
    6634:	6005      	str	r5, [r0, #0]
    6636:	60c5      	str	r5, [r0, #12]
    6638:	6a65      	ldr	r5, [r4, #36]	; 0x24
    663a:	68eb      	ldr	r3, [r5, #12]
    663c:	b143      	cbz	r3, 6650 <_Balloc+0x32>
    663e:	6a63      	ldr	r3, [r4, #36]	; 0x24
    6640:	68db      	ldr	r3, [r3, #12]
    6642:	f853 0026 	ldr.w	r0, [r3, r6, lsl #2]
    6646:	b178      	cbz	r0, 6668 <_Balloc+0x4a>
    6648:	6802      	ldr	r2, [r0, #0]
    664a:	f843 2026 	str.w	r2, [r3, r6, lsl #2]
    664e:	e017      	b.n	6680 <_Balloc+0x62>
    6650:	4620      	mov	r0, r4
    6652:	2104      	movs	r1, #4
    6654:	2221      	movs	r2, #33	; 0x21
    6656:	f000 fbd8 	bl	6e0a <_calloc_r>
    665a:	6a63      	ldr	r3, [r4, #36]	; 0x24
    665c:	60e8      	str	r0, [r5, #12]
    665e:	68db      	ldr	r3, [r3, #12]
    6660:	2b00      	cmp	r3, #0
    6662:	d1ec      	bne.n	663e <_Balloc+0x20>
    6664:	2000      	movs	r0, #0
    6666:	bd70      	pop	{r4, r5, r6, pc}
    6668:	2101      	movs	r1, #1
    666a:	fa01 f506 	lsl.w	r5, r1, r6
    666e:	1d6a      	adds	r2, r5, #5
    6670:	4620      	mov	r0, r4
    6672:	0092      	lsls	r2, r2, #2
    6674:	f000 fbc9 	bl	6e0a <_calloc_r>
    6678:	2800      	cmp	r0, #0
    667a:	d0f3      	beq.n	6664 <_Balloc+0x46>
    667c:	6046      	str	r6, [r0, #4]
    667e:	6085      	str	r5, [r0, #8]
    6680:	2300      	movs	r3, #0
    6682:	6103      	str	r3, [r0, #16]
    6684:	60c3      	str	r3, [r0, #12]
    6686:	bd70      	pop	{r4, r5, r6, pc}

00006688 <_Bfree>:
    6688:	b570      	push	{r4, r5, r6, lr}
    668a:	6a44      	ldr	r4, [r0, #36]	; 0x24
    668c:	4606      	mov	r6, r0
    668e:	460d      	mov	r5, r1
    6690:	b93c      	cbnz	r4, 66a2 <_Bfree+0x1a>
    6692:	2010      	movs	r0, #16
    6694:	f7fb fe98 	bl	23c8 <malloc>
    6698:	6270      	str	r0, [r6, #36]	; 0x24
    669a:	6044      	str	r4, [r0, #4]
    669c:	6084      	str	r4, [r0, #8]
    669e:	6004      	str	r4, [r0, #0]
    66a0:	60c4      	str	r4, [r0, #12]
    66a2:	b13d      	cbz	r5, 66b4 <_Bfree+0x2c>
    66a4:	6a73      	ldr	r3, [r6, #36]	; 0x24
    66a6:	686a      	ldr	r2, [r5, #4]
    66a8:	68db      	ldr	r3, [r3, #12]
    66aa:	f853 1022 	ldr.w	r1, [r3, r2, lsl #2]
    66ae:	6029      	str	r1, [r5, #0]
    66b0:	f843 5022 	str.w	r5, [r3, r2, lsl #2]
    66b4:	bd70      	pop	{r4, r5, r6, pc}

000066b6 <__multadd>:
    66b6:	e92d 41f0 	stmdb	sp!, {r4, r5, r6, r7, r8, lr}
    66ba:	4606      	mov	r6, r0
    66bc:	460c      	mov	r4, r1
    66be:	690f      	ldr	r7, [r1, #16]
    66c0:	4698      	mov	r8, r3
    66c2:	f101 0e14 	add.w	lr, r1, #20
    66c6:	2300      	movs	r3, #0
    66c8:	f8de 0000 	ldr.w	r0, [lr]
    66cc:	3301      	adds	r3, #1
    66ce:	b285      	uxth	r5, r0
    66d0:	0c01      	lsrs	r1, r0, #16
    66d2:	fb02 8505 	mla	r5, r2, r5, r8
    66d6:	4351      	muls	r1, r2
    66d8:	eb01 4115 	add.w	r1, r1, r5, lsr #16
    66dc:	b2ad      	uxth	r5, r5
    66de:	ea4f 4811 	mov.w	r8, r1, lsr #16
    66e2:	42bb      	cmp	r3, r7
    66e4:	eb05 4101 	add.w	r1, r5, r1, lsl #16
    66e8:	f84e 1b04 	str.w	r1, [lr], #4
    66ec:	dbec      	blt.n	66c8 <__multadd+0x12>
    66ee:	f1b8 0f00 	cmp.w	r8, #0
    66f2:	d01b      	beq.n	672c <__multadd+0x76>
    66f4:	68a3      	ldr	r3, [r4, #8]
    66f6:	429f      	cmp	r7, r3
    66f8:	db12      	blt.n	6720 <__multadd+0x6a>
    66fa:	6861      	ldr	r1, [r4, #4]
    66fc:	4630      	mov	r0, r6
    66fe:	3101      	adds	r1, #1
    6700:	f7ff ff8d 	bl	661e <_Balloc>
    6704:	4605      	mov	r5, r0
    6706:	6922      	ldr	r2, [r4, #16]
    6708:	f104 010c 	add.w	r1, r4, #12
    670c:	3202      	adds	r2, #2
    670e:	0092      	lsls	r2, r2, #2
    6710:	300c      	adds	r0, #12
    6712:	f7fb fe77 	bl	2404 <memcpy>
    6716:	4621      	mov	r1, r4
    6718:	4630      	mov	r0, r6
    671a:	f7ff ffb5 	bl	6688 <_Bfree>
    671e:	462c      	mov	r4, r5
    6720:	eb04 0387 	add.w	r3, r4, r7, lsl #2
    6724:	3701      	adds	r7, #1
    6726:	f8c3 8014 	str.w	r8, [r3, #20]
    672a:	6127      	str	r7, [r4, #16]
    672c:	4620      	mov	r0, r4
    672e:	e8bd 81f0 	ldmia.w	sp!, {r4, r5, r6, r7, r8, pc}

00006732 <__s2b>:
    6732:	e92d 43f8 	stmdb	sp!, {r3, r4, r5, r6, r7, r8, r9, lr}
    6736:	4607      	mov	r7, r0
    6738:	4615      	mov	r5, r2
    673a:	4698      	mov	r8, r3
    673c:	2209      	movs	r2, #9
    673e:	3308      	adds	r3, #8
    6740:	460c      	mov	r4, r1
    6742:	fb93 f2f2 	sdiv	r2, r3, r2
    6746:	2100      	movs	r1, #0
    6748:	2301      	movs	r3, #1
    674a:	429a      	cmp	r2, r3
    674c:	dd02      	ble.n	6754 <__s2b+0x22>
    674e:	005b      	lsls	r3, r3, #1
    6750:	3101      	adds	r1, #1
    6752:	e7fa      	b.n	674a <__s2b+0x18>
    6754:	4638      	mov	r0, r7
    6756:	f7ff ff62 	bl	661e <_Balloc>
    675a:	9b08      	ldr	r3, [sp, #32]
    675c:	2d09      	cmp	r5, #9
    675e:	6143      	str	r3, [r0, #20]
    6760:	f04f 0301 	mov.w	r3, #1
    6764:	4601      	mov	r1, r0
    6766:	6103      	str	r3, [r0, #16]
    6768:	dd10      	ble.n	678c <__s2b+0x5a>
    676a:	f104 0609 	add.w	r6, r4, #9
    676e:	46b1      	mov	r9, r6
    6770:	442c      	add	r4, r5
    6772:	f819 3b01 	ldrb.w	r3, [r9], #1
    6776:	4638      	mov	r0, r7
    6778:	220a      	movs	r2, #10
    677a:	3b30      	subs	r3, #48	; 0x30
    677c:	f7ff ff9b 	bl	66b6 <__multadd>
    6780:	45a1      	cmp	r9, r4
    6782:	4601      	mov	r1, r0
    6784:	d1f5      	bne.n	6772 <__s2b+0x40>
    6786:	1974      	adds	r4, r6, r5
    6788:	3c08      	subs	r4, #8
    678a:	e001      	b.n	6790 <__s2b+0x5e>
    678c:	340a      	adds	r4, #10
    678e:	2509      	movs	r5, #9
    6790:	4626      	mov	r6, r4
    6792:	1b2b      	subs	r3, r5, r4
    6794:	4433      	add	r3, r6
    6796:	4543      	cmp	r3, r8
    6798:	da08      	bge.n	67ac <__s2b+0x7a>
    679a:	f816 3b01 	ldrb.w	r3, [r6], #1
    679e:	4638      	mov	r0, r7
    67a0:	220a      	movs	r2, #10
    67a2:	3b30      	subs	r3, #48	; 0x30
    67a4:	f7ff ff87 	bl	66b6 <__multadd>
    67a8:	4601      	mov	r1, r0
    67aa:	e7f2      	b.n	6792 <__s2b+0x60>
    67ac:	4608      	mov	r0, r1
    67ae:	e8bd 83f8 	ldmia.w	sp!, {r3, r4, r5, r6, r7, r8, r9, pc}

000067b2 <__hi0bits>:
    67b2:	0c03      	lsrs	r3, r0, #16
    67b4:	041b      	lsls	r3, r3, #16
    67b6:	b913      	cbnz	r3, 67be <__hi0bits+0xc>
    67b8:	0400      	lsls	r0, r0, #16
    67ba:	2310      	movs	r3, #16
    67bc:	e000      	b.n	67c0 <__hi0bits+0xe>
    67be:	2300      	movs	r3, #0
    67c0:	f010 4f7f 	tst.w	r0, #4278190080	; 0xff000000
    67c4:	bf04      	itt	eq
    67c6:	0200      	lsleq	r0, r0, #8
    67c8:	3308      	addeq	r3, #8
    67ca:	f010 4f70 	tst.w	r0, #4026531840	; 0xf0000000
    67ce:	bf04      	itt	eq
    67d0:	0100      	lsleq	r0, r0, #4
    67d2:	3304      	addeq	r3, #4
    67d4:	f010 4f40 	tst.w	r0, #3221225472	; 0xc0000000
    67d8:	bf04      	itt	eq
    67da:	0080      	lsleq	r0, r0, #2
    67dc:	3302      	addeq	r3, #2
    67de:	2800      	cmp	r0, #0
    67e0:	db03      	blt.n	67ea <__hi0bits+0x38>
    67e2:	0042      	lsls	r2, r0, #1
    67e4:	d503      	bpl.n	67ee <__hi0bits+0x3c>
    67e6:	1c58      	adds	r0, r3, #1
    67e8:	4770      	bx	lr
    67ea:	4618      	mov	r0, r3
    67ec:	4770      	bx	lr
    67ee:	2020      	movs	r0, #32
    67f0:	4770      	bx	lr

000067f2 <__lo0bits>:
    67f2:	6803      	ldr	r3, [r0, #0]
    67f4:	f013 0207 	ands.w	r2, r3, #7
    67f8:	d00b      	beq.n	6812 <__lo0bits+0x20>
    67fa:	07d9      	lsls	r1, r3, #31
    67fc:	d422      	bmi.n	6844 <__lo0bits+0x52>
    67fe:	079a      	lsls	r2, r3, #30
    6800:	bf4b      	itete	mi
    6802:	085b      	lsrmi	r3, r3, #1
    6804:	089b      	lsrpl	r3, r3, #2
    6806:	6003      	strmi	r3, [r0, #0]
    6808:	6003      	strpl	r3, [r0, #0]
    680a:	bf4c      	ite	mi
    680c:	2001      	movmi	r0, #1
    680e:	2002      	movpl	r0, #2
    6810:	4770      	bx	lr
    6812:	b299      	uxth	r1, r3
    6814:	b909      	cbnz	r1, 681a <__lo0bits+0x28>
    6816:	0c1b      	lsrs	r3, r3, #16
    6818:	2210      	movs	r2, #16
    681a:	f013 0fff 	tst.w	r3, #255	; 0xff
    681e:	bf04      	itt	eq
    6820:	0a1b      	lsreq	r3, r3, #8
    6822:	3208      	addeq	r2, #8
    6824:	0719      	lsls	r1, r3, #28
    6826:	bf04      	itt	eq
    6828:	091b      	lsreq	r3, r3, #4
    682a:	3204      	addeq	r2, #4
    682c:	0799      	lsls	r1, r3, #30
    682e:	bf04      	itt	eq
    6830:	089b      	lsreq	r3, r3, #2
    6832:	3202      	addeq	r2, #2
    6834:	07d9      	lsls	r1, r3, #31
    6836:	d402      	bmi.n	683e <__lo0bits+0x4c>
    6838:	085b      	lsrs	r3, r3, #1
    683a:	d005      	beq.n	6848 <__lo0bits+0x56>
    683c:	3201      	adds	r2, #1
    683e:	6003      	str	r3, [r0, #0]
    6840:	4610      	mov	r0, r2
    6842:	4770      	bx	lr
    6844:	2000      	movs	r0, #0
    6846:	4770      	bx	lr
    6848:	2020      	movs	r0, #32
    684a:	4770      	bx	lr

0000684c <__i2b>:
    684c:	b510      	push	{r4, lr}
    684e:	460c      	mov	r4, r1
    6850:	2101      	movs	r1, #1
    6852:	f7ff fee4 	bl	661e <_Balloc>
    6856:	2201      	movs	r2, #1
    6858:	6144      	str	r4, [r0, #20]
    685a:	6102      	str	r2, [r0, #16]
    685c:	bd10      	pop	{r4, pc}

0000685e <__multiply>:
    685e:	e92d 4ff7 	stmdb	sp!, {r0, r1, r2, r4, r5, r6, r7, r8, r9, sl, fp, lr}
    6862:	4614      	mov	r4, r2
    6864:	690a      	ldr	r2, [r1, #16]
    6866:	6923      	ldr	r3, [r4, #16]
    6868:	4688      	mov	r8, r1
    686a:	429a      	cmp	r2, r3
    686c:	bfbe      	ittt	lt
    686e:	460b      	movlt	r3, r1
    6870:	46a0      	movlt	r8, r4
    6872:	461c      	movlt	r4, r3
    6874:	f8d8 7010 	ldr.w	r7, [r8, #16]
    6878:	f8d4 9010 	ldr.w	r9, [r4, #16]
    687c:	f8d8 3008 	ldr.w	r3, [r8, #8]
    6880:	f8d8 1004 	ldr.w	r1, [r8, #4]
    6884:	eb07 0609 	add.w	r6, r7, r9
    6888:	429e      	cmp	r6, r3
    688a:	bfc8      	it	gt
    688c:	3101      	addgt	r1, #1
    688e:	f7ff fec6 	bl	661e <_Balloc>
    6892:	f100 0514 	add.w	r5, r0, #20
    6896:	462b      	mov	r3, r5
    6898:	eb05 0c86 	add.w	ip, r5, r6, lsl #2
    689c:	4563      	cmp	r3, ip
    689e:	d203      	bcs.n	68a8 <__multiply+0x4a>
    68a0:	2200      	movs	r2, #0
    68a2:	f843 2b04 	str.w	r2, [r3], #4
    68a6:	e7f9      	b.n	689c <__multiply+0x3e>
    68a8:	f104 0214 	add.w	r2, r4, #20
    68ac:	f108 0114 	add.w	r1, r8, #20
    68b0:	eb02 0389 	add.w	r3, r2, r9, lsl #2
    68b4:	eb01 0787 	add.w	r7, r1, r7, lsl #2
    68b8:	9300      	str	r3, [sp, #0]
    68ba:	9b00      	ldr	r3, [sp, #0]
    68bc:	9201      	str	r2, [sp, #4]
    68be:	429a      	cmp	r2, r3
    68c0:	d257      	bcs.n	6972 <__multiply+0x114>
    68c2:	f8b2 b000 	ldrh.w	fp, [r2]
    68c6:	f1bb 0f00 	cmp.w	fp, #0
    68ca:	d023      	beq.n	6914 <__multiply+0xb6>
    68cc:	4689      	mov	r9, r1
    68ce:	46ae      	mov	lr, r5
    68d0:	f04f 0800 	mov.w	r8, #0
    68d4:	f859 4b04 	ldr.w	r4, [r9], #4
    68d8:	f8be a000 	ldrh.w	sl, [lr]
    68dc:	b2a3      	uxth	r3, r4
    68de:	fb0b a303 	mla	r3, fp, r3, sl
    68e2:	ea4f 4a14 	mov.w	sl, r4, lsr #16
    68e6:	f8de 4000 	ldr.w	r4, [lr]
    68ea:	4443      	add	r3, r8
    68ec:	ea4f 4814 	mov.w	r8, r4, lsr #16
    68f0:	fb0b 840a 	mla	r4, fp, sl, r8
    68f4:	46f2      	mov	sl, lr
    68f6:	eb04 4413 	add.w	r4, r4, r3, lsr #16
    68fa:	b29b      	uxth	r3, r3
    68fc:	ea43 4304 	orr.w	r3, r3, r4, lsl #16
    6900:	454f      	cmp	r7, r9
    6902:	ea4f 4814 	mov.w	r8, r4, lsr #16
    6906:	f84a 3b04 	str.w	r3, [sl], #4
    690a:	d901      	bls.n	6910 <__multiply+0xb2>
    690c:	46d6      	mov	lr, sl
    690e:	e7e1      	b.n	68d4 <__multiply+0x76>
    6910:	f8ce 8004 	str.w	r8, [lr, #4]
    6914:	9b01      	ldr	r3, [sp, #4]
    6916:	3204      	adds	r2, #4
    6918:	f8b3 a002 	ldrh.w	sl, [r3, #2]
    691c:	f1ba 0f00 	cmp.w	sl, #0
    6920:	d021      	beq.n	6966 <__multiply+0x108>
    6922:	462c      	mov	r4, r5
    6924:	4689      	mov	r9, r1
    6926:	682b      	ldr	r3, [r5, #0]
    6928:	f04f 0800 	mov.w	r8, #0
    692c:	f8b9 e000 	ldrh.w	lr, [r9]
    6930:	f8b4 b002 	ldrh.w	fp, [r4, #2]
    6934:	b29b      	uxth	r3, r3
    6936:	fb0a be0e 	mla	lr, sl, lr, fp
    693a:	46a3      	mov	fp, r4
    693c:	44f0      	add	r8, lr
    693e:	ea43 4308 	orr.w	r3, r3, r8, lsl #16
    6942:	f84b 3b04 	str.w	r3, [fp], #4
    6946:	f859 3b04 	ldr.w	r3, [r9], #4
    694a:	f8b4 e004 	ldrh.w	lr, [r4, #4]
    694e:	0c1b      	lsrs	r3, r3, #16
    6950:	fb0a e303 	mla	r3, sl, r3, lr
    6954:	45b9      	cmp	r9, r7
    6956:	eb03 4318 	add.w	r3, r3, r8, lsr #16
    695a:	ea4f 4813 	mov.w	r8, r3, lsr #16
    695e:	d201      	bcs.n	6964 <__multiply+0x106>
    6960:	465c      	mov	r4, fp
    6962:	e7e3      	b.n	692c <__multiply+0xce>
    6964:	6063      	str	r3, [r4, #4]
    6966:	3504      	adds	r5, #4
    6968:	e7a7      	b.n	68ba <__multiply+0x5c>
    696a:	f85c 3d04 	ldr.w	r3, [ip, #-4]!
    696e:	b913      	cbnz	r3, 6976 <__multiply+0x118>
    6970:	3e01      	subs	r6, #1
    6972:	2e00      	cmp	r6, #0
    6974:	dcf9      	bgt.n	696a <__multiply+0x10c>
    6976:	6106      	str	r6, [r0, #16]
    6978:	b003      	add	sp, #12
    697a:	e8bd 8ff0 	ldmia.w	sp!, {r4, r5, r6, r7, r8, r9, sl, fp, pc}
	...

00006980 <__pow5mult>:
    6980:	f012 0303 	ands.w	r3, r2, #3
    6984:	e92d 41f0 	stmdb	sp!, {r4, r5, r6, r7, r8, lr}
    6988:	4606      	mov	r6, r0
    698a:	460f      	mov	r7, r1
    698c:	4615      	mov	r5, r2
    698e:	d007      	beq.n	69a0 <__pow5mult+0x20>
    6990:	4a21      	ldr	r2, [pc, #132]	; (6a18 <__pow5mult+0x98>)
    6992:	3b01      	subs	r3, #1
    6994:	f852 2023 	ldr.w	r2, [r2, r3, lsl #2]
    6998:	2300      	movs	r3, #0
    699a:	f7ff fe8c 	bl	66b6 <__multadd>
    699e:	4607      	mov	r7, r0
    69a0:	10ad      	asrs	r5, r5, #2
    69a2:	d035      	beq.n	6a10 <__pow5mult+0x90>
    69a4:	6a74      	ldr	r4, [r6, #36]	; 0x24
    69a6:	b93c      	cbnz	r4, 69b8 <__pow5mult+0x38>
    69a8:	2010      	movs	r0, #16
    69aa:	f7fb fd0d 	bl	23c8 <malloc>
    69ae:	6270      	str	r0, [r6, #36]	; 0x24
    69b0:	6044      	str	r4, [r0, #4]
    69b2:	6084      	str	r4, [r0, #8]
    69b4:	6004      	str	r4, [r0, #0]
    69b6:	60c4      	str	r4, [r0, #12]
    69b8:	f8d6 8024 	ldr.w	r8, [r6, #36]	; 0x24
    69bc:	f8d8 4008 	ldr.w	r4, [r8, #8]
    69c0:	b97c      	cbnz	r4, 69e2 <__pow5mult+0x62>
    69c2:	4630      	mov	r0, r6
    69c4:	f240 2171 	movw	r1, #625	; 0x271
    69c8:	f7ff ff40 	bl	684c <__i2b>
    69cc:	2300      	movs	r3, #0
    69ce:	f8c8 0008 	str.w	r0, [r8, #8]
    69d2:	4604      	mov	r4, r0
    69d4:	6003      	str	r3, [r0, #0]
    69d6:	e004      	b.n	69e2 <__pow5mult+0x62>
    69d8:	106d      	asrs	r5, r5, #1
    69da:	d019      	beq.n	6a10 <__pow5mult+0x90>
    69dc:	6820      	ldr	r0, [r4, #0]
    69de:	b170      	cbz	r0, 69fe <__pow5mult+0x7e>
    69e0:	4604      	mov	r4, r0
    69e2:	07eb      	lsls	r3, r5, #31
    69e4:	d5f8      	bpl.n	69d8 <__pow5mult+0x58>
    69e6:	4639      	mov	r1, r7
    69e8:	4622      	mov	r2, r4
    69ea:	4630      	mov	r0, r6
    69ec:	f7ff ff37 	bl	685e <__multiply>
    69f0:	4680      	mov	r8, r0
    69f2:	4639      	mov	r1, r7
    69f4:	4630      	mov	r0, r6
    69f6:	f7ff fe47 	bl	6688 <_Bfree>
    69fa:	4647      	mov	r7, r8
    69fc:	e7ec      	b.n	69d8 <__pow5mult+0x58>
    69fe:	4630      	mov	r0, r6
    6a00:	4621      	mov	r1, r4
    6a02:	4622      	mov	r2, r4
    6a04:	f7ff ff2b 	bl	685e <__multiply>
    6a08:	2300      	movs	r3, #0
    6a0a:	6020      	str	r0, [r4, #0]
    6a0c:	6003      	str	r3, [r0, #0]
    6a0e:	e7e7      	b.n	69e0 <__pow5mult+0x60>
    6a10:	4638      	mov	r0, r7
    6a12:	e8bd 81f0 	ldmia.w	sp!, {r4, r5, r6, r7, r8, pc}
    6a16:	bf00      	nop
    6a18:	00008890 	.word	0x00008890

00006a1c <__lshift>:
    6a1c:	e92d 47f0 	stmdb	sp!, {r4, r5, r6, r7, r8, r9, sl, lr}
    6a20:	460c      	mov	r4, r1
    6a22:	4607      	mov	r7, r0
    6a24:	4616      	mov	r6, r2
    6a26:	6923      	ldr	r3, [r4, #16]
    6a28:	ea4f 1a62 	mov.w	sl, r2, asr #5
    6a2c:	eb0a 0903 	add.w	r9, sl, r3
    6a30:	6849      	ldr	r1, [r1, #4]
    6a32:	68a3      	ldr	r3, [r4, #8]
    6a34:	f109 0501 	add.w	r5, r9, #1
    6a38:	429d      	cmp	r5, r3
    6a3a:	dd02      	ble.n	6a42 <__lshift+0x26>
    6a3c:	3101      	adds	r1, #1
    6a3e:	005b      	lsls	r3, r3, #1
    6a40:	e7fa      	b.n	6a38 <__lshift+0x1c>
    6a42:	4638      	mov	r0, r7
    6a44:	f7ff fdeb 	bl	661e <_Balloc>
    6a48:	4680      	mov	r8, r0
    6a4a:	f100 0114 	add.w	r1, r0, #20
    6a4e:	2300      	movs	r3, #0
    6a50:	4553      	cmp	r3, sl
    6a52:	da04      	bge.n	6a5e <__lshift+0x42>
    6a54:	2200      	movs	r2, #0
    6a56:	f841 2023 	str.w	r2, [r1, r3, lsl #2]
    6a5a:	3301      	adds	r3, #1
    6a5c:	e7f8      	b.n	6a50 <__lshift+0x34>
    6a5e:	ea2a 73ea 	bic.w	r3, sl, sl, asr #31
    6a62:	6920      	ldr	r0, [r4, #16]
    6a64:	eb01 0383 	add.w	r3, r1, r3, lsl #2
    6a68:	f016 021f 	ands.w	r2, r6, #31
    6a6c:	f104 0114 	add.w	r1, r4, #20
    6a70:	eb01 0e80 	add.w	lr, r1, r0, lsl #2
    6a74:	d014      	beq.n	6aa0 <__lshift+0x84>
    6a76:	f1c2 0c20 	rsb	ip, r2, #32
    6a7a:	2000      	movs	r0, #0
    6a7c:	680e      	ldr	r6, [r1, #0]
    6a7e:	469a      	mov	sl, r3
    6a80:	4096      	lsls	r6, r2
    6a82:	4330      	orrs	r0, r6
    6a84:	f843 0b04 	str.w	r0, [r3], #4
    6a88:	f851 0b04 	ldr.w	r0, [r1], #4
    6a8c:	4571      	cmp	r1, lr
    6a8e:	fa20 f00c 	lsr.w	r0, r0, ip
    6a92:	d3f3      	bcc.n	6a7c <__lshift+0x60>
    6a94:	f8ca 0004 	str.w	r0, [sl, #4]
    6a98:	b148      	cbz	r0, 6aae <__lshift+0x92>
    6a9a:	f109 0502 	add.w	r5, r9, #2
    6a9e:	e006      	b.n	6aae <__lshift+0x92>
    6aa0:	3b04      	subs	r3, #4
    6aa2:	f851 2b04 	ldr.w	r2, [r1], #4
    6aa6:	4571      	cmp	r1, lr
    6aa8:	f843 2f04 	str.w	r2, [r3, #4]!
    6aac:	d3f9      	bcc.n	6aa2 <__lshift+0x86>
    6aae:	3d01      	subs	r5, #1
    6ab0:	4638      	mov	r0, r7
    6ab2:	f8c8 5010 	str.w	r5, [r8, #16]
    6ab6:	4621      	mov	r1, r4
    6ab8:	f7ff fde6 	bl	6688 <_Bfree>
    6abc:	4640      	mov	r0, r8
    6abe:	e8bd 87f0 	ldmia.w	sp!, {r4, r5, r6, r7, r8, r9, sl, pc}

00006ac2 <__mcmp>:
    6ac2:	6903      	ldr	r3, [r0, #16]
    6ac4:	690a      	ldr	r2, [r1, #16]
    6ac6:	b510      	push	{r4, lr}
    6ac8:	1a9b      	subs	r3, r3, r2
    6aca:	d111      	bne.n	6af0 <__mcmp+0x2e>
    6acc:	0092      	lsls	r2, r2, #2
    6ace:	3014      	adds	r0, #20
    6ad0:	3114      	adds	r1, #20
    6ad2:	1883      	adds	r3, r0, r2
    6ad4:	440a      	add	r2, r1
    6ad6:	f853 4d04 	ldr.w	r4, [r3, #-4]!
    6ada:	f852 1d04 	ldr.w	r1, [r2, #-4]!
    6ade:	428c      	cmp	r4, r1
    6ae0:	d002      	beq.n	6ae8 <__mcmp+0x26>
    6ae2:	d307      	bcc.n	6af4 <__mcmp+0x32>
    6ae4:	2001      	movs	r0, #1
    6ae6:	bd10      	pop	{r4, pc}
    6ae8:	4283      	cmp	r3, r0
    6aea:	d8f4      	bhi.n	6ad6 <__mcmp+0x14>
    6aec:	2000      	movs	r0, #0
    6aee:	bd10      	pop	{r4, pc}
    6af0:	4618      	mov	r0, r3
    6af2:	bd10      	pop	{r4, pc}
    6af4:	f04f 30ff 	mov.w	r0, #4294967295
    6af8:	bd10      	pop	{r4, pc}

00006afa <__mdiff>:
    6afa:	e92d 43f8 	stmdb	sp!, {r3, r4, r5, r6, r7, r8, r9, lr}
    6afe:	4607      	mov	r7, r0
    6b00:	460c      	mov	r4, r1
    6b02:	4608      	mov	r0, r1
    6b04:	4611      	mov	r1, r2
    6b06:	4615      	mov	r5, r2
    6b08:	f7ff ffdb 	bl	6ac2 <__mcmp>
    6b0c:	1e06      	subs	r6, r0, #0
    6b0e:	d108      	bne.n	6b22 <__mdiff+0x28>
    6b10:	4638      	mov	r0, r7
    6b12:	4631      	mov	r1, r6
    6b14:	f7ff fd83 	bl	661e <_Balloc>
    6b18:	2301      	movs	r3, #1
    6b1a:	6103      	str	r3, [r0, #16]
    6b1c:	6146      	str	r6, [r0, #20]
    6b1e:	e8bd 83f8 	ldmia.w	sp!, {r3, r4, r5, r6, r7, r8, r9, pc}
    6b22:	bfbc      	itt	lt
    6b24:	4623      	movlt	r3, r4
    6b26:	462c      	movlt	r4, r5
    6b28:	4638      	mov	r0, r7
    6b2a:	6861      	ldr	r1, [r4, #4]
    6b2c:	bfba      	itte	lt
    6b2e:	461d      	movlt	r5, r3
    6b30:	2601      	movlt	r6, #1
    6b32:	2600      	movge	r6, #0
    6b34:	f7ff fd73 	bl	661e <_Balloc>
    6b38:	692b      	ldr	r3, [r5, #16]
    6b3a:	60c6      	str	r6, [r0, #12]
    6b3c:	6926      	ldr	r6, [r4, #16]
    6b3e:	f105 0914 	add.w	r9, r5, #20
    6b42:	f104 0114 	add.w	r1, r4, #20
    6b46:	eb01 0786 	add.w	r7, r1, r6, lsl #2
    6b4a:	eb09 0883 	add.w	r8, r9, r3, lsl #2
    6b4e:	f100 0514 	add.w	r5, r0, #20
    6b52:	f04f 0c00 	mov.w	ip, #0
    6b56:	f851 2b04 	ldr.w	r2, [r1], #4
    6b5a:	f859 4b04 	ldr.w	r4, [r9], #4
    6b5e:	b293      	uxth	r3, r2
    6b60:	449c      	add	ip, r3
    6b62:	b2a3      	uxth	r3, r4
    6b64:	0c24      	lsrs	r4, r4, #16
    6b66:	ebc3 030c 	rsb	r3, r3, ip
    6b6a:	ebc4 4212 	rsb	r2, r4, r2, lsr #16
    6b6e:	eb02 4223 	add.w	r2, r2, r3, asr #16
    6b72:	b29b      	uxth	r3, r3
    6b74:	ea4f 4c22 	mov.w	ip, r2, asr #16
    6b78:	45c8      	cmp	r8, r9
    6b7a:	ea43 4202 	orr.w	r2, r3, r2, lsl #16
    6b7e:	468e      	mov	lr, r1
    6b80:	f845 2b04 	str.w	r2, [r5], #4
    6b84:	d8e7      	bhi.n	6b56 <__mdiff+0x5c>
    6b86:	45be      	cmp	lr, r7
    6b88:	d20e      	bcs.n	6ba8 <__mdiff+0xae>
    6b8a:	f85e 3b04 	ldr.w	r3, [lr], #4
    6b8e:	b29a      	uxth	r2, r3
    6b90:	4462      	add	r2, ip
    6b92:	0c1b      	lsrs	r3, r3, #16
    6b94:	eb03 4322 	add.w	r3, r3, r2, asr #16
    6b98:	b292      	uxth	r2, r2
    6b9a:	ea42 4203 	orr.w	r2, r2, r3, lsl #16
    6b9e:	ea4f 4c23 	mov.w	ip, r3, asr #16
    6ba2:	f845 2b04 	str.w	r2, [r5], #4
    6ba6:	e7ee      	b.n	6b86 <__mdiff+0x8c>
    6ba8:	f855 3d04 	ldr.w	r3, [r5, #-4]!
    6bac:	b90b      	cbnz	r3, 6bb2 <__mdiff+0xb8>
    6bae:	3e01      	subs	r6, #1
    6bb0:	e7fa      	b.n	6ba8 <__mdiff+0xae>
    6bb2:	6106      	str	r6, [r0, #16]
    6bb4:	e8bd 83f8 	ldmia.w	sp!, {r3, r4, r5, r6, r7, r8, r9, pc}

00006bb8 <__ulp>:
    6bb8:	4b10      	ldr	r3, [pc, #64]	; (6bfc <__ulp+0x44>)
    6bba:	400b      	ands	r3, r1
    6bbc:	f1a3 7350 	sub.w	r3, r3, #54525952	; 0x3400000
    6bc0:	2b00      	cmp	r3, #0
    6bc2:	dd02      	ble.n	6bca <__ulp+0x12>
    6bc4:	2000      	movs	r0, #0
    6bc6:	4619      	mov	r1, r3
    6bc8:	4770      	bx	lr
    6bca:	425b      	negs	r3, r3
    6bcc:	151b      	asrs	r3, r3, #20
    6bce:	2b13      	cmp	r3, #19
    6bd0:	f04f 0000 	mov.w	r0, #0
    6bd4:	f04f 0100 	mov.w	r1, #0
    6bd8:	dc04      	bgt.n	6be4 <__ulp+0x2c>
    6bda:	f44f 2200 	mov.w	r2, #524288	; 0x80000
    6bde:	fa42 f103 	asr.w	r1, r2, r3
    6be2:	4770      	bx	lr
    6be4:	2b32      	cmp	r3, #50	; 0x32
    6be6:	f04f 0201 	mov.w	r2, #1
    6bea:	bfce      	itee	gt
    6bec:	4613      	movgt	r3, r2
    6bee:	f1c3 0333 	rsble	r3, r3, #51	; 0x33
    6bf2:	fa02 f303 	lslle.w	r3, r2, r3
    6bf6:	4618      	mov	r0, r3
    6bf8:	4770      	bx	lr
    6bfa:	bf00      	nop
    6bfc:	7ff00000 	.word	0x7ff00000

00006c00 <__b2d>:
    6c00:	e92d 41f0 	stmdb	sp!, {r4, r5, r6, r7, r8, lr}
    6c04:	6905      	ldr	r5, [r0, #16]
    6c06:	f100 0714 	add.w	r7, r0, #20
    6c0a:	eb07 0585 	add.w	r5, r7, r5, lsl #2
    6c0e:	f855 4c04 	ldr.w	r4, [r5, #-4]
    6c12:	4688      	mov	r8, r1
    6c14:	4620      	mov	r0, r4
    6c16:	f7ff fdcc 	bl	67b2 <__hi0bits>
    6c1a:	f1c0 0320 	rsb	r3, r0, #32
    6c1e:	280a      	cmp	r0, #10
    6c20:	f1a5 0604 	sub.w	r6, r5, #4
    6c24:	f8c8 3000 	str.w	r3, [r8]
    6c28:	dc11      	bgt.n	6c4e <__b2d+0x4e>
    6c2a:	f1c0 0e0b 	rsb	lr, r0, #11
    6c2e:	fa24 f10e 	lsr.w	r1, r4, lr
    6c32:	42be      	cmp	r6, r7
    6c34:	f041 537f 	orr.w	r3, r1, #1069547520	; 0x3fc00000
    6c38:	bf8c      	ite	hi
    6c3a:	f855 1c08 	ldrhi.w	r1, [r5, #-8]
    6c3e:	2100      	movls	r1, #0
    6c40:	3015      	adds	r0, #21
    6c42:	f443 1340 	orr.w	r3, r3, #3145728	; 0x300000
    6c46:	fa21 f10e 	lsr.w	r1, r1, lr
    6c4a:	4084      	lsls	r4, r0
    6c4c:	e01b      	b.n	6c86 <__b2d+0x86>
    6c4e:	42be      	cmp	r6, r7
    6c50:	bf86      	itte	hi
    6c52:	f1a5 0608 	subhi.w	r6, r5, #8
    6c56:	f855 1c08 	ldrhi.w	r1, [r5, #-8]
    6c5a:	2100      	movls	r1, #0
    6c5c:	f1b0 050b 	subs.w	r5, r0, #11
    6c60:	d014      	beq.n	6c8c <__b2d+0x8c>
    6c62:	40ac      	lsls	r4, r5
    6c64:	f1c0 002b 	rsb	r0, r0, #43	; 0x2b
    6c68:	f044 547f 	orr.w	r4, r4, #1069547520	; 0x3fc00000
    6c6c:	f444 1440 	orr.w	r4, r4, #3145728	; 0x300000
    6c70:	fa21 fe00 	lsr.w	lr, r1, r0
    6c74:	42be      	cmp	r6, r7
    6c76:	ea44 030e 	orr.w	r3, r4, lr
    6c7a:	bf8c      	ite	hi
    6c7c:	f856 4c04 	ldrhi.w	r4, [r6, #-4]
    6c80:	2400      	movls	r4, #0
    6c82:	40c4      	lsrs	r4, r0
    6c84:	40a9      	lsls	r1, r5
    6c86:	ea44 0201 	orr.w	r2, r4, r1
    6c8a:	e004      	b.n	6c96 <__b2d+0x96>
    6c8c:	460a      	mov	r2, r1
    6c8e:	f044 537f 	orr.w	r3, r4, #1069547520	; 0x3fc00000
    6c92:	f443 1340 	orr.w	r3, r3, #3145728	; 0x300000
    6c96:	4610      	mov	r0, r2
    6c98:	4619      	mov	r1, r3
    6c9a:	e8bd 81f0 	ldmia.w	sp!, {r4, r5, r6, r7, r8, pc}

00006c9e <__d2b>:
    6c9e:	e92d 41f3 	stmdb	sp!, {r0, r1, r4, r5, r6, r7, r8, lr}
    6ca2:	461c      	mov	r4, r3
    6ca4:	2101      	movs	r1, #1
    6ca6:	4615      	mov	r5, r2
    6ca8:	9f08      	ldr	r7, [sp, #32]
    6caa:	9e09      	ldr	r6, [sp, #36]	; 0x24
    6cac:	f7ff fcb7 	bl	661e <_Balloc>
    6cb0:	f3c4 0213 	ubfx	r2, r4, #0, #20
    6cb4:	f3c4 540a 	ubfx	r4, r4, #20, #11
    6cb8:	4680      	mov	r8, r0
    6cba:	b10c      	cbz	r4, 6cc0 <__d2b+0x22>
    6cbc:	f442 1280 	orr.w	r2, r2, #1048576	; 0x100000
    6cc0:	9201      	str	r2, [sp, #4]
    6cc2:	b1ed      	cbz	r5, 6d00 <__d2b+0x62>
    6cc4:	a802      	add	r0, sp, #8
    6cc6:	f840 5d08 	str.w	r5, [r0, #-8]!
    6cca:	f7ff fd92 	bl	67f2 <__lo0bits>
    6cce:	9b00      	ldr	r3, [sp, #0]
    6cd0:	b150      	cbz	r0, 6ce8 <__d2b+0x4a>
    6cd2:	9a01      	ldr	r2, [sp, #4]
    6cd4:	f1c0 0120 	rsb	r1, r0, #32
    6cd8:	fa02 f101 	lsl.w	r1, r2, r1
    6cdc:	430b      	orrs	r3, r1
    6cde:	40c2      	lsrs	r2, r0
    6ce0:	f8c8 3014 	str.w	r3, [r8, #20]
    6ce4:	9201      	str	r2, [sp, #4]
    6ce6:	e001      	b.n	6cec <__d2b+0x4e>
    6ce8:	f8c8 3014 	str.w	r3, [r8, #20]
    6cec:	9b01      	ldr	r3, [sp, #4]
    6cee:	2b00      	cmp	r3, #0
    6cf0:	bf14      	ite	ne
    6cf2:	2502      	movne	r5, #2
    6cf4:	2501      	moveq	r5, #1
    6cf6:	f8c8 3018 	str.w	r3, [r8, #24]
    6cfa:	f8c8 5010 	str.w	r5, [r8, #16]
    6cfe:	e009      	b.n	6d14 <__d2b+0x76>
    6d00:	a801      	add	r0, sp, #4
    6d02:	f7ff fd76 	bl	67f2 <__lo0bits>
    6d06:	9b01      	ldr	r3, [sp, #4]
    6d08:	2501      	movs	r5, #1
    6d0a:	f8c8 3014 	str.w	r3, [r8, #20]
    6d0e:	f8c8 5010 	str.w	r5, [r8, #16]
    6d12:	3020      	adds	r0, #32
    6d14:	b134      	cbz	r4, 6d24 <__d2b+0x86>
    6d16:	f2a4 4433 	subw	r4, r4, #1075	; 0x433
    6d1a:	4404      	add	r4, r0
    6d1c:	603c      	str	r4, [r7, #0]
    6d1e:	f1c0 0035 	rsb	r0, r0, #53	; 0x35
    6d22:	e009      	b.n	6d38 <__d2b+0x9a>
    6d24:	f2a0 4032 	subw	r0, r0, #1074	; 0x432
    6d28:	eb08 0385 	add.w	r3, r8, r5, lsl #2
    6d2c:	6038      	str	r0, [r7, #0]
    6d2e:	6918      	ldr	r0, [r3, #16]
    6d30:	f7ff fd3f 	bl	67b2 <__hi0bits>
    6d34:	ebc0 1045 	rsb	r0, r0, r5, lsl #5
    6d38:	6030      	str	r0, [r6, #0]
    6d3a:	4640      	mov	r0, r8
    6d3c:	b002      	add	sp, #8
    6d3e:	e8bd 81f0 	ldmia.w	sp!, {r4, r5, r6, r7, r8, pc}

00006d42 <__ratio>:
    6d42:	e92d 43f7 	stmdb	sp!, {r0, r1, r2, r4, r5, r6, r7, r8, r9, lr}
    6d46:	4688      	mov	r8, r1
    6d48:	4669      	mov	r1, sp
    6d4a:	4681      	mov	r9, r0
    6d4c:	f7ff ff58 	bl	6c00 <__b2d>
    6d50:	460f      	mov	r7, r1
    6d52:	4606      	mov	r6, r0
    6d54:	a901      	add	r1, sp, #4
    6d56:	4640      	mov	r0, r8
    6d58:	f7ff ff52 	bl	6c00 <__b2d>
    6d5c:	460d      	mov	r5, r1
    6d5e:	4604      	mov	r4, r0
    6d60:	9a01      	ldr	r2, [sp, #4]
    6d62:	9b00      	ldr	r3, [sp, #0]
    6d64:	f8d8 1010 	ldr.w	r1, [r8, #16]
    6d68:	1a9b      	subs	r3, r3, r2
    6d6a:	f8d9 2010 	ldr.w	r2, [r9, #16]
    6d6e:	4630      	mov	r0, r6
    6d70:	1a52      	subs	r2, r2, r1
    6d72:	eb03 1342 	add.w	r3, r3, r2, lsl #5
    6d76:	2b00      	cmp	r3, #0
    6d78:	bfcc      	ite	gt
    6d7a:	eb07 5703 	addgt.w	r7, r7, r3, lsl #20
    6d7e:	eba5 5503 	suble.w	r5, r5, r3, lsl #20
    6d82:	4639      	mov	r1, r7
    6d84:	4622      	mov	r2, r4
    6d86:	462b      	mov	r3, r5
    6d88:	f000 fe64 	bl	7a54 <__aeabi_ddiv>
    6d8c:	b003      	add	sp, #12
    6d8e:	e8bd 83f0 	ldmia.w	sp!, {r4, r5, r6, r7, r8, r9, pc}

00006d92 <__copybits>:
    6d92:	3901      	subs	r1, #1
    6d94:	b510      	push	{r4, lr}
    6d96:	1149      	asrs	r1, r1, #5
    6d98:	6914      	ldr	r4, [r2, #16]
    6d9a:	3101      	adds	r1, #1
    6d9c:	f102 0314 	add.w	r3, r2, #20
    6da0:	eb00 0181 	add.w	r1, r0, r1, lsl #2
    6da4:	eb03 0484 	add.w	r4, r3, r4, lsl #2
    6da8:	42a3      	cmp	r3, r4
    6daa:	4602      	mov	r2, r0
    6dac:	d204      	bcs.n	6db8 <__copybits+0x26>
    6dae:	f853 2b04 	ldr.w	r2, [r3], #4
    6db2:	f840 2b04 	str.w	r2, [r0], #4
    6db6:	e7f7      	b.n	6da8 <__copybits+0x16>
    6db8:	428a      	cmp	r2, r1
    6dba:	d203      	bcs.n	6dc4 <__copybits+0x32>
    6dbc:	2300      	movs	r3, #0
    6dbe:	f842 3b04 	str.w	r3, [r2], #4
    6dc2:	e7f9      	b.n	6db8 <__copybits+0x26>
    6dc4:	bd10      	pop	{r4, pc}

00006dc6 <__any_on>:
    6dc6:	f100 0214 	add.w	r2, r0, #20
    6dca:	6900      	ldr	r0, [r0, #16]
    6dcc:	114b      	asrs	r3, r1, #5
    6dce:	4283      	cmp	r3, r0
    6dd0:	b510      	push	{r4, lr}
    6dd2:	dc0c      	bgt.n	6dee <__any_on+0x28>
    6dd4:	da0c      	bge.n	6df0 <__any_on+0x2a>
    6dd6:	f011 011f 	ands.w	r1, r1, #31
    6dda:	d009      	beq.n	6df0 <__any_on+0x2a>
    6ddc:	f852 4023 	ldr.w	r4, [r2, r3, lsl #2]
    6de0:	fa24 f001 	lsr.w	r0, r4, r1
    6de4:	fa00 f101 	lsl.w	r1, r0, r1
    6de8:	42a1      	cmp	r1, r4
    6dea:	d10c      	bne.n	6e06 <__any_on+0x40>
    6dec:	e000      	b.n	6df0 <__any_on+0x2a>
    6dee:	4603      	mov	r3, r0
    6df0:	eb02 0383 	add.w	r3, r2, r3, lsl #2
    6df4:	4293      	cmp	r3, r2
    6df6:	d904      	bls.n	6e02 <__any_on+0x3c>
    6df8:	f853 1d04 	ldr.w	r1, [r3, #-4]!
    6dfc:	2900      	cmp	r1, #0
    6dfe:	d0f9      	beq.n	6df4 <__any_on+0x2e>
    6e00:	e001      	b.n	6e06 <__any_on+0x40>
    6e02:	2000      	movs	r0, #0
    6e04:	bd10      	pop	{r4, pc}
    6e06:	2001      	movs	r0, #1
    6e08:	bd10      	pop	{r4, pc}

00006e0a <_calloc_r>:
    6e0a:	b538      	push	{r3, r4, r5, lr}
    6e0c:	fb02 f401 	mul.w	r4, r2, r1
    6e10:	4621      	mov	r1, r4
    6e12:	f7fb fb4f 	bl	24b4 <_malloc_r>
    6e16:	4605      	mov	r5, r0
    6e18:	b118      	cbz	r0, 6e22 <_calloc_r+0x18>
    6e1a:	2100      	movs	r1, #0
    6e1c:	4622      	mov	r2, r4
    6e1e:	f7fb fafc 	bl	241a <memset>
    6e22:	4628      	mov	r0, r5
    6e24:	bd38      	pop	{r3, r4, r5, pc}

00006e26 <_realloc_r>:
    6e26:	b5f8      	push	{r3, r4, r5, r6, r7, lr}
    6e28:	4607      	mov	r7, r0
    6e2a:	4615      	mov	r5, r2
    6e2c:	460e      	mov	r6, r1
    6e2e:	b921      	cbnz	r1, 6e3a <_realloc_r+0x14>
    6e30:	4611      	mov	r1, r2
    6e32:	e8bd 40f8 	ldmia.w	sp!, {r3, r4, r5, r6, r7, lr}
    6e36:	f7fb bb3d 	b.w	24b4 <_malloc_r>
    6e3a:	b91a      	cbnz	r2, 6e44 <_realloc_r+0x1e>
    6e3c:	f7fb faf6 	bl	242c <_free_r>
    6e40:	4628      	mov	r0, r5
    6e42:	bdf8      	pop	{r3, r4, r5, r6, r7, pc}
    6e44:	f000 fb1a 	bl	747c <_malloc_usable_size_r>
    6e48:	42a8      	cmp	r0, r5
    6e4a:	d20e      	bcs.n	6e6a <_realloc_r+0x44>
    6e4c:	4638      	mov	r0, r7
    6e4e:	4629      	mov	r1, r5
    6e50:	f7fb fb30 	bl	24b4 <_malloc_r>
    6e54:	4604      	mov	r4, r0
    6e56:	b150      	cbz	r0, 6e6e <_realloc_r+0x48>
    6e58:	4631      	mov	r1, r6
    6e5a:	462a      	mov	r2, r5
    6e5c:	f7fb fad2 	bl	2404 <memcpy>
    6e60:	4638      	mov	r0, r7
    6e62:	4631      	mov	r1, r6
    6e64:	f7fb fae2 	bl	242c <_free_r>
    6e68:	e001      	b.n	6e6e <_realloc_r+0x48>
    6e6a:	4630      	mov	r0, r6
    6e6c:	bdf8      	pop	{r3, r4, r5, r6, r7, pc}
    6e6e:	4620      	mov	r0, r4
    6e70:	bdf8      	pop	{r3, r4, r5, r6, r7, pc}

00006e72 <__ssputs_r>:
    6e72:	e92d 47f0 	stmdb	sp!, {r4, r5, r6, r7, r8, r9, sl, lr}
    6e76:	688e      	ldr	r6, [r1, #8]
    6e78:	4682      	mov	sl, r0
    6e7a:	42b3      	cmp	r3, r6
    6e7c:	460c      	mov	r4, r1
    6e7e:	4690      	mov	r8, r2
    6e80:	4699      	mov	r9, r3
    6e82:	d340      	bcc.n	6f06 <__ssputs_r+0x94>
    6e84:	898a      	ldrh	r2, [r1, #12]
    6e86:	f412 6f90 	tst.w	r2, #1152	; 0x480
    6e8a:	d03a      	beq.n	6f02 <__ssputs_r+0x90>
    6e8c:	6825      	ldr	r5, [r4, #0]
    6e8e:	6909      	ldr	r1, [r1, #16]
    6e90:	2302      	movs	r3, #2
    6e92:	1a6f      	subs	r7, r5, r1
    6e94:	6965      	ldr	r5, [r4, #20]
    6e96:	eb05 0545 	add.w	r5, r5, r5, lsl #1
    6e9a:	fb95 f5f3 	sdiv	r5, r5, r3
    6e9e:	1c7b      	adds	r3, r7, #1
    6ea0:	444b      	add	r3, r9
    6ea2:	429d      	cmp	r5, r3
    6ea4:	bf38      	it	cc
    6ea6:	461d      	movcc	r5, r3
    6ea8:	0553      	lsls	r3, r2, #21
    6eaa:	d50f      	bpl.n	6ecc <__ssputs_r+0x5a>
    6eac:	4629      	mov	r1, r5
    6eae:	f7fb fb01 	bl	24b4 <_malloc_r>
    6eb2:	4606      	mov	r6, r0
    6eb4:	b198      	cbz	r0, 6ede <__ssputs_r+0x6c>
    6eb6:	6921      	ldr	r1, [r4, #16]
    6eb8:	463a      	mov	r2, r7
    6eba:	f7fb faa3 	bl	2404 <memcpy>
    6ebe:	89a3      	ldrh	r3, [r4, #12]
    6ec0:	f423 6390 	bic.w	r3, r3, #1152	; 0x480
    6ec4:	f043 0380 	orr.w	r3, r3, #128	; 0x80
    6ec8:	81a3      	strh	r3, [r4, #12]
    6eca:	e013      	b.n	6ef4 <__ssputs_r+0x82>
    6ecc:	462a      	mov	r2, r5
    6ece:	f7ff ffaa 	bl	6e26 <_realloc_r>
    6ed2:	4606      	mov	r6, r0
    6ed4:	b970      	cbnz	r0, 6ef4 <__ssputs_r+0x82>
    6ed6:	4650      	mov	r0, sl
    6ed8:	6921      	ldr	r1, [r4, #16]
    6eda:	f7fb faa7 	bl	242c <_free_r>
    6ede:	230c      	movs	r3, #12
    6ee0:	f8ca 3000 	str.w	r3, [sl]
    6ee4:	89a3      	ldrh	r3, [r4, #12]
    6ee6:	f04f 30ff 	mov.w	r0, #4294967295
    6eea:	f043 0340 	orr.w	r3, r3, #64	; 0x40
    6eee:	81a3      	strh	r3, [r4, #12]
    6ef0:	e8bd 87f0 	ldmia.w	sp!, {r4, r5, r6, r7, r8, r9, sl, pc}
    6ef4:	6126      	str	r6, [r4, #16]
    6ef6:	443e      	add	r6, r7
    6ef8:	6026      	str	r6, [r4, #0]
    6efa:	464e      	mov	r6, r9
    6efc:	6165      	str	r5, [r4, #20]
    6efe:	1bed      	subs	r5, r5, r7
    6f00:	60a5      	str	r5, [r4, #8]
    6f02:	45b1      	cmp	r9, r6
    6f04:	d200      	bcs.n	6f08 <__ssputs_r+0x96>
    6f06:	464e      	mov	r6, r9
    6f08:	4632      	mov	r2, r6
    6f0a:	6820      	ldr	r0, [r4, #0]
    6f0c:	4641      	mov	r1, r8
    6f0e:	f7ff fb6b 	bl	65e8 <memmove>
    6f12:	68a3      	ldr	r3, [r4, #8]
    6f14:	2000      	movs	r0, #0
    6f16:	1b9b      	subs	r3, r3, r6
    6f18:	60a3      	str	r3, [r4, #8]
    6f1a:	6823      	ldr	r3, [r4, #0]
    6f1c:	441e      	add	r6, r3
    6f1e:	6026      	str	r6, [r4, #0]
    6f20:	e8bd 87f0 	ldmia.w	sp!, {r4, r5, r6, r7, r8, r9, sl, pc}

00006f24 <_svfiprintf_r>:
    6f24:	e92d 43f0 	stmdb	sp!, {r4, r5, r6, r7, r8, r9, lr}
    6f28:	b09d      	sub	sp, #116	; 0x74
    6f2a:	9303      	str	r3, [sp, #12]
    6f2c:	898b      	ldrh	r3, [r1, #12]
    6f2e:	4606      	mov	r6, r0
    6f30:	061c      	lsls	r4, r3, #24
    6f32:	460d      	mov	r5, r1
    6f34:	4690      	mov	r8, r2
    6f36:	d50c      	bpl.n	6f52 <_svfiprintf_r+0x2e>
    6f38:	690b      	ldr	r3, [r1, #16]
    6f3a:	b953      	cbnz	r3, 6f52 <_svfiprintf_r+0x2e>
    6f3c:	2140      	movs	r1, #64	; 0x40
    6f3e:	f7fb fab9 	bl	24b4 <_malloc_r>
    6f42:	6028      	str	r0, [r5, #0]
    6f44:	6128      	str	r0, [r5, #16]
    6f46:	b910      	cbnz	r0, 6f4e <_svfiprintf_r+0x2a>
    6f48:	230c      	movs	r3, #12
    6f4a:	6033      	str	r3, [r6, #0]
    6f4c:	e0cc      	b.n	70e8 <_svfiprintf_r+0x1c4>
    6f4e:	2340      	movs	r3, #64	; 0x40
    6f50:	616b      	str	r3, [r5, #20]
    6f52:	2300      	movs	r3, #0
    6f54:	9309      	str	r3, [sp, #36]	; 0x24
    6f56:	2320      	movs	r3, #32
    6f58:	f88d 3029 	strb.w	r3, [sp, #41]	; 0x29
    6f5c:	2330      	movs	r3, #48	; 0x30
    6f5e:	f88d 302a 	strb.w	r3, [sp, #42]	; 0x2a
    6f62:	4643      	mov	r3, r8
    6f64:	461c      	mov	r4, r3
    6f66:	f813 2b01 	ldrb.w	r2, [r3], #1
    6f6a:	b91a      	cbnz	r2, 6f74 <_svfiprintf_r+0x50>
    6f6c:	ebb4 0908 	subs.w	r9, r4, r8
    6f70:	d00f      	beq.n	6f92 <_svfiprintf_r+0x6e>
    6f72:	e002      	b.n	6f7a <_svfiprintf_r+0x56>
    6f74:	2a25      	cmp	r2, #37	; 0x25
    6f76:	d1f5      	bne.n	6f64 <_svfiprintf_r+0x40>
    6f78:	e7f8      	b.n	6f6c <_svfiprintf_r+0x48>
    6f7a:	4630      	mov	r0, r6
    6f7c:	4629      	mov	r1, r5
    6f7e:	4642      	mov	r2, r8
    6f80:	464b      	mov	r3, r9
    6f82:	f7ff ff76 	bl	6e72 <__ssputs_r>
    6f86:	3001      	adds	r0, #1
    6f88:	f000 80a9 	beq.w	70de <_svfiprintf_r+0x1ba>
    6f8c:	9b09      	ldr	r3, [sp, #36]	; 0x24
    6f8e:	444b      	add	r3, r9
    6f90:	9309      	str	r3, [sp, #36]	; 0x24
    6f92:	7823      	ldrb	r3, [r4, #0]
    6f94:	2b00      	cmp	r3, #0
    6f96:	f000 80a2 	beq.w	70de <_svfiprintf_r+0x1ba>
    6f9a:	2300      	movs	r3, #0
    6f9c:	f04f 32ff 	mov.w	r2, #4294967295
    6fa0:	9304      	str	r3, [sp, #16]
    6fa2:	9307      	str	r3, [sp, #28]
    6fa4:	9205      	str	r2, [sp, #20]
    6fa6:	9306      	str	r3, [sp, #24]
    6fa8:	f88d 3053 	strb.w	r3, [sp, #83]	; 0x53
    6fac:	931a      	str	r3, [sp, #104]	; 0x68
    6fae:	f104 0801 	add.w	r8, r4, #1
    6fb2:	4644      	mov	r4, r8
    6fb4:	f8df 9148 	ldr.w	r9, [pc, #328]	; 7100 <_svfiprintf_r+0x1dc>
    6fb8:	7821      	ldrb	r1, [r4, #0]
    6fba:	4648      	mov	r0, r9
    6fbc:	2205      	movs	r2, #5
    6fbe:	f7fb fa13 	bl	23e8 <memchr>
    6fc2:	f108 0801 	add.w	r8, r8, #1
    6fc6:	9b04      	ldr	r3, [sp, #16]
    6fc8:	b130      	cbz	r0, 6fd8 <_svfiprintf_r+0xb4>
    6fca:	ebc9 0000 	rsb	r0, r9, r0
    6fce:	2201      	movs	r2, #1
    6fd0:	4082      	lsls	r2, r0
    6fd2:	4313      	orrs	r3, r2
    6fd4:	9304      	str	r3, [sp, #16]
    6fd6:	e7ec      	b.n	6fb2 <_svfiprintf_r+0x8e>
    6fd8:	06d8      	lsls	r0, r3, #27
    6fda:	bf44      	itt	mi
    6fdc:	2220      	movmi	r2, #32
    6fde:	f88d 2053 	strbmi.w	r2, [sp, #83]	; 0x53
    6fe2:	0719      	lsls	r1, r3, #28
    6fe4:	bf44      	itt	mi
    6fe6:	222b      	movmi	r2, #43	; 0x2b
    6fe8:	f88d 2053 	strbmi.w	r2, [sp, #83]	; 0x53
    6fec:	7822      	ldrb	r2, [r4, #0]
    6fee:	2a2a      	cmp	r2, #42	; 0x2a
    6ff0:	d002      	beq.n	6ff8 <_svfiprintf_r+0xd4>
    6ff2:	9907      	ldr	r1, [sp, #28]
    6ff4:	4623      	mov	r3, r4
    6ff6:	e00e      	b.n	7016 <_svfiprintf_r+0xf2>
    6ff8:	9a03      	ldr	r2, [sp, #12]
    6ffa:	3401      	adds	r4, #1
    6ffc:	1d11      	adds	r1, r2, #4
    6ffe:	6812      	ldr	r2, [r2, #0]
    7000:	9103      	str	r1, [sp, #12]
    7002:	2a00      	cmp	r2, #0
    7004:	bfbb      	ittet	lt
    7006:	4252      	neglt	r2, r2
    7008:	f043 0302 	orrlt.w	r3, r3, #2
    700c:	9207      	strge	r2, [sp, #28]
    700e:	9207      	strlt	r2, [sp, #28]
    7010:	bfb8      	it	lt
    7012:	9304      	strlt	r3, [sp, #16]
    7014:	e00a      	b.n	702c <_svfiprintf_r+0x108>
    7016:	461c      	mov	r4, r3
    7018:	7822      	ldrb	r2, [r4, #0]
    701a:	3301      	adds	r3, #1
    701c:	3a30      	subs	r2, #48	; 0x30
    701e:	2a09      	cmp	r2, #9
    7020:	d803      	bhi.n	702a <_svfiprintf_r+0x106>
    7022:	200a      	movs	r0, #10
    7024:	fb00 2101 	mla	r1, r0, r1, r2
    7028:	e7f5      	b.n	7016 <_svfiprintf_r+0xf2>
    702a:	9107      	str	r1, [sp, #28]
    702c:	7823      	ldrb	r3, [r4, #0]
    702e:	2b2e      	cmp	r3, #46	; 0x2e
    7030:	d11a      	bne.n	7068 <_svfiprintf_r+0x144>
    7032:	7863      	ldrb	r3, [r4, #1]
    7034:	2b2a      	cmp	r3, #42	; 0x2a
    7036:	d10a      	bne.n	704e <_svfiprintf_r+0x12a>
    7038:	9b03      	ldr	r3, [sp, #12]
    703a:	3402      	adds	r4, #2
    703c:	1d1a      	adds	r2, r3, #4
    703e:	681b      	ldr	r3, [r3, #0]
    7040:	9203      	str	r2, [sp, #12]
    7042:	2b00      	cmp	r3, #0
    7044:	bfb8      	it	lt
    7046:	f04f 33ff 	movlt.w	r3, #4294967295
    704a:	9305      	str	r3, [sp, #20]
    704c:	e00c      	b.n	7068 <_svfiprintf_r+0x144>
    704e:	1c61      	adds	r1, r4, #1
    7050:	2200      	movs	r2, #0
    7052:	460c      	mov	r4, r1
    7054:	7823      	ldrb	r3, [r4, #0]
    7056:	3101      	adds	r1, #1
    7058:	3b30      	subs	r3, #48	; 0x30
    705a:	2b09      	cmp	r3, #9
    705c:	d803      	bhi.n	7066 <_svfiprintf_r+0x142>
    705e:	200a      	movs	r0, #10
    7060:	fb00 3202 	mla	r2, r0, r2, r3
    7064:	e7f5      	b.n	7052 <_svfiprintf_r+0x12e>
    7066:	9205      	str	r2, [sp, #20]
    7068:	f8df 8098 	ldr.w	r8, [pc, #152]	; 7104 <_svfiprintf_r+0x1e0>
    706c:	7821      	ldrb	r1, [r4, #0]
    706e:	4640      	mov	r0, r8
    7070:	2203      	movs	r2, #3
    7072:	f7fb f9b9 	bl	23e8 <memchr>
    7076:	b138      	cbz	r0, 7088 <_svfiprintf_r+0x164>
    7078:	9a04      	ldr	r2, [sp, #16]
    707a:	ebc8 0000 	rsb	r0, r8, r0
    707e:	2340      	movs	r3, #64	; 0x40
    7080:	4083      	lsls	r3, r0
    7082:	4313      	orrs	r3, r2
    7084:	9304      	str	r3, [sp, #16]
    7086:	3401      	adds	r4, #1
    7088:	7821      	ldrb	r1, [r4, #0]
    708a:	481a      	ldr	r0, [pc, #104]	; (70f4 <_svfiprintf_r+0x1d0>)
    708c:	2206      	movs	r2, #6
    708e:	f104 0801 	add.w	r8, r4, #1
    7092:	f88d 1028 	strb.w	r1, [sp, #40]	; 0x28
    7096:	f7fb f9a7 	bl	23e8 <memchr>
    709a:	b188      	cbz	r0, 70c0 <_svfiprintf_r+0x19c>
    709c:	4b16      	ldr	r3, [pc, #88]	; (70f8 <_svfiprintf_r+0x1d4>)
    709e:	b933      	cbnz	r3, 70ae <_svfiprintf_r+0x18a>
    70a0:	9b03      	ldr	r3, [sp, #12]
    70a2:	3307      	adds	r3, #7
    70a4:	f023 0307 	bic.w	r3, r3, #7
    70a8:	3308      	adds	r3, #8
    70aa:	9303      	str	r3, [sp, #12]
    70ac:	e013      	b.n	70d6 <_svfiprintf_r+0x1b2>
    70ae:	ab03      	add	r3, sp, #12
    70b0:	9300      	str	r3, [sp, #0]
    70b2:	4630      	mov	r0, r6
    70b4:	a904      	add	r1, sp, #16
    70b6:	462a      	mov	r2, r5
    70b8:	4b10      	ldr	r3, [pc, #64]	; (70fc <_svfiprintf_r+0x1d8>)
    70ba:	f7fb fc1f 	bl	28fc <_printf_float>
    70be:	e007      	b.n	70d0 <_svfiprintf_r+0x1ac>
    70c0:	ab03      	add	r3, sp, #12
    70c2:	9300      	str	r3, [sp, #0]
    70c4:	4630      	mov	r0, r6
    70c6:	a904      	add	r1, sp, #16
    70c8:	462a      	mov	r2, r5
    70ca:	4b0c      	ldr	r3, [pc, #48]	; (70fc <_svfiprintf_r+0x1d8>)
    70cc:	f7fb fed2 	bl	2e74 <_printf_i>
    70d0:	1c42      	adds	r2, r0, #1
    70d2:	4607      	mov	r7, r0
    70d4:	d003      	beq.n	70de <_svfiprintf_r+0x1ba>
    70d6:	9b09      	ldr	r3, [sp, #36]	; 0x24
    70d8:	443b      	add	r3, r7
    70da:	9309      	str	r3, [sp, #36]	; 0x24
    70dc:	e741      	b.n	6f62 <_svfiprintf_r+0x3e>
    70de:	89ab      	ldrh	r3, [r5, #12]
    70e0:	065b      	lsls	r3, r3, #25
    70e2:	d401      	bmi.n	70e8 <_svfiprintf_r+0x1c4>
    70e4:	9809      	ldr	r0, [sp, #36]	; 0x24
    70e6:	e001      	b.n	70ec <_svfiprintf_r+0x1c8>
    70e8:	f04f 30ff 	mov.w	r0, #4294967295
    70ec:	b01d      	add	sp, #116	; 0x74
    70ee:	e8bd 83f0 	ldmia.w	sp!, {r4, r5, r6, r7, r8, r9, pc}
    70f2:	bf00      	nop
    70f4:	000085ca 	.word	0x000085ca
    70f8:	000028fd 	.word	0x000028fd
    70fc:	00006e73 	.word	0x00006e73
    7100:	000085c0 	.word	0x000085c0
    7104:	000085c6 	.word	0x000085c6

00007108 <_sungetc_r>:
    7108:	b538      	push	{r3, r4, r5, lr}
    710a:	1c4b      	adds	r3, r1, #1
    710c:	4614      	mov	r4, r2
    710e:	d102      	bne.n	7116 <_sungetc_r+0xe>
    7110:	f04f 30ff 	mov.w	r0, #4294967295
    7114:	bd38      	pop	{r3, r4, r5, pc}
    7116:	8993      	ldrh	r3, [r2, #12]
    7118:	b2cd      	uxtb	r5, r1
    711a:	f023 0320 	bic.w	r3, r3, #32
    711e:	8193      	strh	r3, [r2, #12]
    7120:	6b53      	ldr	r3, [r2, #52]	; 0x34
    7122:	6852      	ldr	r2, [r2, #4]
    7124:	b183      	cbz	r3, 7148 <_sungetc_r+0x40>
    7126:	6ba3      	ldr	r3, [r4, #56]	; 0x38
    7128:	429a      	cmp	r2, r3
    712a:	da07      	bge.n	713c <_sungetc_r+0x34>
    712c:	6823      	ldr	r3, [r4, #0]
    712e:	1e5a      	subs	r2, r3, #1
    7130:	6022      	str	r2, [r4, #0]
    7132:	f803 5c01 	strb.w	r5, [r3, #-1]
    7136:	6863      	ldr	r3, [r4, #4]
    7138:	3301      	adds	r3, #1
    713a:	e01f      	b.n	717c <_sungetc_r+0x74>
    713c:	4621      	mov	r1, r4
    713e:	f7fd ff01 	bl	4f44 <__submore>
    7142:	2800      	cmp	r0, #0
    7144:	d0f2      	beq.n	712c <_sungetc_r+0x24>
    7146:	e7e3      	b.n	7110 <_sungetc_r+0x8>
    7148:	6921      	ldr	r1, [r4, #16]
    714a:	6823      	ldr	r3, [r4, #0]
    714c:	b151      	cbz	r1, 7164 <_sungetc_r+0x5c>
    714e:	428b      	cmp	r3, r1
    7150:	d908      	bls.n	7164 <_sungetc_r+0x5c>
    7152:	f813 0c01 	ldrb.w	r0, [r3, #-1]
    7156:	42a8      	cmp	r0, r5
    7158:	d104      	bne.n	7164 <_sungetc_r+0x5c>
    715a:	3b01      	subs	r3, #1
    715c:	3201      	adds	r2, #1
    715e:	6023      	str	r3, [r4, #0]
    7160:	6062      	str	r2, [r4, #4]
    7162:	bd38      	pop	{r3, r4, r5, pc}
    7164:	63e3      	str	r3, [r4, #60]	; 0x3c
    7166:	f104 0344 	add.w	r3, r4, #68	; 0x44
    716a:	6363      	str	r3, [r4, #52]	; 0x34
    716c:	2303      	movs	r3, #3
    716e:	63a3      	str	r3, [r4, #56]	; 0x38
    7170:	4623      	mov	r3, r4
    7172:	6422      	str	r2, [r4, #64]	; 0x40
    7174:	f803 5f46 	strb.w	r5, [r3, #70]!
    7178:	6023      	str	r3, [r4, #0]
    717a:	2301      	movs	r3, #1
    717c:	6063      	str	r3, [r4, #4]
    717e:	4628      	mov	r0, r5
    7180:	bd38      	pop	{r3, r4, r5, pc}

00007182 <__ssrefill_r>:
    7182:	b510      	push	{r4, lr}
    7184:	460c      	mov	r4, r1
    7186:	6b49      	ldr	r1, [r1, #52]	; 0x34
    7188:	b169      	cbz	r1, 71a6 <__ssrefill_r+0x24>
    718a:	f104 0344 	add.w	r3, r4, #68	; 0x44
    718e:	4299      	cmp	r1, r3
    7190:	d001      	beq.n	7196 <__ssrefill_r+0x14>
    7192:	f7fb f94b 	bl	242c <_free_r>
    7196:	6c23      	ldr	r3, [r4, #64]	; 0x40
    7198:	2000      	movs	r0, #0
    719a:	6360      	str	r0, [r4, #52]	; 0x34
    719c:	6063      	str	r3, [r4, #4]
    719e:	b113      	cbz	r3, 71a6 <__ssrefill_r+0x24>
    71a0:	6be3      	ldr	r3, [r4, #60]	; 0x3c
    71a2:	6023      	str	r3, [r4, #0]
    71a4:	bd10      	pop	{r4, pc}
    71a6:	6923      	ldr	r3, [r4, #16]
    71a8:	f04f 30ff 	mov.w	r0, #4294967295
    71ac:	6023      	str	r3, [r4, #0]
    71ae:	2300      	movs	r3, #0
    71b0:	6063      	str	r3, [r4, #4]
    71b2:	89a3      	ldrh	r3, [r4, #12]
    71b4:	f043 0320 	orr.w	r3, r3, #32
    71b8:	81a3      	strh	r3, [r4, #12]
    71ba:	bd10      	pop	{r4, pc}

000071bc <__ssvfiscanf_r>:
    71bc:	e92d 47f0 	stmdb	sp!, {r4, r5, r6, r7, r8, r9, sl, lr}
    71c0:	4607      	mov	r7, r0
    71c2:	460c      	mov	r4, r1
    71c4:	4690      	mov	r8, r2
    71c6:	f5ad 7d24 	sub.w	sp, sp, #656	; 0x290
    71ca:	9301      	str	r3, [sp, #4]
    71cc:	2300      	movs	r3, #0
    71ce:	9346      	str	r3, [sp, #280]	; 0x118
    71d0:	9347      	str	r3, [sp, #284]	; 0x11c
    71d2:	4b9c      	ldr	r3, [pc, #624]	; (7444 <__ssvfiscanf_r+0x288>)
    71d4:	f10d 0a0c 	add.w	sl, sp, #12
    71d8:	93a2      	str	r3, [sp, #648]	; 0x288
    71da:	4b9b      	ldr	r3, [pc, #620]	; (7448 <__ssvfiscanf_r+0x28c>)
    71dc:	f8cd a120 	str.w	sl, [sp, #288]	; 0x120
    71e0:	93a3      	str	r3, [sp, #652]	; 0x28c
    71e2:	f898 5000 	ldrb.w	r5, [r8]
    71e6:	2d00      	cmp	r5, #0
    71e8:	f000 8124 	beq.w	7434 <__ssvfiscanf_r+0x278>
    71ec:	4997      	ldr	r1, [pc, #604]	; (744c <__ssvfiscanf_r+0x290>)
    71ee:	680b      	ldr	r3, [r1, #0]
    71f0:	4689      	mov	r9, r1
    71f2:	442b      	add	r3, r5
    71f4:	785b      	ldrb	r3, [r3, #1]
    71f6:	f003 0308 	and.w	r3, r3, #8
    71fa:	f003 02ff 	and.w	r2, r3, #255	; 0xff
    71fe:	b1eb      	cbz	r3, 723c <__ssvfiscanf_r+0x80>
    7200:	6863      	ldr	r3, [r4, #4]
    7202:	2b00      	cmp	r3, #0
    7204:	dd10      	ble.n	7228 <__ssvfiscanf_r+0x6c>
    7206:	6823      	ldr	r3, [r4, #0]
    7208:	f8d9 1000 	ldr.w	r1, [r9]
    720c:	781a      	ldrb	r2, [r3, #0]
    720e:	440a      	add	r2, r1
    7210:	7852      	ldrb	r2, [r2, #1]
    7212:	0715      	lsls	r5, r2, #28
    7214:	d50e      	bpl.n	7234 <__ssvfiscanf_r+0x78>
    7216:	9a47      	ldr	r2, [sp, #284]	; 0x11c
    7218:	3301      	adds	r3, #1
    721a:	3201      	adds	r2, #1
    721c:	9247      	str	r2, [sp, #284]	; 0x11c
    721e:	6862      	ldr	r2, [r4, #4]
    7220:	6023      	str	r3, [r4, #0]
    7222:	3a01      	subs	r2, #1
    7224:	6062      	str	r2, [r4, #4]
    7226:	e7eb      	b.n	7200 <__ssvfiscanf_r+0x44>
    7228:	9ba3      	ldr	r3, [sp, #652]	; 0x28c
    722a:	4638      	mov	r0, r7
    722c:	4621      	mov	r1, r4
    722e:	4798      	blx	r3
    7230:	2800      	cmp	r0, #0
    7232:	d0e8      	beq.n	7206 <__ssvfiscanf_r+0x4a>
    7234:	f108 0601 	add.w	r6, r8, #1
    7238:	46b0      	mov	r8, r6
    723a:	e7d2      	b.n	71e2 <__ssvfiscanf_r+0x26>
    723c:	2d25      	cmp	r5, #37	; 0x25
    723e:	f108 0601 	add.w	r6, r8, #1
    7242:	d14f      	bne.n	72e4 <__ssvfiscanf_r+0x128>
    7244:	9245      	str	r2, [sp, #276]	; 0x114
    7246:	9243      	str	r2, [sp, #268]	; 0x10c
    7248:	f898 3001 	ldrb.w	r3, [r8, #1]
    724c:	2b2a      	cmp	r3, #42	; 0x2a
    724e:	d103      	bne.n	7258 <__ssvfiscanf_r+0x9c>
    7250:	2310      	movs	r3, #16
    7252:	9343      	str	r3, [sp, #268]	; 0x10c
    7254:	f108 0602 	add.w	r6, r8, #2
    7258:	7831      	ldrb	r1, [r6, #0]
    725a:	4635      	mov	r5, r6
    725c:	f1a1 0330 	sub.w	r3, r1, #48	; 0x30
    7260:	2b09      	cmp	r3, #9
    7262:	f106 0601 	add.w	r6, r6, #1
    7266:	d806      	bhi.n	7276 <__ssvfiscanf_r+0xba>
    7268:	9b45      	ldr	r3, [sp, #276]	; 0x114
    726a:	220a      	movs	r2, #10
    726c:	fb02 1303 	mla	r3, r2, r3, r1
    7270:	3b30      	subs	r3, #48	; 0x30
    7272:	9345      	str	r3, [sp, #276]	; 0x114
    7274:	e7f0      	b.n	7258 <__ssvfiscanf_r+0x9c>
    7276:	f8df 81dc 	ldr.w	r8, [pc, #476]	; 7454 <__ssvfiscanf_r+0x298>
    727a:	2203      	movs	r2, #3
    727c:	4640      	mov	r0, r8
    727e:	f7fb f8b3 	bl	23e8 <memchr>
    7282:	b140      	cbz	r0, 7296 <__ssvfiscanf_r+0xda>
    7284:	4635      	mov	r5, r6
    7286:	2301      	movs	r3, #1
    7288:	ebc8 0000 	rsb	r0, r8, r0
    728c:	fa03 f200 	lsl.w	r2, r3, r0
    7290:	9b43      	ldr	r3, [sp, #268]	; 0x10c
    7292:	4313      	orrs	r3, r2
    7294:	9343      	str	r3, [sp, #268]	; 0x10c
    7296:	1c6e      	adds	r6, r5, #1
    7298:	782d      	ldrb	r5, [r5, #0]
    729a:	2d67      	cmp	r5, #103	; 0x67
    729c:	d80f      	bhi.n	72be <__ssvfiscanf_r+0x102>
    729e:	2d65      	cmp	r5, #101	; 0x65
    72a0:	d278      	bcs.n	7394 <__ssvfiscanf_r+0x1d8>
    72a2:	2d5b      	cmp	r5, #91	; 0x5b
    72a4:	d054      	beq.n	7350 <__ssvfiscanf_r+0x194>
    72a6:	d805      	bhi.n	72b4 <__ssvfiscanf_r+0xf8>
    72a8:	2d00      	cmp	r5, #0
    72aa:	f000 80c5 	beq.w	7438 <__ssvfiscanf_r+0x27c>
    72ae:	2d25      	cmp	r5, #37	; 0x25
    72b0:	d018      	beq.n	72e4 <__ssvfiscanf_r+0x128>
    72b2:	e071      	b.n	7398 <__ssvfiscanf_r+0x1dc>
    72b4:	2d63      	cmp	r5, #99	; 0x63
    72b6:	d057      	beq.n	7368 <__ssvfiscanf_r+0x1ac>
    72b8:	2d64      	cmp	r5, #100	; 0x64
    72ba:	d03f      	beq.n	733c <__ssvfiscanf_r+0x180>
    72bc:	e06c      	b.n	7398 <__ssvfiscanf_r+0x1dc>
    72be:	2d70      	cmp	r5, #112	; 0x70
    72c0:	d032      	beq.n	7328 <__ssvfiscanf_r+0x16c>
    72c2:	d807      	bhi.n	72d4 <__ssvfiscanf_r+0x118>
    72c4:	2d6e      	cmp	r5, #110	; 0x6e
    72c6:	d055      	beq.n	7374 <__ssvfiscanf_r+0x1b8>
    72c8:	d83a      	bhi.n	7340 <__ssvfiscanf_r+0x184>
    72ca:	2d69      	cmp	r5, #105	; 0x69
    72cc:	d164      	bne.n	7398 <__ssvfiscanf_r+0x1dc>
    72ce:	2300      	movs	r3, #0
    72d0:	9344      	str	r3, [sp, #272]	; 0x110
    72d2:	e03b      	b.n	734c <__ssvfiscanf_r+0x190>
    72d4:	2d75      	cmp	r5, #117	; 0x75
    72d6:	d031      	beq.n	733c <__ssvfiscanf_r+0x180>
    72d8:	2d78      	cmp	r5, #120	; 0x78
    72da:	d029      	beq.n	7330 <__ssvfiscanf_r+0x174>
    72dc:	2d73      	cmp	r5, #115	; 0x73
    72de:	d15b      	bne.n	7398 <__ssvfiscanf_r+0x1dc>
    72e0:	2302      	movs	r3, #2
    72e2:	e03f      	b.n	7364 <__ssvfiscanf_r+0x1a8>
    72e4:	6863      	ldr	r3, [r4, #4]
    72e6:	2b00      	cmp	r3, #0
    72e8:	dd0d      	ble.n	7306 <__ssvfiscanf_r+0x14a>
    72ea:	6823      	ldr	r3, [r4, #0]
    72ec:	781a      	ldrb	r2, [r3, #0]
    72ee:	42aa      	cmp	r2, r5
    72f0:	f040 80a0 	bne.w	7434 <__ssvfiscanf_r+0x278>
    72f4:	3301      	adds	r3, #1
    72f6:	6862      	ldr	r2, [r4, #4]
    72f8:	6023      	str	r3, [r4, #0]
    72fa:	9b47      	ldr	r3, [sp, #284]	; 0x11c
    72fc:	3a01      	subs	r2, #1
    72fe:	3301      	adds	r3, #1
    7300:	6062      	str	r2, [r4, #4]
    7302:	9347      	str	r3, [sp, #284]	; 0x11c
    7304:	e798      	b.n	7238 <__ssvfiscanf_r+0x7c>
    7306:	9ba3      	ldr	r3, [sp, #652]	; 0x28c
    7308:	4638      	mov	r0, r7
    730a:	4621      	mov	r1, r4
    730c:	4798      	blx	r3
    730e:	2800      	cmp	r0, #0
    7310:	d0eb      	beq.n	72ea <__ssvfiscanf_r+0x12e>
    7312:	9846      	ldr	r0, [sp, #280]	; 0x118
    7314:	2800      	cmp	r0, #0
    7316:	f000 808f 	beq.w	7438 <__ssvfiscanf_r+0x27c>
    731a:	89a3      	ldrh	r3, [r4, #12]
    731c:	f013 0f40 	tst.w	r3, #64	; 0x40
    7320:	bf18      	it	ne
    7322:	f04f 30ff 	movne.w	r0, #4294967295
    7326:	e089      	b.n	743c <__ssvfiscanf_r+0x280>
    7328:	9b43      	ldr	r3, [sp, #268]	; 0x10c
    732a:	f043 0320 	orr.w	r3, r3, #32
    732e:	9343      	str	r3, [sp, #268]	; 0x10c
    7330:	9b43      	ldr	r3, [sp, #268]	; 0x10c
    7332:	f443 7300 	orr.w	r3, r3, #512	; 0x200
    7336:	9343      	str	r3, [sp, #268]	; 0x10c
    7338:	2310      	movs	r3, #16
    733a:	e002      	b.n	7342 <__ssvfiscanf_r+0x186>
    733c:	230a      	movs	r3, #10
    733e:	e000      	b.n	7342 <__ssvfiscanf_r+0x186>
    7340:	2308      	movs	r3, #8
    7342:	2d6e      	cmp	r5, #110	; 0x6e
    7344:	9344      	str	r3, [sp, #272]	; 0x110
    7346:	dd01      	ble.n	734c <__ssvfiscanf_r+0x190>
    7348:	2304      	movs	r3, #4
    734a:	e00b      	b.n	7364 <__ssvfiscanf_r+0x1a8>
    734c:	2303      	movs	r3, #3
    734e:	e009      	b.n	7364 <__ssvfiscanf_r+0x1a8>
    7350:	4631      	mov	r1, r6
    7352:	4650      	mov	r0, sl
    7354:	f7fc fd1a 	bl	3d8c <__sccl>
    7358:	4606      	mov	r6, r0
    735a:	9b43      	ldr	r3, [sp, #268]	; 0x10c
    735c:	f043 0340 	orr.w	r3, r3, #64	; 0x40
    7360:	9343      	str	r3, [sp, #268]	; 0x10c
    7362:	2301      	movs	r3, #1
    7364:	9349      	str	r3, [sp, #292]	; 0x124
    7366:	e01b      	b.n	73a0 <__ssvfiscanf_r+0x1e4>
    7368:	9b43      	ldr	r3, [sp, #268]	; 0x10c
    736a:	f043 0340 	orr.w	r3, r3, #64	; 0x40
    736e:	9343      	str	r3, [sp, #268]	; 0x10c
    7370:	2300      	movs	r3, #0
    7372:	e7f7      	b.n	7364 <__ssvfiscanf_r+0x1a8>
    7374:	9a43      	ldr	r2, [sp, #268]	; 0x10c
    7376:	06d0      	lsls	r0, r2, #27
    7378:	f53f af5e 	bmi.w	7238 <__ssvfiscanf_r+0x7c>
    737c:	f012 0f01 	tst.w	r2, #1
    7380:	9a01      	ldr	r2, [sp, #4]
    7382:	9b47      	ldr	r3, [sp, #284]	; 0x11c
    7384:	f102 0104 	add.w	r1, r2, #4
    7388:	9101      	str	r1, [sp, #4]
    738a:	6812      	ldr	r2, [r2, #0]
    738c:	bf14      	ite	ne
    738e:	8013      	strhne	r3, [r2, #0]
    7390:	6013      	streq	r3, [r2, #0]
    7392:	e751      	b.n	7238 <__ssvfiscanf_r+0x7c>
    7394:	2305      	movs	r3, #5
    7396:	e7e5      	b.n	7364 <__ssvfiscanf_r+0x1a8>
    7398:	2303      	movs	r3, #3
    739a:	9349      	str	r3, [sp, #292]	; 0x124
    739c:	230a      	movs	r3, #10
    739e:	9344      	str	r3, [sp, #272]	; 0x110
    73a0:	6863      	ldr	r3, [r4, #4]
    73a2:	2b00      	cmp	r3, #0
    73a4:	dd03      	ble.n	73ae <__ssvfiscanf_r+0x1f2>
    73a6:	9b43      	ldr	r3, [sp, #268]	; 0x10c
    73a8:	0659      	lsls	r1, r3, #25
    73aa:	d511      	bpl.n	73d0 <__ssvfiscanf_r+0x214>
    73ac:	e018      	b.n	73e0 <__ssvfiscanf_r+0x224>
    73ae:	9ba3      	ldr	r3, [sp, #652]	; 0x28c
    73b0:	4638      	mov	r0, r7
    73b2:	4621      	mov	r1, r4
    73b4:	4798      	blx	r3
    73b6:	2800      	cmp	r0, #0
    73b8:	d0f5      	beq.n	73a6 <__ssvfiscanf_r+0x1ea>
    73ba:	e7aa      	b.n	7312 <__ssvfiscanf_r+0x156>
    73bc:	9a47      	ldr	r2, [sp, #284]	; 0x11c
    73be:	3201      	adds	r2, #1
    73c0:	9247      	str	r2, [sp, #284]	; 0x11c
    73c2:	6862      	ldr	r2, [r4, #4]
    73c4:	3a01      	subs	r2, #1
    73c6:	2a00      	cmp	r2, #0
    73c8:	6062      	str	r2, [r4, #4]
    73ca:	dd13      	ble.n	73f4 <__ssvfiscanf_r+0x238>
    73cc:	3301      	adds	r3, #1
    73ce:	6023      	str	r3, [r4, #0]
    73d0:	6823      	ldr	r3, [r4, #0]
    73d2:	f8d9 1000 	ldr.w	r1, [r9]
    73d6:	781a      	ldrb	r2, [r3, #0]
    73d8:	440a      	add	r2, r1
    73da:	7852      	ldrb	r2, [r2, #1]
    73dc:	0712      	lsls	r2, r2, #28
    73de:	d4ed      	bmi.n	73bc <__ssvfiscanf_r+0x200>
    73e0:	9b49      	ldr	r3, [sp, #292]	; 0x124
    73e2:	2b02      	cmp	r3, #2
    73e4:	dc0d      	bgt.n	7402 <__ssvfiscanf_r+0x246>
    73e6:	4638      	mov	r0, r7
    73e8:	a943      	add	r1, sp, #268	; 0x10c
    73ea:	4622      	mov	r2, r4
    73ec:	ab01      	add	r3, sp, #4
    73ee:	f7fc f9bd 	bl	376c <_scanf_chars>
    73f2:	e019      	b.n	7428 <__ssvfiscanf_r+0x26c>
    73f4:	9ba3      	ldr	r3, [sp, #652]	; 0x28c
    73f6:	4638      	mov	r0, r7
    73f8:	4621      	mov	r1, r4
    73fa:	4798      	blx	r3
    73fc:	2800      	cmp	r0, #0
    73fe:	d0e7      	beq.n	73d0 <__ssvfiscanf_r+0x214>
    7400:	e787      	b.n	7312 <__ssvfiscanf_r+0x156>
    7402:	2b04      	cmp	r3, #4
    7404:	dc06      	bgt.n	7414 <__ssvfiscanf_r+0x258>
    7406:	4638      	mov	r0, r7
    7408:	a943      	add	r1, sp, #268	; 0x10c
    740a:	4622      	mov	r2, r4
    740c:	ab01      	add	r3, sp, #4
    740e:	f7fc fa0b 	bl	3828 <_scanf_i>
    7412:	e009      	b.n	7428 <__ssvfiscanf_r+0x26c>
    7414:	4b0e      	ldr	r3, [pc, #56]	; (7450 <__ssvfiscanf_r+0x294>)
    7416:	2b00      	cmp	r3, #0
    7418:	f43f af0e 	beq.w	7238 <__ssvfiscanf_r+0x7c>
    741c:	4638      	mov	r0, r7
    741e:	a943      	add	r1, sp, #268	; 0x10c
    7420:	4622      	mov	r2, r4
    7422:	ab01      	add	r3, sp, #4
    7424:	f7fb ffbc 	bl	33a0 <_scanf_float>
    7428:	2801      	cmp	r0, #1
    742a:	d003      	beq.n	7434 <__ssvfiscanf_r+0x278>
    742c:	2802      	cmp	r0, #2
    742e:	f47f af03 	bne.w	7238 <__ssvfiscanf_r+0x7c>
    7432:	e76e      	b.n	7312 <__ssvfiscanf_r+0x156>
    7434:	9846      	ldr	r0, [sp, #280]	; 0x118
    7436:	e001      	b.n	743c <__ssvfiscanf_r+0x280>
    7438:	f04f 30ff 	mov.w	r0, #4294967295
    743c:	f50d 7d24 	add.w	sp, sp, #656	; 0x290
    7440:	e8bd 87f0 	ldmia.w	sp!, {r4, r5, r6, r7, r8, r9, sl, pc}
    7444:	00007109 	.word	0x00007109
    7448:	00007183 	.word	0x00007183
    744c:	10000138 	.word	0x10000138
    7450:	000033a1 	.word	0x000033a1
    7454:	000085c6 	.word	0x000085c6

00007458 <_read_r>:
    7458:	b538      	push	{r3, r4, r5, lr}
    745a:	4c07      	ldr	r4, [pc, #28]	; (7478 <_read_r+0x20>)
    745c:	4605      	mov	r5, r0
    745e:	2000      	movs	r0, #0
    7460:	6020      	str	r0, [r4, #0]
    7462:	4608      	mov	r0, r1
    7464:	4611      	mov	r1, r2
    7466:	461a      	mov	r2, r3
    7468:	f7f9 fa16 	bl	898 <_read>
    746c:	1c43      	adds	r3, r0, #1
    746e:	d102      	bne.n	7476 <_read_r+0x1e>
    7470:	6823      	ldr	r3, [r4, #0]
    7472:	b103      	cbz	r3, 7476 <_read_r+0x1e>
    7474:	602b      	str	r3, [r5, #0]
    7476:	bd38      	pop	{r3, r4, r5, pc}
    7478:	10000484 	.word	0x10000484

0000747c <_malloc_usable_size_r>:
    747c:	f851 0c04 	ldr.w	r0, [r1, #-4]
    7480:	2800      	cmp	r0, #0
    7482:	bfbe      	ittt	lt
    7484:	1809      	addlt	r1, r1, r0
    7486:	f851 3c04 	ldrlt.w	r3, [r1, #-4]
    748a:	18c0      	addlt	r0, r0, r3
    748c:	3804      	subs	r0, #4
    748e:	4770      	bx	lr

00007490 <__aeabi_drsub>:
    7490:	f081 4100 	eor.w	r1, r1, #2147483648	; 0x80000000
    7494:	e002      	b.n	749c <__adddf3>
    7496:	bf00      	nop

00007498 <__aeabi_dsub>:
    7498:	f083 4300 	eor.w	r3, r3, #2147483648	; 0x80000000

0000749c <__adddf3>:
    749c:	b530      	push	{r4, r5, lr}
    749e:	ea4f 0441 	mov.w	r4, r1, lsl #1
    74a2:	ea4f 0543 	mov.w	r5, r3, lsl #1
    74a6:	ea94 0f05 	teq	r4, r5
    74aa:	bf08      	it	eq
    74ac:	ea90 0f02 	teqeq	r0, r2
    74b0:	bf1f      	itttt	ne
    74b2:	ea54 0c00 	orrsne.w	ip, r4, r0
    74b6:	ea55 0c02 	orrsne.w	ip, r5, r2
    74ba:	ea7f 5c64 	mvnsne.w	ip, r4, asr #21
    74be:	ea7f 5c65 	mvnsne.w	ip, r5, asr #21
    74c2:	f000 80e2 	beq.w	768a <__adddf3+0x1ee>
    74c6:	ea4f 5454 	mov.w	r4, r4, lsr #21
    74ca:	ebd4 5555 	rsbs	r5, r4, r5, lsr #21
    74ce:	bfb8      	it	lt
    74d0:	426d      	neglt	r5, r5
    74d2:	dd0c      	ble.n	74ee <__adddf3+0x52>
    74d4:	442c      	add	r4, r5
    74d6:	ea80 0202 	eor.w	r2, r0, r2
    74da:	ea81 0303 	eor.w	r3, r1, r3
    74de:	ea82 0000 	eor.w	r0, r2, r0
    74e2:	ea83 0101 	eor.w	r1, r3, r1
    74e6:	ea80 0202 	eor.w	r2, r0, r2
    74ea:	ea81 0303 	eor.w	r3, r1, r3
    74ee:	2d36      	cmp	r5, #54	; 0x36
    74f0:	bf88      	it	hi
    74f2:	bd30      	pophi	{r4, r5, pc}
    74f4:	f011 4f00 	tst.w	r1, #2147483648	; 0x80000000
    74f8:	ea4f 3101 	mov.w	r1, r1, lsl #12
    74fc:	f44f 1c80 	mov.w	ip, #1048576	; 0x100000
    7500:	ea4c 3111 	orr.w	r1, ip, r1, lsr #12
    7504:	d002      	beq.n	750c <__adddf3+0x70>
    7506:	4240      	negs	r0, r0
    7508:	eb61 0141 	sbc.w	r1, r1, r1, lsl #1
    750c:	f013 4f00 	tst.w	r3, #2147483648	; 0x80000000
    7510:	ea4f 3303 	mov.w	r3, r3, lsl #12
    7514:	ea4c 3313 	orr.w	r3, ip, r3, lsr #12
    7518:	d002      	beq.n	7520 <__adddf3+0x84>
    751a:	4252      	negs	r2, r2
    751c:	eb63 0343 	sbc.w	r3, r3, r3, lsl #1
    7520:	ea94 0f05 	teq	r4, r5
    7524:	f000 80a7 	beq.w	7676 <__adddf3+0x1da>
    7528:	f1a4 0401 	sub.w	r4, r4, #1
    752c:	f1d5 0e20 	rsbs	lr, r5, #32
    7530:	db0d      	blt.n	754e <__adddf3+0xb2>
    7532:	fa02 fc0e 	lsl.w	ip, r2, lr
    7536:	fa22 f205 	lsr.w	r2, r2, r5
    753a:	1880      	adds	r0, r0, r2
    753c:	f141 0100 	adc.w	r1, r1, #0
    7540:	fa03 f20e 	lsl.w	r2, r3, lr
    7544:	1880      	adds	r0, r0, r2
    7546:	fa43 f305 	asr.w	r3, r3, r5
    754a:	4159      	adcs	r1, r3
    754c:	e00e      	b.n	756c <__adddf3+0xd0>
    754e:	f1a5 0520 	sub.w	r5, r5, #32
    7552:	f10e 0e20 	add.w	lr, lr, #32
    7556:	2a01      	cmp	r2, #1
    7558:	fa03 fc0e 	lsl.w	ip, r3, lr
    755c:	bf28      	it	cs
    755e:	f04c 0c02 	orrcs.w	ip, ip, #2
    7562:	fa43 f305 	asr.w	r3, r3, r5
    7566:	18c0      	adds	r0, r0, r3
    7568:	eb51 71e3 	adcs.w	r1, r1, r3, asr #31
    756c:	f001 4500 	and.w	r5, r1, #2147483648	; 0x80000000
    7570:	d507      	bpl.n	7582 <__adddf3+0xe6>
    7572:	f04f 0e00 	mov.w	lr, #0
    7576:	f1dc 0c00 	rsbs	ip, ip, #0
    757a:	eb7e 0000 	sbcs.w	r0, lr, r0
    757e:	eb6e 0101 	sbc.w	r1, lr, r1
    7582:	f5b1 1f80 	cmp.w	r1, #1048576	; 0x100000
    7586:	d31b      	bcc.n	75c0 <__adddf3+0x124>
    7588:	f5b1 1f00 	cmp.w	r1, #2097152	; 0x200000
    758c:	d30c      	bcc.n	75a8 <__adddf3+0x10c>
    758e:	0849      	lsrs	r1, r1, #1
    7590:	ea5f 0030 	movs.w	r0, r0, rrx
    7594:	ea4f 0c3c 	mov.w	ip, ip, rrx
    7598:	f104 0401 	add.w	r4, r4, #1
    759c:	ea4f 5244 	mov.w	r2, r4, lsl #21
    75a0:	f512 0f80 	cmn.w	r2, #4194304	; 0x400000
    75a4:	f080 809a 	bcs.w	76dc <__adddf3+0x240>
    75a8:	f1bc 4f00 	cmp.w	ip, #2147483648	; 0x80000000
    75ac:	bf08      	it	eq
    75ae:	ea5f 0c50 	movseq.w	ip, r0, lsr #1
    75b2:	f150 0000 	adcs.w	r0, r0, #0
    75b6:	eb41 5104 	adc.w	r1, r1, r4, lsl #20
    75ba:	ea41 0105 	orr.w	r1, r1, r5
    75be:	bd30      	pop	{r4, r5, pc}
    75c0:	ea5f 0c4c 	movs.w	ip, ip, lsl #1
    75c4:	4140      	adcs	r0, r0
    75c6:	eb41 0101 	adc.w	r1, r1, r1
    75ca:	f411 1f80 	tst.w	r1, #1048576	; 0x100000
    75ce:	f1a4 0401 	sub.w	r4, r4, #1
    75d2:	d1e9      	bne.n	75a8 <__adddf3+0x10c>
    75d4:	f091 0f00 	teq	r1, #0
    75d8:	bf04      	itt	eq
    75da:	4601      	moveq	r1, r0
    75dc:	2000      	moveq	r0, #0
    75de:	fab1 f381 	clz	r3, r1
    75e2:	bf08      	it	eq
    75e4:	3320      	addeq	r3, #32
    75e6:	f1a3 030b 	sub.w	r3, r3, #11
    75ea:	f1b3 0220 	subs.w	r2, r3, #32
    75ee:	da0c      	bge.n	760a <__adddf3+0x16e>
    75f0:	320c      	adds	r2, #12
    75f2:	dd08      	ble.n	7606 <__adddf3+0x16a>
    75f4:	f102 0c14 	add.w	ip, r2, #20
    75f8:	f1c2 020c 	rsb	r2, r2, #12
    75fc:	fa01 f00c 	lsl.w	r0, r1, ip
    7600:	fa21 f102 	lsr.w	r1, r1, r2
    7604:	e00c      	b.n	7620 <__adddf3+0x184>
    7606:	f102 0214 	add.w	r2, r2, #20
    760a:	bfd8      	it	le
    760c:	f1c2 0c20 	rsble	ip, r2, #32
    7610:	fa01 f102 	lsl.w	r1, r1, r2
    7614:	fa20 fc0c 	lsr.w	ip, r0, ip
    7618:	bfdc      	itt	le
    761a:	ea41 010c 	orrle.w	r1, r1, ip
    761e:	4090      	lslle	r0, r2
    7620:	1ae4      	subs	r4, r4, r3
    7622:	bfa2      	ittt	ge
    7624:	eb01 5104 	addge.w	r1, r1, r4, lsl #20
    7628:	4329      	orrge	r1, r5
    762a:	bd30      	popge	{r4, r5, pc}
    762c:	ea6f 0404 	mvn.w	r4, r4
    7630:	3c1f      	subs	r4, #31
    7632:	da1c      	bge.n	766e <__adddf3+0x1d2>
    7634:	340c      	adds	r4, #12
    7636:	dc0e      	bgt.n	7656 <__adddf3+0x1ba>
    7638:	f104 0414 	add.w	r4, r4, #20
    763c:	f1c4 0220 	rsb	r2, r4, #32
    7640:	fa20 f004 	lsr.w	r0, r0, r4
    7644:	fa01 f302 	lsl.w	r3, r1, r2
    7648:	ea40 0003 	orr.w	r0, r0, r3
    764c:	fa21 f304 	lsr.w	r3, r1, r4
    7650:	ea45 0103 	orr.w	r1, r5, r3
    7654:	bd30      	pop	{r4, r5, pc}
    7656:	f1c4 040c 	rsb	r4, r4, #12
    765a:	f1c4 0220 	rsb	r2, r4, #32
    765e:	fa20 f002 	lsr.w	r0, r0, r2
    7662:	fa01 f304 	lsl.w	r3, r1, r4
    7666:	ea40 0003 	orr.w	r0, r0, r3
    766a:	4629      	mov	r1, r5
    766c:	bd30      	pop	{r4, r5, pc}
    766e:	fa21 f004 	lsr.w	r0, r1, r4
    7672:	4629      	mov	r1, r5
    7674:	bd30      	pop	{r4, r5, pc}
    7676:	f094 0f00 	teq	r4, #0
    767a:	f483 1380 	eor.w	r3, r3, #1048576	; 0x100000
    767e:	bf06      	itte	eq
    7680:	f481 1180 	eoreq.w	r1, r1, #1048576	; 0x100000
    7684:	3401      	addeq	r4, #1
    7686:	3d01      	subne	r5, #1
    7688:	e74e      	b.n	7528 <__adddf3+0x8c>
    768a:	ea7f 5c64 	mvns.w	ip, r4, asr #21
    768e:	bf18      	it	ne
    7690:	ea7f 5c65 	mvnsne.w	ip, r5, asr #21
    7694:	d029      	beq.n	76ea <__adddf3+0x24e>
    7696:	ea94 0f05 	teq	r4, r5
    769a:	bf08      	it	eq
    769c:	ea90 0f02 	teqeq	r0, r2
    76a0:	d005      	beq.n	76ae <__adddf3+0x212>
    76a2:	ea54 0c00 	orrs.w	ip, r4, r0
    76a6:	bf04      	itt	eq
    76a8:	4619      	moveq	r1, r3
    76aa:	4610      	moveq	r0, r2
    76ac:	bd30      	pop	{r4, r5, pc}
    76ae:	ea91 0f03 	teq	r1, r3
    76b2:	bf1e      	ittt	ne
    76b4:	2100      	movne	r1, #0
    76b6:	2000      	movne	r0, #0
    76b8:	bd30      	popne	{r4, r5, pc}
    76ba:	ea5f 5c54 	movs.w	ip, r4, lsr #21
    76be:	d105      	bne.n	76cc <__adddf3+0x230>
    76c0:	0040      	lsls	r0, r0, #1
    76c2:	4149      	adcs	r1, r1
    76c4:	bf28      	it	cs
    76c6:	f041 4100 	orrcs.w	r1, r1, #2147483648	; 0x80000000
    76ca:	bd30      	pop	{r4, r5, pc}
    76cc:	f514 0480 	adds.w	r4, r4, #4194304	; 0x400000
    76d0:	bf3c      	itt	cc
    76d2:	f501 1180 	addcc.w	r1, r1, #1048576	; 0x100000
    76d6:	bd30      	popcc	{r4, r5, pc}
    76d8:	f001 4500 	and.w	r5, r1, #2147483648	; 0x80000000
    76dc:	f045 41fe 	orr.w	r1, r5, #2130706432	; 0x7f000000
    76e0:	f441 0170 	orr.w	r1, r1, #15728640	; 0xf00000
    76e4:	f04f 0000 	mov.w	r0, #0
    76e8:	bd30      	pop	{r4, r5, pc}
    76ea:	ea7f 5c64 	mvns.w	ip, r4, asr #21
    76ee:	bf1a      	itte	ne
    76f0:	4619      	movne	r1, r3
    76f2:	4610      	movne	r0, r2
    76f4:	ea7f 5c65 	mvnseq.w	ip, r5, asr #21
    76f8:	bf1c      	itt	ne
    76fa:	460b      	movne	r3, r1
    76fc:	4602      	movne	r2, r0
    76fe:	ea50 3401 	orrs.w	r4, r0, r1, lsl #12
    7702:	bf06      	itte	eq
    7704:	ea52 3503 	orrseq.w	r5, r2, r3, lsl #12
    7708:	ea91 0f03 	teqeq	r1, r3
    770c:	f441 2100 	orrne.w	r1, r1, #524288	; 0x80000
    7710:	bd30      	pop	{r4, r5, pc}
    7712:	bf00      	nop

00007714 <__aeabi_ui2d>:
    7714:	f090 0f00 	teq	r0, #0
    7718:	bf04      	itt	eq
    771a:	2100      	moveq	r1, #0
    771c:	4770      	bxeq	lr
    771e:	b530      	push	{r4, r5, lr}
    7720:	f44f 6480 	mov.w	r4, #1024	; 0x400
    7724:	f104 0432 	add.w	r4, r4, #50	; 0x32
    7728:	f04f 0500 	mov.w	r5, #0
    772c:	f04f 0100 	mov.w	r1, #0
    7730:	e750      	b.n	75d4 <__adddf3+0x138>
    7732:	bf00      	nop

00007734 <__aeabi_i2d>:
    7734:	f090 0f00 	teq	r0, #0
    7738:	bf04      	itt	eq
    773a:	2100      	moveq	r1, #0
    773c:	4770      	bxeq	lr
    773e:	b530      	push	{r4, r5, lr}
    7740:	f44f 6480 	mov.w	r4, #1024	; 0x400
    7744:	f104 0432 	add.w	r4, r4, #50	; 0x32
    7748:	f010 4500 	ands.w	r5, r0, #2147483648	; 0x80000000
    774c:	bf48      	it	mi
    774e:	4240      	negmi	r0, r0
    7750:	f04f 0100 	mov.w	r1, #0
    7754:	e73e      	b.n	75d4 <__adddf3+0x138>
    7756:	bf00      	nop

00007758 <__aeabi_f2d>:
    7758:	0042      	lsls	r2, r0, #1
    775a:	ea4f 01e2 	mov.w	r1, r2, asr #3
    775e:	ea4f 0131 	mov.w	r1, r1, rrx
    7762:	ea4f 7002 	mov.w	r0, r2, lsl #28
    7766:	bf1f      	itttt	ne
    7768:	f012 437f 	andsne.w	r3, r2, #4278190080	; 0xff000000
    776c:	f093 4f7f 	teqne	r3, #4278190080	; 0xff000000
    7770:	f081 5160 	eorne.w	r1, r1, #939524096	; 0x38000000
    7774:	4770      	bxne	lr
    7776:	f092 0f00 	teq	r2, #0
    777a:	bf14      	ite	ne
    777c:	f093 4f7f 	teqne	r3, #4278190080	; 0xff000000
    7780:	4770      	bxeq	lr
    7782:	b530      	push	{r4, r5, lr}
    7784:	f44f 7460 	mov.w	r4, #896	; 0x380
    7788:	f001 4500 	and.w	r5, r1, #2147483648	; 0x80000000
    778c:	f021 4100 	bic.w	r1, r1, #2147483648	; 0x80000000
    7790:	e720      	b.n	75d4 <__adddf3+0x138>
    7792:	bf00      	nop

00007794 <__aeabi_ul2d>:
    7794:	ea50 0201 	orrs.w	r2, r0, r1
    7798:	bf08      	it	eq
    779a:	4770      	bxeq	lr
    779c:	b530      	push	{r4, r5, lr}
    779e:	f04f 0500 	mov.w	r5, #0
    77a2:	e00a      	b.n	77ba <__aeabi_l2d+0x16>

000077a4 <__aeabi_l2d>:
    77a4:	ea50 0201 	orrs.w	r2, r0, r1
    77a8:	bf08      	it	eq
    77aa:	4770      	bxeq	lr
    77ac:	b530      	push	{r4, r5, lr}
    77ae:	f011 4500 	ands.w	r5, r1, #2147483648	; 0x80000000
    77b2:	d502      	bpl.n	77ba <__aeabi_l2d+0x16>
    77b4:	4240      	negs	r0, r0
    77b6:	eb61 0141 	sbc.w	r1, r1, r1, lsl #1
    77ba:	f44f 6480 	mov.w	r4, #1024	; 0x400
    77be:	f104 0432 	add.w	r4, r4, #50	; 0x32
    77c2:	ea5f 5c91 	movs.w	ip, r1, lsr #22
    77c6:	f43f aedc 	beq.w	7582 <__adddf3+0xe6>
    77ca:	f04f 0203 	mov.w	r2, #3
    77ce:	ea5f 0cdc 	movs.w	ip, ip, lsr #3
    77d2:	bf18      	it	ne
    77d4:	3203      	addne	r2, #3
    77d6:	ea5f 0cdc 	movs.w	ip, ip, lsr #3
    77da:	bf18      	it	ne
    77dc:	3203      	addne	r2, #3
    77de:	eb02 02dc 	add.w	r2, r2, ip, lsr #3
    77e2:	f1c2 0320 	rsb	r3, r2, #32
    77e6:	fa00 fc03 	lsl.w	ip, r0, r3
    77ea:	fa20 f002 	lsr.w	r0, r0, r2
    77ee:	fa01 fe03 	lsl.w	lr, r1, r3
    77f2:	ea40 000e 	orr.w	r0, r0, lr
    77f6:	fa21 f102 	lsr.w	r1, r1, r2
    77fa:	4414      	add	r4, r2
    77fc:	e6c1      	b.n	7582 <__adddf3+0xe6>
    77fe:	bf00      	nop

00007800 <__aeabi_dmul>:
    7800:	b570      	push	{r4, r5, r6, lr}
    7802:	f04f 0cff 	mov.w	ip, #255	; 0xff
    7806:	f44c 6ce0 	orr.w	ip, ip, #1792	; 0x700
    780a:	ea1c 5411 	ands.w	r4, ip, r1, lsr #20
    780e:	bf1d      	ittte	ne
    7810:	ea1c 5513 	andsne.w	r5, ip, r3, lsr #20
    7814:	ea94 0f0c 	teqne	r4, ip
    7818:	ea95 0f0c 	teqne	r5, ip
    781c:	f000 f8de 	bleq	79dc <__aeabi_dmul+0x1dc>
    7820:	442c      	add	r4, r5
    7822:	ea81 0603 	eor.w	r6, r1, r3
    7826:	ea21 514c 	bic.w	r1, r1, ip, lsl #21
    782a:	ea23 534c 	bic.w	r3, r3, ip, lsl #21
    782e:	ea50 3501 	orrs.w	r5, r0, r1, lsl #12
    7832:	bf18      	it	ne
    7834:	ea52 3503 	orrsne.w	r5, r2, r3, lsl #12
    7838:	f441 1180 	orr.w	r1, r1, #1048576	; 0x100000
    783c:	f443 1380 	orr.w	r3, r3, #1048576	; 0x100000
    7840:	d038      	beq.n	78b4 <__aeabi_dmul+0xb4>
    7842:	fba0 ce02 	umull	ip, lr, r0, r2
    7846:	f04f 0500 	mov.w	r5, #0
    784a:	fbe1 e502 	umlal	lr, r5, r1, r2
    784e:	f006 4200 	and.w	r2, r6, #2147483648	; 0x80000000
    7852:	fbe0 e503 	umlal	lr, r5, r0, r3
    7856:	f04f 0600 	mov.w	r6, #0
    785a:	fbe1 5603 	umlal	r5, r6, r1, r3
    785e:	f09c 0f00 	teq	ip, #0
    7862:	bf18      	it	ne
    7864:	f04e 0e01 	orrne.w	lr, lr, #1
    7868:	f1a4 04ff 	sub.w	r4, r4, #255	; 0xff
    786c:	f5b6 7f00 	cmp.w	r6, #512	; 0x200
    7870:	f564 7440 	sbc.w	r4, r4, #768	; 0x300
    7874:	d204      	bcs.n	7880 <__aeabi_dmul+0x80>
    7876:	ea5f 0e4e 	movs.w	lr, lr, lsl #1
    787a:	416d      	adcs	r5, r5
    787c:	eb46 0606 	adc.w	r6, r6, r6
    7880:	ea42 21c6 	orr.w	r1, r2, r6, lsl #11
    7884:	ea41 5155 	orr.w	r1, r1, r5, lsr #21
    7888:	ea4f 20c5 	mov.w	r0, r5, lsl #11
    788c:	ea40 505e 	orr.w	r0, r0, lr, lsr #21
    7890:	ea4f 2ece 	mov.w	lr, lr, lsl #11
    7894:	f1b4 0cfd 	subs.w	ip, r4, #253	; 0xfd
    7898:	bf88      	it	hi
    789a:	f5bc 6fe0 	cmphi.w	ip, #1792	; 0x700
    789e:	d81e      	bhi.n	78de <__aeabi_dmul+0xde>
    78a0:	f1be 4f00 	cmp.w	lr, #2147483648	; 0x80000000
    78a4:	bf08      	it	eq
    78a6:	ea5f 0e50 	movseq.w	lr, r0, lsr #1
    78aa:	f150 0000 	adcs.w	r0, r0, #0
    78ae:	eb41 5104 	adc.w	r1, r1, r4, lsl #20
    78b2:	bd70      	pop	{r4, r5, r6, pc}
    78b4:	f006 4600 	and.w	r6, r6, #2147483648	; 0x80000000
    78b8:	ea46 0101 	orr.w	r1, r6, r1
    78bc:	ea40 0002 	orr.w	r0, r0, r2
    78c0:	ea81 0103 	eor.w	r1, r1, r3
    78c4:	ebb4 045c 	subs.w	r4, r4, ip, lsr #1
    78c8:	bfc2      	ittt	gt
    78ca:	ebd4 050c 	rsbsgt	r5, r4, ip
    78ce:	ea41 5104 	orrgt.w	r1, r1, r4, lsl #20
    78d2:	bd70      	popgt	{r4, r5, r6, pc}
    78d4:	f441 1180 	orr.w	r1, r1, #1048576	; 0x100000
    78d8:	f04f 0e00 	mov.w	lr, #0
    78dc:	3c01      	subs	r4, #1
    78de:	f300 80ab 	bgt.w	7a38 <__aeabi_dmul+0x238>
    78e2:	f114 0f36 	cmn.w	r4, #54	; 0x36
    78e6:	bfde      	ittt	le
    78e8:	2000      	movle	r0, #0
    78ea:	f001 4100 	andle.w	r1, r1, #2147483648	; 0x80000000
    78ee:	bd70      	pople	{r4, r5, r6, pc}
    78f0:	f1c4 0400 	rsb	r4, r4, #0
    78f4:	3c20      	subs	r4, #32
    78f6:	da35      	bge.n	7964 <__aeabi_dmul+0x164>
    78f8:	340c      	adds	r4, #12
    78fa:	dc1b      	bgt.n	7934 <__aeabi_dmul+0x134>
    78fc:	f104 0414 	add.w	r4, r4, #20
    7900:	f1c4 0520 	rsb	r5, r4, #32
    7904:	fa00 f305 	lsl.w	r3, r0, r5
    7908:	fa20 f004 	lsr.w	r0, r0, r4
    790c:	fa01 f205 	lsl.w	r2, r1, r5
    7910:	ea40 0002 	orr.w	r0, r0, r2
    7914:	f001 4200 	and.w	r2, r1, #2147483648	; 0x80000000
    7918:	f021 4100 	bic.w	r1, r1, #2147483648	; 0x80000000
    791c:	eb10 70d3 	adds.w	r0, r0, r3, lsr #31
    7920:	fa21 f604 	lsr.w	r6, r1, r4
    7924:	eb42 0106 	adc.w	r1, r2, r6
    7928:	ea5e 0e43 	orrs.w	lr, lr, r3, lsl #1
    792c:	bf08      	it	eq
    792e:	ea20 70d3 	biceq.w	r0, r0, r3, lsr #31
    7932:	bd70      	pop	{r4, r5, r6, pc}
    7934:	f1c4 040c 	rsb	r4, r4, #12
    7938:	f1c4 0520 	rsb	r5, r4, #32
    793c:	fa00 f304 	lsl.w	r3, r0, r4
    7940:	fa20 f005 	lsr.w	r0, r0, r5
    7944:	fa01 f204 	lsl.w	r2, r1, r4
    7948:	ea40 0002 	orr.w	r0, r0, r2
    794c:	f001 4100 	and.w	r1, r1, #2147483648	; 0x80000000
    7950:	eb10 70d3 	adds.w	r0, r0, r3, lsr #31
    7954:	f141 0100 	adc.w	r1, r1, #0
    7958:	ea5e 0e43 	orrs.w	lr, lr, r3, lsl #1
    795c:	bf08      	it	eq
    795e:	ea20 70d3 	biceq.w	r0, r0, r3, lsr #31
    7962:	bd70      	pop	{r4, r5, r6, pc}
    7964:	f1c4 0520 	rsb	r5, r4, #32
    7968:	fa00 f205 	lsl.w	r2, r0, r5
    796c:	ea4e 0e02 	orr.w	lr, lr, r2
    7970:	fa20 f304 	lsr.w	r3, r0, r4
    7974:	fa01 f205 	lsl.w	r2, r1, r5
    7978:	ea43 0302 	orr.w	r3, r3, r2
    797c:	fa21 f004 	lsr.w	r0, r1, r4
    7980:	f001 4100 	and.w	r1, r1, #2147483648	; 0x80000000
    7984:	fa21 f204 	lsr.w	r2, r1, r4
    7988:	ea20 0002 	bic.w	r0, r0, r2
    798c:	eb00 70d3 	add.w	r0, r0, r3, lsr #31
    7990:	ea5e 0e43 	orrs.w	lr, lr, r3, lsl #1
    7994:	bf08      	it	eq
    7996:	ea20 70d3 	biceq.w	r0, r0, r3, lsr #31
    799a:	bd70      	pop	{r4, r5, r6, pc}
    799c:	f094 0f00 	teq	r4, #0
    79a0:	d10f      	bne.n	79c2 <__aeabi_dmul+0x1c2>
    79a2:	f001 4600 	and.w	r6, r1, #2147483648	; 0x80000000
    79a6:	0040      	lsls	r0, r0, #1
    79a8:	eb41 0101 	adc.w	r1, r1, r1
    79ac:	f411 1f80 	tst.w	r1, #1048576	; 0x100000
    79b0:	bf08      	it	eq
    79b2:	3c01      	subeq	r4, #1
    79b4:	d0f7      	beq.n	79a6 <__aeabi_dmul+0x1a6>
    79b6:	ea41 0106 	orr.w	r1, r1, r6
    79ba:	f095 0f00 	teq	r5, #0
    79be:	bf18      	it	ne
    79c0:	4770      	bxne	lr
    79c2:	f003 4600 	and.w	r6, r3, #2147483648	; 0x80000000
    79c6:	0052      	lsls	r2, r2, #1
    79c8:	eb43 0303 	adc.w	r3, r3, r3
    79cc:	f413 1f80 	tst.w	r3, #1048576	; 0x100000
    79d0:	bf08      	it	eq
    79d2:	3d01      	subeq	r5, #1
    79d4:	d0f7      	beq.n	79c6 <__aeabi_dmul+0x1c6>
    79d6:	ea43 0306 	orr.w	r3, r3, r6
    79da:	4770      	bx	lr
    79dc:	ea94 0f0c 	teq	r4, ip
    79e0:	ea0c 5513 	and.w	r5, ip, r3, lsr #20
    79e4:	bf18      	it	ne
    79e6:	ea95 0f0c 	teqne	r5, ip
    79ea:	d00c      	beq.n	7a06 <__aeabi_dmul+0x206>
    79ec:	ea50 0641 	orrs.w	r6, r0, r1, lsl #1
    79f0:	bf18      	it	ne
    79f2:	ea52 0643 	orrsne.w	r6, r2, r3, lsl #1
    79f6:	d1d1      	bne.n	799c <__aeabi_dmul+0x19c>
    79f8:	ea81 0103 	eor.w	r1, r1, r3
    79fc:	f001 4100 	and.w	r1, r1, #2147483648	; 0x80000000
    7a00:	f04f 0000 	mov.w	r0, #0
    7a04:	bd70      	pop	{r4, r5, r6, pc}
    7a06:	ea50 0641 	orrs.w	r6, r0, r1, lsl #1
    7a0a:	bf06      	itte	eq
    7a0c:	4610      	moveq	r0, r2
    7a0e:	4619      	moveq	r1, r3
    7a10:	ea52 0643 	orrsne.w	r6, r2, r3, lsl #1
    7a14:	d019      	beq.n	7a4a <__aeabi_dmul+0x24a>
    7a16:	ea94 0f0c 	teq	r4, ip
    7a1a:	d102      	bne.n	7a22 <__aeabi_dmul+0x222>
    7a1c:	ea50 3601 	orrs.w	r6, r0, r1, lsl #12
    7a20:	d113      	bne.n	7a4a <__aeabi_dmul+0x24a>
    7a22:	ea95 0f0c 	teq	r5, ip
    7a26:	d105      	bne.n	7a34 <__aeabi_dmul+0x234>
    7a28:	ea52 3603 	orrs.w	r6, r2, r3, lsl #12
    7a2c:	bf1c      	itt	ne
    7a2e:	4610      	movne	r0, r2
    7a30:	4619      	movne	r1, r3
    7a32:	d10a      	bne.n	7a4a <__aeabi_dmul+0x24a>
    7a34:	ea81 0103 	eor.w	r1, r1, r3
    7a38:	f001 4100 	and.w	r1, r1, #2147483648	; 0x80000000
    7a3c:	f041 41fe 	orr.w	r1, r1, #2130706432	; 0x7f000000
    7a40:	f441 0170 	orr.w	r1, r1, #15728640	; 0xf00000
    7a44:	f04f 0000 	mov.w	r0, #0
    7a48:	bd70      	pop	{r4, r5, r6, pc}
    7a4a:	f041 41fe 	orr.w	r1, r1, #2130706432	; 0x7f000000
    7a4e:	f441 0178 	orr.w	r1, r1, #16252928	; 0xf80000
    7a52:	bd70      	pop	{r4, r5, r6, pc}

00007a54 <__aeabi_ddiv>:
    7a54:	b570      	push	{r4, r5, r6, lr}
    7a56:	f04f 0cff 	mov.w	ip, #255	; 0xff
    7a5a:	f44c 6ce0 	orr.w	ip, ip, #1792	; 0x700
    7a5e:	ea1c 5411 	ands.w	r4, ip, r1, lsr #20
    7a62:	bf1d      	ittte	ne
    7a64:	ea1c 5513 	andsne.w	r5, ip, r3, lsr #20
    7a68:	ea94 0f0c 	teqne	r4, ip
    7a6c:	ea95 0f0c 	teqne	r5, ip
    7a70:	f000 f8a7 	bleq	7bc2 <__aeabi_ddiv+0x16e>
    7a74:	eba4 0405 	sub.w	r4, r4, r5
    7a78:	ea81 0e03 	eor.w	lr, r1, r3
    7a7c:	ea52 3503 	orrs.w	r5, r2, r3, lsl #12
    7a80:	ea4f 3101 	mov.w	r1, r1, lsl #12
    7a84:	f000 8088 	beq.w	7b98 <__aeabi_ddiv+0x144>
    7a88:	ea4f 3303 	mov.w	r3, r3, lsl #12
    7a8c:	f04f 5580 	mov.w	r5, #268435456	; 0x10000000
    7a90:	ea45 1313 	orr.w	r3, r5, r3, lsr #4
    7a94:	ea43 6312 	orr.w	r3, r3, r2, lsr #24
    7a98:	ea4f 2202 	mov.w	r2, r2, lsl #8
    7a9c:	ea45 1511 	orr.w	r5, r5, r1, lsr #4
    7aa0:	ea45 6510 	orr.w	r5, r5, r0, lsr #24
    7aa4:	ea4f 2600 	mov.w	r6, r0, lsl #8
    7aa8:	f00e 4100 	and.w	r1, lr, #2147483648	; 0x80000000
    7aac:	429d      	cmp	r5, r3
    7aae:	bf08      	it	eq
    7ab0:	4296      	cmpeq	r6, r2
    7ab2:	f144 04fd 	adc.w	r4, r4, #253	; 0xfd
    7ab6:	f504 7440 	add.w	r4, r4, #768	; 0x300
    7aba:	d202      	bcs.n	7ac2 <__aeabi_ddiv+0x6e>
    7abc:	085b      	lsrs	r3, r3, #1
    7abe:	ea4f 0232 	mov.w	r2, r2, rrx
    7ac2:	1ab6      	subs	r6, r6, r2
    7ac4:	eb65 0503 	sbc.w	r5, r5, r3
    7ac8:	085b      	lsrs	r3, r3, #1
    7aca:	ea4f 0232 	mov.w	r2, r2, rrx
    7ace:	f44f 1080 	mov.w	r0, #1048576	; 0x100000
    7ad2:	f44f 2c00 	mov.w	ip, #524288	; 0x80000
    7ad6:	ebb6 0e02 	subs.w	lr, r6, r2
    7ada:	eb75 0e03 	sbcs.w	lr, r5, r3
    7ade:	bf22      	ittt	cs
    7ae0:	1ab6      	subcs	r6, r6, r2
    7ae2:	4675      	movcs	r5, lr
    7ae4:	ea40 000c 	orrcs.w	r0, r0, ip
    7ae8:	085b      	lsrs	r3, r3, #1
    7aea:	ea4f 0232 	mov.w	r2, r2, rrx
    7aee:	ebb6 0e02 	subs.w	lr, r6, r2
    7af2:	eb75 0e03 	sbcs.w	lr, r5, r3
    7af6:	bf22      	ittt	cs
    7af8:	1ab6      	subcs	r6, r6, r2
    7afa:	4675      	movcs	r5, lr
    7afc:	ea40 005c 	orrcs.w	r0, r0, ip, lsr #1
    7b00:	085b      	lsrs	r3, r3, #1
    7b02:	ea4f 0232 	mov.w	r2, r2, rrx
    7b06:	ebb6 0e02 	subs.w	lr, r6, r2
    7b0a:	eb75 0e03 	sbcs.w	lr, r5, r3
    7b0e:	bf22      	ittt	cs
    7b10:	1ab6      	subcs	r6, r6, r2
    7b12:	4675      	movcs	r5, lr
    7b14:	ea40 009c 	orrcs.w	r0, r0, ip, lsr #2
    7b18:	085b      	lsrs	r3, r3, #1
    7b1a:	ea4f 0232 	mov.w	r2, r2, rrx
    7b1e:	ebb6 0e02 	subs.w	lr, r6, r2
    7b22:	eb75 0e03 	sbcs.w	lr, r5, r3
    7b26:	bf22      	ittt	cs
    7b28:	1ab6      	subcs	r6, r6, r2
    7b2a:	4675      	movcs	r5, lr
    7b2c:	ea40 00dc 	orrcs.w	r0, r0, ip, lsr #3
    7b30:	ea55 0e06 	orrs.w	lr, r5, r6
    7b34:	d018      	beq.n	7b68 <__aeabi_ddiv+0x114>
    7b36:	ea4f 1505 	mov.w	r5, r5, lsl #4
    7b3a:	ea45 7516 	orr.w	r5, r5, r6, lsr #28
    7b3e:	ea4f 1606 	mov.w	r6, r6, lsl #4
    7b42:	ea4f 03c3 	mov.w	r3, r3, lsl #3
    7b46:	ea43 7352 	orr.w	r3, r3, r2, lsr #29
    7b4a:	ea4f 02c2 	mov.w	r2, r2, lsl #3
    7b4e:	ea5f 1c1c 	movs.w	ip, ip, lsr #4
    7b52:	d1c0      	bne.n	7ad6 <__aeabi_ddiv+0x82>
    7b54:	f411 1f80 	tst.w	r1, #1048576	; 0x100000
    7b58:	d10b      	bne.n	7b72 <__aeabi_ddiv+0x11e>
    7b5a:	ea41 0100 	orr.w	r1, r1, r0
    7b5e:	f04f 0000 	mov.w	r0, #0
    7b62:	f04f 4c00 	mov.w	ip, #2147483648	; 0x80000000
    7b66:	e7b6      	b.n	7ad6 <__aeabi_ddiv+0x82>
    7b68:	f411 1f80 	tst.w	r1, #1048576	; 0x100000
    7b6c:	bf04      	itt	eq
    7b6e:	4301      	orreq	r1, r0
    7b70:	2000      	moveq	r0, #0
    7b72:	f1b4 0cfd 	subs.w	ip, r4, #253	; 0xfd
    7b76:	bf88      	it	hi
    7b78:	f5bc 6fe0 	cmphi.w	ip, #1792	; 0x700
    7b7c:	f63f aeaf 	bhi.w	78de <__aeabi_dmul+0xde>
    7b80:	ebb5 0c03 	subs.w	ip, r5, r3
    7b84:	bf04      	itt	eq
    7b86:	ebb6 0c02 	subseq.w	ip, r6, r2
    7b8a:	ea5f 0c50 	movseq.w	ip, r0, lsr #1
    7b8e:	f150 0000 	adcs.w	r0, r0, #0
    7b92:	eb41 5104 	adc.w	r1, r1, r4, lsl #20
    7b96:	bd70      	pop	{r4, r5, r6, pc}
    7b98:	f00e 4e00 	and.w	lr, lr, #2147483648	; 0x80000000
    7b9c:	ea4e 3111 	orr.w	r1, lr, r1, lsr #12
    7ba0:	eb14 045c 	adds.w	r4, r4, ip, lsr #1
    7ba4:	bfc2      	ittt	gt
    7ba6:	ebd4 050c 	rsbsgt	r5, r4, ip
    7baa:	ea41 5104 	orrgt.w	r1, r1, r4, lsl #20
    7bae:	bd70      	popgt	{r4, r5, r6, pc}
    7bb0:	f441 1180 	orr.w	r1, r1, #1048576	; 0x100000
    7bb4:	f04f 0e00 	mov.w	lr, #0
    7bb8:	3c01      	subs	r4, #1
    7bba:	e690      	b.n	78de <__aeabi_dmul+0xde>
    7bbc:	ea45 0e06 	orr.w	lr, r5, r6
    7bc0:	e68d      	b.n	78de <__aeabi_dmul+0xde>
    7bc2:	ea0c 5513 	and.w	r5, ip, r3, lsr #20
    7bc6:	ea94 0f0c 	teq	r4, ip
    7bca:	bf08      	it	eq
    7bcc:	ea95 0f0c 	teqeq	r5, ip
    7bd0:	f43f af3b 	beq.w	7a4a <__aeabi_dmul+0x24a>
    7bd4:	ea94 0f0c 	teq	r4, ip
    7bd8:	d10a      	bne.n	7bf0 <__aeabi_ddiv+0x19c>
    7bda:	ea50 3401 	orrs.w	r4, r0, r1, lsl #12
    7bde:	f47f af34 	bne.w	7a4a <__aeabi_dmul+0x24a>
    7be2:	ea95 0f0c 	teq	r5, ip
    7be6:	f47f af25 	bne.w	7a34 <__aeabi_dmul+0x234>
    7bea:	4610      	mov	r0, r2
    7bec:	4619      	mov	r1, r3
    7bee:	e72c      	b.n	7a4a <__aeabi_dmul+0x24a>
    7bf0:	ea95 0f0c 	teq	r5, ip
    7bf4:	d106      	bne.n	7c04 <__aeabi_ddiv+0x1b0>
    7bf6:	ea52 3503 	orrs.w	r5, r2, r3, lsl #12
    7bfa:	f43f aefd 	beq.w	79f8 <__aeabi_dmul+0x1f8>
    7bfe:	4610      	mov	r0, r2
    7c00:	4619      	mov	r1, r3
    7c02:	e722      	b.n	7a4a <__aeabi_dmul+0x24a>
    7c04:	ea50 0641 	orrs.w	r6, r0, r1, lsl #1
    7c08:	bf18      	it	ne
    7c0a:	ea52 0643 	orrsne.w	r6, r2, r3, lsl #1
    7c0e:	f47f aec5 	bne.w	799c <__aeabi_dmul+0x19c>
    7c12:	ea50 0441 	orrs.w	r4, r0, r1, lsl #1
    7c16:	f47f af0d 	bne.w	7a34 <__aeabi_dmul+0x234>
    7c1a:	ea52 0543 	orrs.w	r5, r2, r3, lsl #1
    7c1e:	f47f aeeb 	bne.w	79f8 <__aeabi_dmul+0x1f8>
    7c22:	e712      	b.n	7a4a <__aeabi_dmul+0x24a>

00007c24 <__gedf2>:
    7c24:	f04f 3cff 	mov.w	ip, #4294967295
    7c28:	e006      	b.n	7c38 <__cmpdf2+0x4>
    7c2a:	bf00      	nop

00007c2c <__ledf2>:
    7c2c:	f04f 0c01 	mov.w	ip, #1
    7c30:	e002      	b.n	7c38 <__cmpdf2+0x4>
    7c32:	bf00      	nop

00007c34 <__cmpdf2>:
    7c34:	f04f 0c01 	mov.w	ip, #1
    7c38:	f84d cd04 	str.w	ip, [sp, #-4]!
    7c3c:	ea4f 0c41 	mov.w	ip, r1, lsl #1
    7c40:	ea7f 5c6c 	mvns.w	ip, ip, asr #21
    7c44:	ea4f 0c43 	mov.w	ip, r3, lsl #1
    7c48:	bf18      	it	ne
    7c4a:	ea7f 5c6c 	mvnsne.w	ip, ip, asr #21
    7c4e:	d01b      	beq.n	7c88 <__cmpdf2+0x54>
    7c50:	b001      	add	sp, #4
    7c52:	ea50 0c41 	orrs.w	ip, r0, r1, lsl #1
    7c56:	bf0c      	ite	eq
    7c58:	ea52 0c43 	orrseq.w	ip, r2, r3, lsl #1
    7c5c:	ea91 0f03 	teqne	r1, r3
    7c60:	bf02      	ittt	eq
    7c62:	ea90 0f02 	teqeq	r0, r2
    7c66:	2000      	moveq	r0, #0
    7c68:	4770      	bxeq	lr
    7c6a:	f110 0f00 	cmn.w	r0, #0
    7c6e:	ea91 0f03 	teq	r1, r3
    7c72:	bf58      	it	pl
    7c74:	4299      	cmppl	r1, r3
    7c76:	bf08      	it	eq
    7c78:	4290      	cmpeq	r0, r2
    7c7a:	bf2c      	ite	cs
    7c7c:	17d8      	asrcs	r0, r3, #31
    7c7e:	ea6f 70e3 	mvncc.w	r0, r3, asr #31
    7c82:	f040 0001 	orr.w	r0, r0, #1
    7c86:	4770      	bx	lr
    7c88:	ea4f 0c41 	mov.w	ip, r1, lsl #1
    7c8c:	ea7f 5c6c 	mvns.w	ip, ip, asr #21
    7c90:	d102      	bne.n	7c98 <__cmpdf2+0x64>
    7c92:	ea50 3c01 	orrs.w	ip, r0, r1, lsl #12
    7c96:	d107      	bne.n	7ca8 <__cmpdf2+0x74>
    7c98:	ea4f 0c43 	mov.w	ip, r3, lsl #1
    7c9c:	ea7f 5c6c 	mvns.w	ip, ip, asr #21
    7ca0:	d1d6      	bne.n	7c50 <__cmpdf2+0x1c>
    7ca2:	ea52 3c03 	orrs.w	ip, r2, r3, lsl #12
    7ca6:	d0d3      	beq.n	7c50 <__cmpdf2+0x1c>
    7ca8:	f85d 0b04 	ldr.w	r0, [sp], #4
    7cac:	4770      	bx	lr
    7cae:	bf00      	nop

00007cb0 <__aeabi_cdrcmple>:
    7cb0:	4684      	mov	ip, r0
    7cb2:	4610      	mov	r0, r2
    7cb4:	4662      	mov	r2, ip
    7cb6:	468c      	mov	ip, r1
    7cb8:	4619      	mov	r1, r3
    7cba:	4663      	mov	r3, ip
    7cbc:	e000      	b.n	7cc0 <__aeabi_cdcmpeq>
    7cbe:	bf00      	nop

00007cc0 <__aeabi_cdcmpeq>:
    7cc0:	b501      	push	{r0, lr}
    7cc2:	f7ff ffb7 	bl	7c34 <__cmpdf2>
    7cc6:	2800      	cmp	r0, #0
    7cc8:	bf48      	it	mi
    7cca:	f110 0f00 	cmnmi.w	r0, #0
    7cce:	bd01      	pop	{r0, pc}

00007cd0 <__aeabi_dcmpeq>:
    7cd0:	f84d ed08 	str.w	lr, [sp, #-8]!
    7cd4:	f7ff fff4 	bl	7cc0 <__aeabi_cdcmpeq>
    7cd8:	bf0c      	ite	eq
    7cda:	2001      	moveq	r0, #1
    7cdc:	2000      	movne	r0, #0
    7cde:	f85d fb08 	ldr.w	pc, [sp], #8
    7ce2:	bf00      	nop

00007ce4 <__aeabi_dcmplt>:
    7ce4:	f84d ed08 	str.w	lr, [sp, #-8]!
    7ce8:	f7ff ffea 	bl	7cc0 <__aeabi_cdcmpeq>
    7cec:	bf34      	ite	cc
    7cee:	2001      	movcc	r0, #1
    7cf0:	2000      	movcs	r0, #0
    7cf2:	f85d fb08 	ldr.w	pc, [sp], #8
    7cf6:	bf00      	nop

00007cf8 <__aeabi_dcmple>:
    7cf8:	f84d ed08 	str.w	lr, [sp, #-8]!
    7cfc:	f7ff ffe0 	bl	7cc0 <__aeabi_cdcmpeq>
    7d00:	bf94      	ite	ls
    7d02:	2001      	movls	r0, #1
    7d04:	2000      	movhi	r0, #0
    7d06:	f85d fb08 	ldr.w	pc, [sp], #8
    7d0a:	bf00      	nop

00007d0c <__aeabi_dcmpge>:
    7d0c:	f84d ed08 	str.w	lr, [sp, #-8]!
    7d10:	f7ff ffce 	bl	7cb0 <__aeabi_cdrcmple>
    7d14:	bf94      	ite	ls
    7d16:	2001      	movls	r0, #1
    7d18:	2000      	movhi	r0, #0
    7d1a:	f85d fb08 	ldr.w	pc, [sp], #8
    7d1e:	bf00      	nop

00007d20 <__aeabi_dcmpgt>:
    7d20:	f84d ed08 	str.w	lr, [sp, #-8]!
    7d24:	f7ff ffc4 	bl	7cb0 <__aeabi_cdrcmple>
    7d28:	bf34      	ite	cc
    7d2a:	2001      	movcc	r0, #1
    7d2c:	2000      	movcs	r0, #0
    7d2e:	f85d fb08 	ldr.w	pc, [sp], #8
    7d32:	bf00      	nop

00007d34 <__aeabi_d2iz>:
    7d34:	ea4f 0241 	mov.w	r2, r1, lsl #1
    7d38:	f512 1200 	adds.w	r2, r2, #2097152	; 0x200000
    7d3c:	d215      	bcs.n	7d6a <__aeabi_d2iz+0x36>
    7d3e:	d511      	bpl.n	7d64 <__aeabi_d2iz+0x30>
    7d40:	f46f 7378 	mvn.w	r3, #992	; 0x3e0
    7d44:	ebb3 5262 	subs.w	r2, r3, r2, asr #21
    7d48:	d912      	bls.n	7d70 <__aeabi_d2iz+0x3c>
    7d4a:	ea4f 23c1 	mov.w	r3, r1, lsl #11
    7d4e:	f043 4300 	orr.w	r3, r3, #2147483648	; 0x80000000
    7d52:	ea43 5350 	orr.w	r3, r3, r0, lsr #21
    7d56:	f011 4f00 	tst.w	r1, #2147483648	; 0x80000000
    7d5a:	fa23 f002 	lsr.w	r0, r3, r2
    7d5e:	bf18      	it	ne
    7d60:	4240      	negne	r0, r0
    7d62:	4770      	bx	lr
    7d64:	f04f 0000 	mov.w	r0, #0
    7d68:	4770      	bx	lr
    7d6a:	ea50 3001 	orrs.w	r0, r0, r1, lsl #12
    7d6e:	d105      	bne.n	7d7c <__aeabi_d2iz+0x48>
    7d70:	f011 4000 	ands.w	r0, r1, #2147483648	; 0x80000000
    7d74:	bf08      	it	eq
    7d76:	f06f 4000 	mvneq.w	r0, #2147483648	; 0x80000000
    7d7a:	4770      	bx	lr
    7d7c:	f04f 0000 	mov.w	r0, #0
    7d80:	4770      	bx	lr
    7d82:	bf00      	nop

00007d84 <__aeabi_d2uiz>:
    7d84:	004a      	lsls	r2, r1, #1
    7d86:	d211      	bcs.n	7dac <__aeabi_d2uiz+0x28>
    7d88:	f512 1200 	adds.w	r2, r2, #2097152	; 0x200000
    7d8c:	d211      	bcs.n	7db2 <__aeabi_d2uiz+0x2e>
    7d8e:	d50d      	bpl.n	7dac <__aeabi_d2uiz+0x28>
    7d90:	f46f 7378 	mvn.w	r3, #992	; 0x3e0
    7d94:	ebb3 5262 	subs.w	r2, r3, r2, asr #21
    7d98:	d40e      	bmi.n	7db8 <__aeabi_d2uiz+0x34>
    7d9a:	ea4f 23c1 	mov.w	r3, r1, lsl #11
    7d9e:	f043 4300 	orr.w	r3, r3, #2147483648	; 0x80000000
    7da2:	ea43 5350 	orr.w	r3, r3, r0, lsr #21
    7da6:	fa23 f002 	lsr.w	r0, r3, r2
    7daa:	4770      	bx	lr
    7dac:	f04f 0000 	mov.w	r0, #0
    7db0:	4770      	bx	lr
    7db2:	ea50 3001 	orrs.w	r0, r0, r1, lsl #12
    7db6:	d102      	bne.n	7dbe <__aeabi_d2uiz+0x3a>
    7db8:	f04f 30ff 	mov.w	r0, #4294967295
    7dbc:	4770      	bx	lr
    7dbe:	f04f 0000 	mov.w	r0, #0
    7dc2:	4770      	bx	lr

00007dc4 <__aeabi_d2f>:
    7dc4:	ea4f 0241 	mov.w	r2, r1, lsl #1
    7dc8:	f1b2 43e0 	subs.w	r3, r2, #1879048192	; 0x70000000
    7dcc:	bf24      	itt	cs
    7dce:	f5b3 1c00 	subscs.w	ip, r3, #2097152	; 0x200000
    7dd2:	f1dc 5cfe 	rsbscs	ip, ip, #532676608	; 0x1fc00000
    7dd6:	d90d      	bls.n	7df4 <__aeabi_d2f+0x30>
    7dd8:	f001 4c00 	and.w	ip, r1, #2147483648	; 0x80000000
    7ddc:	ea4f 02c0 	mov.w	r2, r0, lsl #3
    7de0:	ea4c 7050 	orr.w	r0, ip, r0, lsr #29
    7de4:	f1b2 4f00 	cmp.w	r2, #2147483648	; 0x80000000
    7de8:	eb40 0083 	adc.w	r0, r0, r3, lsl #2
    7dec:	bf08      	it	eq
    7dee:	f020 0001 	biceq.w	r0, r0, #1
    7df2:	4770      	bx	lr
    7df4:	f011 4f80 	tst.w	r1, #1073741824	; 0x40000000
    7df8:	d121      	bne.n	7e3e <__aeabi_d2f+0x7a>
    7dfa:	f113 7238 	adds.w	r2, r3, #48234496	; 0x2e00000
    7dfe:	bfbc      	itt	lt
    7e00:	f001 4000 	andlt.w	r0, r1, #2147483648	; 0x80000000
    7e04:	4770      	bxlt	lr
    7e06:	f441 1180 	orr.w	r1, r1, #1048576	; 0x100000
    7e0a:	ea4f 5252 	mov.w	r2, r2, lsr #21
    7e0e:	f1c2 0218 	rsb	r2, r2, #24
    7e12:	f1c2 0c20 	rsb	ip, r2, #32
    7e16:	fa10 f30c 	lsls.w	r3, r0, ip
    7e1a:	fa20 f002 	lsr.w	r0, r0, r2
    7e1e:	bf18      	it	ne
    7e20:	f040 0001 	orrne.w	r0, r0, #1
    7e24:	ea4f 23c1 	mov.w	r3, r1, lsl #11
    7e28:	ea4f 23d3 	mov.w	r3, r3, lsr #11
    7e2c:	fa03 fc0c 	lsl.w	ip, r3, ip
    7e30:	ea40 000c 	orr.w	r0, r0, ip
    7e34:	fa23 f302 	lsr.w	r3, r3, r2
    7e38:	ea4f 0343 	mov.w	r3, r3, lsl #1
    7e3c:	e7cc      	b.n	7dd8 <__aeabi_d2f+0x14>
    7e3e:	ea7f 5362 	mvns.w	r3, r2, asr #21
    7e42:	d107      	bne.n	7e54 <__aeabi_d2f+0x90>
    7e44:	ea50 3301 	orrs.w	r3, r0, r1, lsl #12
    7e48:	bf1e      	ittt	ne
    7e4a:	f04f 40fe 	movne.w	r0, #2130706432	; 0x7f000000
    7e4e:	f440 0040 	orrne.w	r0, r0, #12582912	; 0xc00000
    7e52:	4770      	bxne	lr
    7e54:	f001 4000 	and.w	r0, r1, #2147483648	; 0x80000000
    7e58:	f040 40fe 	orr.w	r0, r0, #2130706432	; 0x7f000000
    7e5c:	f440 0000 	orr.w	r0, r0, #8388608	; 0x800000
    7e60:	4770      	bx	lr
    7e62:	bf00      	nop

00007e64 <_init>:
    7e64:	b5f8      	push	{r3, r4, r5, r6, r7, lr}
    7e66:	bf00      	nop
    7e68:	bcf8      	pop	{r3, r4, r5, r6, r7}
    7e6a:	bc08      	pop	{r3}
    7e6c:	469e      	mov	lr, r3
    7e6e:	4770      	bx	lr

00007e70 <_fini>:
    7e70:	b5f8      	push	{r3, r4, r5, r6, r7, lr}
    7e72:	bf00      	nop
    7e74:	bcf8      	pop	{r3, r4, r5, r6, r7}
    7e76:	bc08      	pop	{r3}
    7e78:	469e      	mov	lr, r3
    7e7a:	4770      	bx	lr
    7e7c:	65746e45 	.word	0x65746e45
    7e80:	656c2072 	.word	0x656c2072
    7e84:	30203a64 	.word	0x30203a64
    7e88:	41202d20 	.word	0x41202d20
    7e8c:	4c206c6c 	.word	0x4c206c6c
    7e90:	2c734445 	.word	0x2c734445
    7e94:	2d203120 	.word	0x2d203120
    7e98:	44454c20 	.word	0x44454c20
    7e9c:	32202c31 	.word	0x32202c31
    7ea0:	4c202d20 	.word	0x4c202d20
    7ea4:	2c324445 	.word	0x2c324445
    7ea8:	2d203320 	.word	0x2d203320
    7eac:	44454c20 	.word	0x44454c20
    7eb0:	00000d33 	.word	0x00000d33
    7eb4:	00007525 	.word	0x00007525
    7eb8:	74696157 	.word	0x74696157
    7ebc:	20676e69 	.word	0x20676e69
    7ec0:	72206f74 	.word	0x72206f74
    7ec4:	20766365 	.word	0x20766365
    7ec8:	6d6d6f63 	.word	0x6d6d6f63
    7ecc:	0d646e61 	.word	0x0d646e61
    7ed0:	00000000 	.word	0x00000000
    7ed4:	65746e45 	.word	0x65746e45
    7ed8:	6f6d2072 	.word	0x6f6d2072
    7edc:	203a6564 	.word	0x203a6564
    7ee0:	202d2030 	.word	0x202d2030
    7ee4:	202c7874 	.word	0x202c7874
    7ee8:	202d2031 	.word	0x202d2031
    7eec:	000d7872 	.word	0x000d7872
    7ef0:	2d6a626f 	.word	0x2d6a626f
    7ef4:	6e69703e 	.word	0x6e69703e
    7ef8:	203d2120 	.word	0x203d2120
    7efc:	6e695028 	.word	0x6e695028
    7f00:	656d614e 	.word	0x656d614e
    7f04:	00434e29 	.word	0x00434e29
    7f08:	435c3a43 	.word	0x435c3a43
    7f0c:	5c65646f 	.word	0x5c65646f
    7f10:	5f746967 	.word	0x5f746967
    7f14:	6f706572 	.word	0x6f706572
    7f18:	7469675c 	.word	0x7469675c
    7f1c:	5c627568 	.word	0x5c627568
    7f20:	6465626d 	.word	0x6465626d
    7f24:	66666f2d 	.word	0x66666f2d
    7f28:	61696369 	.word	0x61696369
    7f2c:	75625c6c 	.word	0x75625c6c
    7f30:	5c646c69 	.word	0x5c646c69
    7f34:	6465626d 	.word	0x6465626d
    7f38:	5241545c 	.word	0x5241545c
    7f3c:	5f544547 	.word	0x5f544547
    7f40:	3143504c 	.word	0x3143504c
    7f44:	5c383637 	.word	0x5c383637
    7f48:	47524154 	.word	0x47524154
    7f4c:	4e5f5445 	.word	0x4e5f5445
    7f50:	545c5058 	.word	0x545c5058
    7f54:	45475241 	.word	0x45475241
    7f58:	504c5f54 	.word	0x504c5f54
    7f5c:	36373143 	.word	0x36373143
    7f60:	70672f58 	.word	0x70672f58
    7f64:	6f5f6f69 	.word	0x6f5f6f69
    7f68:	63656a62 	.word	0x63656a62
    7f6c:	00682e74 	.word	0x00682e74

00007f70 <__stdin_name>:
    7f70:	6474732f 00006e69                       /stdin..

00007f78 <__stderr_name>:
    7f78:	6474732f 00727265                       /stderr.

00007f80 <__stdout_name>:
    7f80:	6474732f 0074756f                       /stdout.

00007f88 <_ZTVN4mbed10FileHandleE>:
	...
    7f90:	00000955 00000955 00000955 00000955     U...U...U...U...
    7fa0:	00000955 00000955 00000679 000006ad     U...U...y.......
    7fb0:	000006d9 00000000 0070253a 65637845     ........:%p.Exce
    7fc0:	6f697470 0000006e                       ption...

00007fc8 <PinMap_UART_RTS>:
    7fc8:	2009c016 40010000 00000001 2009c047     ... ...@....G.. 
    7fd8:	40010000 00000002 ffffffff ffffffff     ...@............
    7fe8:	00000000                                ....

00007fec <CSWTCH.24>:
    7fec:	00000000 00000001 00000002 00000003     ................

00007ffc <PinMap_UART_RX>:
    7ffc:	2009c001 4009c000 00000002 2009c003     ... ...@....... 
    800c:	4000c000 00000001 2009c00b 40098000     ...@....... ...@
    801c:	00000001 2009c010 40010000 00000001     ....... ...@....
    802c:	2009c01a 4009c000 00000003 2009c041     ... ...@....A.. 
    803c:	40010000 00000002 2009c049 40098000     ...@....I.. ...@
    804c:	00000002 2009c09d 4009c000 00000003     ....... ...@....
    805c:	ffffffff ffffffff 00000000 746e6928     ............(int
    806c:	6a626f29 61753e2d 3c207472 4155203d     )obj->uart <= UA
    807c:	335f5452 00000000 435c3a43 5c65646f     RT_3....C:\Code\
    808c:	5f746967 6f706572 7469675c 5c627568     git_repo\github\
    809c:	6465626d 66666f2d 61696369 696c5c6c     mbed-official\li
    80ac:	72617262 5c736569 6465626d 7261745c     braries\mbed\tar
    80bc:	73746567 6c61685c 5241545c 5f544547     gets\hal\TARGET_
    80cc:	5c50584e 47524154 4c5f5445 37314350     NXP\TARGET_LPC17
    80dc:	735c5836 61697265 70615f6c 00632e69     6X\serial_api.c.
    80ec:	6f747328 69625f70 3d207374 2931203d     (stop_bits == 1)
    80fc:	207c7c20 6f747328 69625f70 3d207374      || (stop_bits =
    810c:	2932203d 00000000 74616428 69625f61     = 2)....(data_bi
    811c:	3e207374 20293420 28202626 61746164     ts > 4) && (data
    812c:	7469625f 203c2073 00002939 72617028     _bits < 9)..(par
    813c:	20797469 50203d3d 74697261 6e6f4e79     ity == ParityNon
    814c:	7c202965 7028207c 74697261 3d3d2079     e) || (parity ==
    815c:	72615020 4f797469 20296464 28207c7c      ParityOdd) || (
    816c:	69726170 3d207974 6150203d 79746972     parity == Parity
    817c:	6e657645 7c7c2029 61702820 79746972     Even) || (parity
    818c:	203d3d20 69726150 6f467974 64656372      == ParityForced
    819c:	7c202931 7028207c 74697261 3d3d2079     1) || (parity ==
    81ac:	72615020 46797469 6563726f 00293064      ParityForced0).
    81bc:	435c3a43 5c65646f 5f746967 6f706572     C:\Code\git_repo
    81cc:	7469675c 5c627568 6465626d 66666f2d     \github\mbed-off
    81dc:	61696369 696c5c6c 72617262 5c736569     icial\libraries\
    81ec:	6465626d 7261745c 73746567 6c61685c     mbed\targets\hal
    81fc:	5241545c 5f544547 5c50584e 47524154     \TARGET_NXP\TARG
    820c:	4c5f5445 37314350 672f5836 5f6f6970     ET_LPC176X/gpio_
    821c:	656a626f 682e7463 00000000 746e6928     object.h....(int
    822c:	72617529 3d212074 00434e20              )uart != NC.

00008238 <PinMap_UART_TX>:
    8238:	2009c000 4009c000 00000002 2009c002     ... ...@....... 
    8248:	4000c000 00000001 2009c00a 40098000     ...@....... ...@
    8258:	00000001 2009c00f 40010000 00000001     ....... ...@....
    8268:	2009c019 4009c000 00000003 2009c040     ... ...@....@.. 
    8278:	40010000 00000002 2009c048 40098000     ...@....H.. ...@
    8288:	00000002 2009c09c 4009c000 00000003     ....... ...@....
    8298:	ffffffff ffffffff 00000000              ............

000082a4 <PinMap_UART_CTS>:
    82a4:	2009c011 40010000 00000001 2009c042     ... ...@....B.. 
    82b4:	40010000 00000002 ffffffff ffffffff     ...@............
    82c4:	00000000                                ....

000082c8 <_ZTVN4mbed10SerialBaseE>:
	...
    82d0:	0000019d 000001d5                       ........

000082d8 <_ZTVN4mbed6StreamE>:
	...
    82e0:	00001475 00001471 000014a5 000014d9     u...q...........
    82f0:	000014d5 000014dd 000014e1 000014e5     ................
    8300:	00001511 00000955 00000955 fffffffc     ....U...U.......
    8310:	00000000 00001509 00001525 00000000     ........%.......
    8320:	00002b77 00000000                       w+......

00008328 <_ZTVN4mbed6SerialE>:
	...
    8330:	000001a1 00000375 0000159d 000015a9     ....u...........
    8340:	ffffffb8 00000000 00001475 00001471     ........u...q...
    8350:	000014a5 000014d9 000014d5 000014dd     ................
    8360:	000014e1 000001c5 0000039d 000015ad     ................
    8370:	000015a1 ffffffb4 00000000 000001cd     ................
    8380:	000003a5 00000000 6465626d 73736120     ........mbed ass
    8390:	61747265 6e6f6974 69616620 3a64656c     ertation failed:
    83a0:	2c732520 6c696620 25203a65 6c202c73      %s, file: %s, l
    83b0:	20656e69 0a206425 00000000 6c756f63     ine %d .....coul
    83c0:	6f6e2064 69702074 74756f6e 00000000     d not pinout....
    83d0:	6d6e6970 6d207061 6d2d7369 68637461     pinmap mis-match
    83e0:	00000000 6d6e6970 6e207061 6620746f     ....pinmap not f
    83f0:	646e756f 726f6620 72657020 65687069     ound for periphe
    8400:	006c6172 6d6e6970 6e207061 6620746f     ral.pinmap not f
    8410:	646e756f 726f6620 6e756620 6f697463     ound for functio
    8420:	0000006e 206e6970 28203d21 4e6e6950     n...pin != (PinN
    8430:	29656d61 0000434e 435c3a43 5c65646f     ame)NC..C:\Code\
    8440:	5f746967 6f706572 7469675c 5c627568     git_repo\github\
    8450:	6465626d 66666f2d 61696369 696c5c6c     mbed-official\li
    8460:	72617262 5c736569 6465626d 7261745c     braries\mbed\tar
    8470:	73746567 6c61685c 5241545c 5f544547     gets\hal\TARGET_
    8480:	5c50584e 47524154 4c5f5445 37314350     NXP\TARGET_LPC17
    8490:	675c5836 5f6f6970 2e697061 00000063     6X\gpio_api.c...
    84a0:	435c3a43 5c65646f 5f746967 6f706572     C:\Code\git_repo
    84b0:	7469675c 5c627568 6465626d 66666f2d     \github\mbed-off
    84c0:	61696369 696c5c6c 72617262 5c736569     icial\libraries\
    84d0:	6465626d 7261745c 73746567 6c61685c     mbed\targets\hal
    84e0:	5241545c 5f544547 5c50584e 47524154     \TARGET_NXP\TARG
    84f0:	4c5f5445 37314350 705c5836 616d6e69     ET_LPC176X\pinma
    8500:	00632e70 00000000                       p.c.....

00008508 <_ZTVN4mbed8FileBaseE>:
	...
    8510:	00001a1d 00001a4d                       ....M...

00008518 <_ZTVN4mbed8FileLikeE>:
	...
    8520:	00000955 00000955 00000955 00000955     U...U...U...U...
    8530:	00000955 00000955 00000679 00001af1     U...U...y.......
    8540:	00001b1d fffffffc 00000000 00001b15     ................
    8550:	00001b49 00000000                       I.......

00008558 <__sf_fake_stdin>:
	...

00008578 <__sf_fake_stdout>:
	...

00008598 <__sf_fake_stderr>:
	...
    85b8:	00000043                                C...

000085bc <_global_impure_ptr>:
    85bc:	100000d4 2b302d23 6c680020 6665004c     ....#-0+ .hlL.ef
    85cc:	47464567 464e4900 666e6900 4e414e00     gEFG.INF.inf.NAN
    85dc:	6e616e00 32313000 36353433 41393837     .nan.0123456789A
    85ec:	45444342 31300046 35343332 39383736     BCDEF.0123456789
    85fc:	64636261 65006665 00646c25 00008626     abcdef.e%ld.&...
    860c:	00008629 0000862c 61462d41 3938662d     )...,...A-Fa-f89
    861c:	33323130 37363534 2d2b005d 00303000     01234567].+-.00.
    862c:	00005878                                xX..

00008630 <fpinan.5309>:
    8630:	00000034 fffffbce 000003cb 00000001     4...............
	...

00008648 <tinytens>:
    8648:	97d889bc 3c9cd2b2 d5a8a733 3949f623     .......<3...#.I9
    8658:	44f4a73d 32a50ffd cf8c979d 255bba08     =..D...2......[%
    8668:	64ac6f43 11680628                       Co.d(.h.

00008670 <fpi.5273>:
    8670:	00000035 fffffbce 000003cb 00000001     5...............
    8680:	00000000                                ....

00008684 <_ctype_>:
    8684:	20202000 20202020 28282020 20282828     .         ((((( 
    8694:	20202020 20202020 20202020 20202020                     
    86a4:	10108820 10101010 10101010 10101010      ...............
    86b4:	04040410 04040404 10040404 10101010     ................
    86c4:	41411010 41414141 01010101 01010101     ..AAAAAA........
    86d4:	01010101 01010101 01010101 10101010     ................
    86e4:	42421010 42424242 02020202 02020202     ..BBBBBB........
    86f4:	02020202 02020202 02020202 10101010     ................
    8704:	00000020 00000000 00000000 00000000      ...............
	...
    8784:	666e4900 74696e69 614e0079 4f50004e     .Infinity.NaN.PO
    8794:	00584953 0000002e 00000000              SIX.........

000087a0 <__mprec_tens>:
    87a0:	00000000 3ff00000 00000000 40240000     .......?......$@
    87b0:	00000000 40590000 00000000 408f4000     ......Y@.....@.@
    87c0:	00000000 40c38800 00000000 40f86a00     .......@.....j.@
    87d0:	00000000 412e8480 00000000 416312d0     .......A......cA
    87e0:	00000000 4197d784 00000000 41cdcd65     .......A....e..A
    87f0:	20000000 4202a05f e8000000 42374876     ... _..B....vH7B
    8800:	a2000000 426d1a94 e5400000 42a2309c     ......mB..@..0.B
    8810:	1e900000 42d6bcc4 26340000 430c6bf5     .......B..4&.k.C
    8820:	37e08000 4341c379 85d8a000 43763457     ...7y.AC....W4vC
    8830:	674ec800 43abc16d 60913d00 43e158e4     ..Ngm..C.=.`.X.C
    8840:	78b58c40 4415af1d d6e2ef50 444b1ae4     @..x...DP.....KD
    8850:	064dd592 4480f0cf c7e14af6 44b52d02     ..M....D.J...-.D
    8860:	79d99db4 44ea7843                       ...yCx.D

00008868 <__mprec_bigtens>:
    8868:	37e08000 4341c379 b5056e17 4693b8b5     ...7y.AC.n.....F
    8878:	e93ff9f5 4d384f03 f9301d32 5a827748     ..?..O8M2.0.Hw.Z
    8888:	7f73bf3c 75154fdd                       <.s..O.u

00008890 <p05.5308>:
    8890:	00000005 00000019 0000007d              ........}...

0000889c <__EH_FRAME_BEGIN__>:
    889c:	00000010 00000000 00527a01 010e7c02     .........zR..|..
    88ac:	000d0c1b 00000010 00000018 ffffb786     ................
    88bc:	00000014 00000000                       ........

000088c4 <__FRAME_END__>:
    88c4:	00000000                                ....
